
coremark.elf:     file format elf32-littleriscv


Disassembly of section .text:

00001000 <iterate>:
    1000:	ff010113          	addi	sp,sp,-16
    1004:	01212023          	sw	s2,0(sp)
    1008:	01c52903          	lw	s2,28(a0)
    100c:	00112623          	sw	ra,12(sp)
    1010:	02052c23          	sw	zero,56(a0)
    1014:	02052e23          	sw	zero,60(a0)
    1018:	04090e63          	beqz	s2,1074 <iterate+0x74>
    101c:	00812423          	sw	s0,8(sp)
    1020:	00912223          	sw	s1,4(sp)
    1024:	00050413          	mv	s0,a0
    1028:	00000493          	li	s1,0
    102c:	00100593          	li	a1,1
    1030:	00040513          	mv	a0,s0
    1034:	70d000ef          	jal	1f40 <core_bench_list>
    1038:	03845583          	lhu	a1,56(s0)
    103c:	1d5000ef          	jal	1a10 <crcu16>
    1040:	02a41c23          	sh	a0,56(s0)
    1044:	fff00593          	li	a1,-1
    1048:	00040513          	mv	a0,s0
    104c:	6f5000ef          	jal	1f40 <core_bench_list>
    1050:	03845583          	lhu	a1,56(s0)
    1054:	1bd000ef          	jal	1a10 <crcu16>
    1058:	02a41c23          	sh	a0,56(s0)
    105c:	00049463          	bnez	s1,1064 <iterate+0x64>
    1060:	02a41d23          	sh	a0,58(s0)
    1064:	00148493          	addi	s1,s1,1
    1068:	fc9912e3          	bne	s2,s1,102c <iterate+0x2c>
    106c:	00812403          	lw	s0,8(sp)
    1070:	00412483          	lw	s1,4(sp)
    1074:	00c12083          	lw	ra,12(sp)
    1078:	00012903          	lw	s2,0(sp)
    107c:	00000513          	li	a0,0
    1080:	01010113          	addi	sp,sp,16
    1084:	00008067          	ret

00001088 <main>:
    1088:	00008537          	lui	a0,0x8
    108c:	f6010113          	addi	sp,sp,-160
    1090:	00c50513          	addi	a0,a0,12 # 800c <mem_name+0xc>
    1094:	08112e23          	sw	ra,156(sp)
    1098:	08812c23          	sw	s0,152(sp)
    109c:	08912a23          	sw	s1,148(sp)
    10a0:	09212823          	sw	s2,144(sp)
    10a4:	09312623          	sw	s3,140(sp)
    10a8:	09612023          	sw	s6,128(sp)
    10ac:	07712e23          	sw	s7,124(sp)
    10b0:	07812c23          	sw	s8,120(sp)
    10b4:	07912a23          	sw	s9,116(sp)
    10b8:	07a12823          	sw	s10,112(sp)
    10bc:	00012a23          	sw	zero,20(sp)
    10c0:	7d0020ef          	jal	3890 <printf>
    10c4:	01810613          	addi	a2,sp,24
    10c8:	01410593          	addi	a1,sp,20
    10cc:	05e10513          	addi	a0,sp,94
    10d0:	081000ef          	jal	1950 <portable_init>
    10d4:	00100513          	li	a0,1
    10d8:	08d000ef          	jal	1964 <get_seed_32>
    10dc:	00050793          	mv	a5,a0
    10e0:	00200513          	li	a0,2
    10e4:	00f11e23          	sh	a5,28(sp)
    10e8:	07d000ef          	jal	1964 <get_seed_32>
    10ec:	00050793          	mv	a5,a0
    10f0:	00300513          	li	a0,3
    10f4:	00f11f23          	sh	a5,30(sp)
    10f8:	06d000ef          	jal	1964 <get_seed_32>
    10fc:	00050793          	mv	a5,a0
    1100:	00400513          	li	a0,4
    1104:	02f11023          	sh	a5,32(sp)
    1108:	05d000ef          	jal	1964 <get_seed_32>
    110c:	00050793          	mv	a5,a0
    1110:	00500513          	li	a0,5
    1114:	02f12c23          	sw	a5,56(sp)
    1118:	04d000ef          	jal	1964 <get_seed_32>
    111c:	01c12783          	lw	a5,28(sp)
    1120:	00700713          	li	a4,7
    1124:	02e12e23          	sw	a4,60(sp)
    1128:	22079a63          	bnez	a5,135c <main+0x2d4>
    112c:	02011783          	lh	a5,32(sp)
    1130:	3a078c63          	beqz	a5,14e8 <main+0x460>
    1134:	00700513          	li	a0,7
    1138:	02d000ef          	jal	1964 <get_seed_32>
    113c:	01051513          	slli	a0,a0,0x10
    1140:	41055513          	srai	a0,a0,0x10
    1144:	00051463          	bnez	a0,114c <main+0xc4>
    1148:	7d000513          	li	a0,2000
    114c:	02a12a23          	sw	a0,52(sp)
    1150:	778000ef          	jal	18c8 <portable_malloc>
    1154:	03c12783          	lw	a5,60(sp)
    1158:	04011e23          	sh	zero,92(sp)
    115c:	02a12223          	sw	a0,36(sp)
    1160:	0027f713          	andi	a4,a5,2
    1164:	00e03733          	snez	a4,a4
    1168:	0017f693          	andi	a3,a5,1
    116c:	0047f613          	andi	a2,a5,4
    1170:	00050813          	mv	a6,a0
    1174:	00e686b3          	add	a3,a3,a4
    1178:	00060863          	beqz	a2,1188 <main+0x100>
    117c:	00168693          	addi	a3,a3,1
    1180:	01069693          	slli	a3,a3,0x10
    1184:	0106d693          	srli	a3,a3,0x10
    1188:	03412703          	lw	a4,52(sp)
    118c:	01c10613          	addi	a2,sp,28
    1190:	00000593          	li	a1,0
    1194:	02d75533          	divu	a0,a4,a3
    1198:	00100313          	li	t1,1
    119c:	00000713          	li	a4,0
    11a0:	00300893          	li	a7,3
    11a4:	02a12a23          	sw	a0,52(sp)
    11a8:	00e316b3          	sll	a3,t1,a4
    11ac:	00f6f6b3          	and	a3,a3,a5
    11b0:	00170713          	addi	a4,a4,1
    11b4:	18069663          	bnez	a3,1340 <main+0x2b8>
    11b8:	00460613          	addi	a2,a2,4
    11bc:	ff1716e3          	bne	a4,a7,11a8 <main+0x120>
    11c0:	0017f713          	andi	a4,a5,1
    11c4:	00070c63          	beqz	a4,11dc <main+0x154>
    11c8:	01c11603          	lh	a2,28(sp)
    11cc:	02812583          	lw	a1,40(sp)
    11d0:	7ad000ef          	jal	217c <core_list_init>
    11d4:	03c12783          	lw	a5,60(sp)
    11d8:	04a12023          	sw	a0,64(sp)
    11dc:	0027f713          	andi	a4,a5,2
    11e0:	12071c63          	bnez	a4,1318 <main+0x290>
    11e4:	0047f793          	andi	a5,a5,4
    11e8:	00078a63          	beqz	a5,11fc <main+0x174>
    11ec:	03012603          	lw	a2,48(sp)
    11f0:	01c11583          	lh	a1,28(sp)
    11f4:	03412503          	lw	a0,52(sp)
    11f8:	700010ef          	jal	28f8 <core_init_state>
    11fc:	03812783          	lw	a5,56(sp)
    1200:	08079263          	bnez	a5,1284 <main+0x1fc>
    1204:	000097b7          	lui	a5,0x9
    1208:	8e07ab03          	lw	s6,-1824(a5) # 88e0 <__clz_tab+0x100>
    120c:	8e47ab83          	lw	s7,-1820(a5)
    1210:	00100793          	li	a5,1
    1214:	02f12c23          	sw	a5,56(sp)
    1218:	03812703          	lw	a4,56(sp)
    121c:	00271793          	slli	a5,a4,0x2
    1220:	00e787b3          	add	a5,a5,a4
    1224:	00179793          	slli	a5,a5,0x1
    1228:	02f12c23          	sw	a5,56(sp)
    122c:	6a4000ef          	jal	18d0 <start_time>
    1230:	01c10513          	addi	a0,sp,28
    1234:	dcdff0ef          	jal	1000 <iterate>
    1238:	6b8000ef          	jal	18f0 <stop_time>
    123c:	6d4000ef          	jal	1910 <get_time>
    1240:	6e8000ef          	jal	1928 <time_in_secs>
    1244:	000b0613          	mv	a2,s6
    1248:	000b8693          	mv	a3,s7
    124c:	00050c93          	mv	s9,a0
    1250:	00058c13          	mv	s8,a1
    1254:	230040ef          	jal	5484 <__ledf2>
    1258:	fc0540e3          	bltz	a0,1218 <main+0x190>
    125c:	000c8513          	mv	a0,s9
    1260:	000c0593          	mv	a1,s8
    1264:	074050ef          	jal	62d8 <__fixunsdfsi>
    1268:	26050c63          	beqz	a0,14e0 <main+0x458>
    126c:	00a00793          	li	a5,10
    1270:	02a7d7b3          	divu	a5,a5,a0
    1274:	03812703          	lw	a4,56(sp)
    1278:	00178793          	addi	a5,a5,1
    127c:	02f707b3          	mul	a5,a4,a5
    1280:	02f12c23          	sw	a5,56(sp)
    1284:	00008537          	lui	a0,0x8
    1288:	02c50513          	addi	a0,a0,44 # 802c <mem_name+0x2c>
    128c:	604020ef          	jal	3890 <printf>
    1290:	640000ef          	jal	18d0 <start_time>
    1294:	01c10513          	addi	a0,sp,28
    1298:	d69ff0ef          	jal	1000 <iterate>
    129c:	654000ef          	jal	18f0 <stop_time>
    12a0:	670000ef          	jal	1910 <get_time>
    12a4:	00050b13          	mv	s6,a0
    12a8:	01c11503          	lh	a0,28(sp)
    12ac:	00000593          	li	a1,0
    12b0:	7c4000ef          	jal	1a74 <crc16>
    12b4:	00050593          	mv	a1,a0
    12b8:	01e11503          	lh	a0,30(sp)
    12bc:	7b8000ef          	jal	1a74 <crc16>
    12c0:	00050593          	mv	a1,a0
    12c4:	02011503          	lh	a0,32(sp)
    12c8:	7ac000ef          	jal	1a74 <crc16>
    12cc:	00050593          	mv	a1,a0
    12d0:	03411503          	lh	a0,52(sp)
    12d4:	7a0000ef          	jal	1a74 <crc16>
    12d8:	000087b7          	lui	a5,0x8
    12dc:	b0578793          	addi	a5,a5,-1275 # 7b05 <__clzsi2+0x1641>
    12e0:	00050c93          	mv	s9,a0
    12e4:	5af50e63          	beq	a0,a5,18a0 <main+0x818>
    12e8:	08a7fe63          	bgeu	a5,a0,1384 <main+0x2fc>
    12ec:	000097b7          	lui	a5,0x9
    12f0:	a0278793          	addi	a5,a5,-1534 # 8a02 <__heap_start+0xa2>
    12f4:	58f50c63          	beq	a0,a5,188c <main+0x804>
    12f8:	0000f7b7          	lui	a5,0xf
    12fc:	9f578793          	addi	a5,a5,-1547 # e9f5 <__stack_top+0x2095>
    1300:	1ef51a63          	bne	a0,a5,14f4 <main+0x46c>
    1304:	00008537          	lui	a0,0x8
    1308:	0e450513          	addi	a0,a0,228 # 80e4 <mem_name+0xe4>
    130c:	584020ef          	jal	3890 <printf>
    1310:	00300b93          	li	s7,3
    1314:	0980006f          	j	13ac <main+0x324>
    1318:	01e11783          	lh	a5,30(sp)
    131c:	01c11603          	lh	a2,28(sp)
    1320:	02c12583          	lw	a1,44(sp)
    1324:	03412503          	lw	a0,52(sp)
    1328:	01079793          	slli	a5,a5,0x10
    132c:	00c7e633          	or	a2,a5,a2
    1330:	04410693          	addi	a3,sp,68
    1334:	7fd000ef          	jal	2330 <core_init_matrix>
    1338:	03c12783          	lw	a5,60(sp)
    133c:	ea9ff06f          	j	11e4 <main+0x15c>
    1340:	02a586b3          	mul	a3,a1,a0
    1344:	00158593          	addi	a1,a1,1
    1348:	01059593          	slli	a1,a1,0x10
    134c:	0105d593          	srli	a1,a1,0x10
    1350:	00d806b3          	add	a3,a6,a3
    1354:	00d62623          	sw	a3,12(a2)
    1358:	e61ff06f          	j	11b8 <main+0x130>
    135c:	00100713          	li	a4,1
    1360:	dce79ae3          	bne	a5,a4,1134 <main+0xac>
    1364:	02011783          	lh	a5,32(sp)
    1368:	dc0796e3          	bnez	a5,1134 <main+0xac>
    136c:	341537b7          	lui	a5,0x34153
    1370:	41578793          	addi	a5,a5,1045 # 34153415 <__stack_top+0x34146ab5>
    1374:	06600713          	li	a4,102
    1378:	00f12e23          	sw	a5,28(sp)
    137c:	02e11023          	sh	a4,32(sp)
    1380:	db5ff06f          	j	1134 <main+0xac>
    1384:	000027b7          	lui	a5,0x2
    1388:	8f278793          	addi	a5,a5,-1806 # 18f2 <stop_time+0x2>
    138c:	4ef50663          	beq	a0,a5,1878 <main+0x7f0>
    1390:	000057b7          	lui	a5,0x5
    1394:	eaf78793          	addi	a5,a5,-337 # 4eaf <__divdf3+0x1b7>
    1398:	14f51e63          	bne	a0,a5,14f4 <main+0x46c>
    139c:	00008537          	lui	a0,0x8
    13a0:	0b050513          	addi	a0,a0,176 # 80b0 <mem_name+0xb0>
    13a4:	4ec020ef          	jal	3890 <printf>
    13a8:	00200b93          	li	s7,2
    13ac:	00009d37          	lui	s10,0x9
    13b0:	908d2783          	lw	a5,-1784(s10) # 8908 <default_num_contexts>
    13b4:	50078063          	beqz	a5,18b4 <main+0x82c>
    13b8:	00008837          	lui	a6,0x8
    13bc:	5fc80813          	addi	a6,a6,1532 # 85fc <list_known_crc>
    13c0:	001b9793          	slli	a5,s7,0x1
    13c4:	09412423          	sw	s4,136(sp)
    13c8:	09512223          	sw	s5,132(sp)
    13cc:	07b12623          	sw	s11,108(sp)
    13d0:	00f80933          	add	s2,a6,a5
    13d4:	00000a93          	li	s5,0
    13d8:	00000a13          	li	s4,0
    13dc:	00008db7          	lui	s11,0x8
    13e0:	00008c37          	lui	s8,0x8
    13e4:	000084b7          	lui	s1,0x8
    13e8:	0340006f          	j	141c <main+0x394>
    13ec:	00278433          	add	s0,a5,sp
    13f0:	00c45783          	lhu	a5,12(s0)
    13f4:	001a0593          	addi	a1,s4,1
    13f8:	908d2703          	lw	a4,-1784(s10)
    13fc:	015787b3          	add	a5,a5,s5
    1400:	01059a13          	slli	s4,a1,0x10
    1404:	01079413          	slli	s0,a5,0x10
    1408:	01079a93          	slli	s5,a5,0x10
    140c:	010a5a13          	srli	s4,s4,0x10
    1410:	01045413          	srli	s0,s0,0x10
    1414:	410ada93          	srai	s5,s5,0x10
    1418:	3aea7a63          	bgeu	s4,a4,17cc <main+0x744>
    141c:	004a1413          	slli	s0,s4,0x4
    1420:	014407b3          	add	a5,s0,s4
    1424:	00279793          	slli	a5,a5,0x2
    1428:	01010713          	addi	a4,sp,16
    142c:	05078793          	addi	a5,a5,80
    1430:	00e789b3          	add	s3,a5,a4
    1434:	fdc9a703          	lw	a4,-36(s3)
    1438:	fe099e23          	sh	zero,-4(s3)
    143c:	00177693          	andi	a3,a4,1
    1440:	02068663          	beqz	a3,146c <main+0x3e4>
    1444:	ff69d603          	lhu	a2,-10(s3)
    1448:	00095683          	lhu	a3,0(s2)
    144c:	02d60063          	beq	a2,a3,146c <main+0x3e4>
    1450:	000a0593          	mv	a1,s4
    1454:	140d8513          	addi	a0,s11,320 # 8140 <mem_name+0x140>
    1458:	438020ef          	jal	3890 <printf>
    145c:	ffc9d683          	lhu	a3,-4(s3)
    1460:	fdc9a703          	lw	a4,-36(s3)
    1464:	00168693          	addi	a3,a3,1
    1468:	fed99e23          	sh	a3,-4(s3)
    146c:	00277793          	andi	a5,a4,2
    1470:	04078063          	beqz	a5,14b0 <main+0x428>
    1474:	014407b3          	add	a5,s0,s4
    1478:	00279793          	slli	a5,a5,0x2
    147c:	01010693          	addi	a3,sp,16
    1480:	05078793          	addi	a5,a5,80
    1484:	00d789b3          	add	s3,a5,a3
    1488:	ff89d603          	lhu	a2,-8(s3)
    148c:	00c95683          	lhu	a3,12(s2)
    1490:	02d60063          	beq	a2,a3,14b0 <main+0x428>
    1494:	000a0593          	mv	a1,s4
    1498:	170c0513          	addi	a0,s8,368 # 8170 <mem_name+0x170>
    149c:	3f4020ef          	jal	3890 <printf>
    14a0:	ffc9d683          	lhu	a3,-4(s3)
    14a4:	fdc9a703          	lw	a4,-36(s3)
    14a8:	00168693          	addi	a3,a3,1
    14ac:	fed99e23          	sh	a3,-4(s3)
    14b0:	01440433          	add	s0,s0,s4
    14b4:	00241413          	slli	s0,s0,0x2
    14b8:	00477713          	andi	a4,a4,4
    14bc:	05040793          	addi	a5,s0,80
    14c0:	f20706e3          	beqz	a4,13ec <main+0x364>
    14c4:	01010713          	addi	a4,sp,16
    14c8:	00e78433          	add	s0,a5,a4
    14cc:	ffa45603          	lhu	a2,-6(s0)
    14d0:	01895683          	lhu	a3,24(s2)
    14d4:	2cd61a63          	bne	a2,a3,17a8 <main+0x720>
    14d8:	ffc45783          	lhu	a5,-4(s0)
    14dc:	f19ff06f          	j	13f4 <main+0x36c>
    14e0:	00100513          	li	a0,1
    14e4:	d89ff06f          	j	126c <main+0x1e4>
    14e8:	06600793          	li	a5,102
    14ec:	02f11023          	sh	a5,32(sp)
    14f0:	c45ff06f          	j	1134 <main+0xac>
    14f4:	00010437          	lui	s0,0x10
    14f8:	fff40413          	addi	s0,s0,-1 # ffff <__stack_top+0x369f>
    14fc:	fff00b93          	li	s7,-1
    1500:	00009d37          	lui	s10,0x9
    1504:	57c000ef          	jal	1a80 <check_data_types>
    1508:	03412583          	lw	a1,52(sp)
    150c:	000087b7          	lui	a5,0x8
    1510:	008504b3          	add	s1,a0,s0
    1514:	1d478513          	addi	a0,a5,468 # 81d4 <mem_name+0x1d4>
    1518:	378020ef          	jal	3890 <printf>
    151c:	00008537          	lui	a0,0x8
    1520:	000b0593          	mv	a1,s6
    1524:	1ec50513          	addi	a0,a0,492 # 81ec <mem_name+0x1ec>
    1528:	368020ef          	jal	3890 <printf>
    152c:	000b0513          	mv	a0,s6
    1530:	3f8000ef          	jal	1928 <time_in_secs>
    1534:	00050613          	mv	a2,a0
    1538:	00008537          	lui	a0,0x8
    153c:	00058693          	mv	a3,a1
    1540:	20450513          	addi	a0,a0,516 # 8204 <mem_name+0x204>
    1544:	34c020ef          	jal	3890 <printf>
    1548:	000b0513          	mv	a0,s6
    154c:	3dc000ef          	jal	1928 <time_in_secs>
    1550:	01049493          	slli	s1,s1,0x10
    1554:	00000613          	li	a2,0
    1558:	00000693          	li	a3,0
    155c:	4104d493          	srai	s1,s1,0x10
    1560:	655030ef          	jal	53b4 <__gedf2>
    1564:	04a05a63          	blez	a0,15b8 <main+0x530>
    1568:	908d2783          	lw	a5,-1784(s10) # 8908 <default_num_contexts>
    156c:	03812503          	lw	a0,56(sp)
    1570:	02f50533          	mul	a0,a0,a5
    1574:	5e1040ef          	jal	6354 <__floatunsidf>
    1578:	00050c13          	mv	s8,a0
    157c:	00058413          	mv	s0,a1
    1580:	000b0513          	mv	a0,s6
    1584:	3a4000ef          	jal	1928 <time_in_secs>
    1588:	01812023          	sw	s8,0(sp)
    158c:	00812223          	sw	s0,4(sp)
    1590:	00050613          	mv	a2,a0
    1594:	00058693          	mv	a3,a1
    1598:	00012503          	lw	a0,0(sp)
    159c:	00412583          	lw	a1,4(sp)
    15a0:	758030ef          	jal	4cf8 <__divdf3>
    15a4:	00050613          	mv	a2,a0
    15a8:	00008537          	lui	a0,0x8
    15ac:	00058693          	mv	a3,a1
    15b0:	21c50513          	addi	a0,a0,540 # 821c <mem_name+0x21c>
    15b4:	2dc020ef          	jal	3890 <printf>
    15b8:	908d2783          	lw	a5,-1784(s10)
    15bc:	03812583          	lw	a1,56(sp)
    15c0:	00008537          	lui	a0,0x8
    15c4:	23450513          	addi	a0,a0,564 # 8234 <mem_name+0x234>
    15c8:	02f585b3          	mul	a1,a1,a5
    15cc:	00008937          	lui	s2,0x8
    15d0:	000089b7          	lui	s3,0x8
    15d4:	00008c37          	lui	s8,0x8
    15d8:	2b8020ef          	jal	3890 <printf>
    15dc:	00008537          	lui	a0,0x8
    15e0:	24c90593          	addi	a1,s2,588 # 824c <mem_name+0x24c>
    15e4:	25850513          	addi	a0,a0,600 # 8258 <mem_name+0x258>
    15e8:	2a8020ef          	jal	3890 <printf>
    15ec:	00008537          	lui	a0,0x8
    15f0:	27098593          	addi	a1,s3,624 # 8270 <mem_name+0x270>
    15f4:	30450513          	addi	a0,a0,772 # 8304 <mem_name+0x304>
    15f8:	298020ef          	jal	3890 <printf>
    15fc:	00008537          	lui	a0,0x8
    1600:	31cc0593          	addi	a1,s8,796 # 831c <mem_name+0x31c>
    1604:	32450513          	addi	a0,a0,804 # 8324 <mem_name+0x324>
    1608:	288020ef          	jal	3890 <printf>
    160c:	00008537          	lui	a0,0x8
    1610:	000c8593          	mv	a1,s9
    1614:	33c50513          	addi	a0,a0,828 # 833c <mem_name+0x33c>
    1618:	278020ef          	jal	3890 <printf>
    161c:	03c12783          	lw	a5,60(sp)
    1620:	0017f713          	andi	a4,a5,1
    1624:	04070663          	beqz	a4,1670 <main+0x5e8>
    1628:	908d2703          	lw	a4,-1784(s10)
    162c:	04070263          	beqz	a4,1670 <main+0x5e8>
    1630:	00000413          	li	s0,0
    1634:	00008cb7          	lui	s9,0x8
    1638:	00441793          	slli	a5,s0,0x4
    163c:	008787b3          	add	a5,a5,s0
    1640:	00279793          	slli	a5,a5,0x2
    1644:	002787b3          	add	a5,a5,sp
    1648:	0567d603          	lhu	a2,86(a5)
    164c:	00040593          	mv	a1,s0
    1650:	358c8513          	addi	a0,s9,856 # 8358 <mem_name+0x358>
    1654:	23c020ef          	jal	3890 <printf>
    1658:	00140413          	addi	s0,s0,1
    165c:	908d2783          	lw	a5,-1784(s10)
    1660:	01041413          	slli	s0,s0,0x10
    1664:	01045413          	srli	s0,s0,0x10
    1668:	fcf468e3          	bltu	s0,a5,1638 <main+0x5b0>
    166c:	03c12783          	lw	a5,60(sp)
    1670:	0027f713          	andi	a4,a5,2
    1674:	04070663          	beqz	a4,16c0 <main+0x638>
    1678:	908d2703          	lw	a4,-1784(s10)
    167c:	24070063          	beqz	a4,18bc <main+0x834>
    1680:	00000413          	li	s0,0
    1684:	00008cb7          	lui	s9,0x8
    1688:	00441793          	slli	a5,s0,0x4
    168c:	008787b3          	add	a5,a5,s0
    1690:	00279793          	slli	a5,a5,0x2
    1694:	002787b3          	add	a5,a5,sp
    1698:	0587d603          	lhu	a2,88(a5)
    169c:	00040593          	mv	a1,s0
    16a0:	374c8513          	addi	a0,s9,884 # 8374 <mem_name+0x374>
    16a4:	1ec020ef          	jal	3890 <printf>
    16a8:	00140413          	addi	s0,s0,1
    16ac:	908d2783          	lw	a5,-1784(s10)
    16b0:	01041413          	slli	s0,s0,0x10
    16b4:	01045413          	srli	s0,s0,0x10
    16b8:	fcf468e3          	bltu	s0,a5,1688 <main+0x600>
    16bc:	03c12783          	lw	a5,60(sp)
    16c0:	0047f793          	andi	a5,a5,4
    16c4:	04078463          	beqz	a5,170c <main+0x684>
    16c8:	908d2783          	lw	a5,-1784(s10)
    16cc:	08078263          	beqz	a5,1750 <main+0x6c8>
    16d0:	00000413          	li	s0,0
    16d4:	00008cb7          	lui	s9,0x8
    16d8:	00441793          	slli	a5,s0,0x4
    16dc:	008787b3          	add	a5,a5,s0
    16e0:	00279793          	slli	a5,a5,0x2
    16e4:	002787b3          	add	a5,a5,sp
    16e8:	05a7d603          	lhu	a2,90(a5)
    16ec:	00040593          	mv	a1,s0
    16f0:	390c8513          	addi	a0,s9,912 # 8390 <mem_name+0x390>
    16f4:	19c020ef          	jal	3890 <printf>
    16f8:	00140413          	addi	s0,s0,1
    16fc:	908d2783          	lw	a5,-1784(s10)
    1700:	01041413          	slli	s0,s0,0x10
    1704:	01045413          	srli	s0,s0,0x10
    1708:	fcf468e3          	bltu	s0,a5,16d8 <main+0x650>
    170c:	908d2783          	lw	a5,-1784(s10)
    1710:	00000413          	li	s0,0
    1714:	00008cb7          	lui	s9,0x8
    1718:	02078c63          	beqz	a5,1750 <main+0x6c8>
    171c:	00441793          	slli	a5,s0,0x4
    1720:	008787b3          	add	a5,a5,s0
    1724:	00279793          	slli	a5,a5,0x2
    1728:	002787b3          	add	a5,a5,sp
    172c:	0547d603          	lhu	a2,84(a5)
    1730:	00040593          	mv	a1,s0
    1734:	3acc8513          	addi	a0,s9,940 # 83ac <mem_name+0x3ac>
    1738:	158020ef          	jal	3890 <printf>
    173c:	00140413          	addi	s0,s0,1
    1740:	908d2783          	lw	a5,-1784(s10)
    1744:	01041413          	slli	s0,s0,0x10
    1748:	01045413          	srli	s0,s0,0x10
    174c:	fcf468e3          	bltu	s0,a5,171c <main+0x694>
    1750:	08048e63          	beqz	s1,17ec <main+0x764>
    1754:	08904463          	bgtz	s1,17dc <main+0x754>
    1758:	00008537          	lui	a0,0x8
    175c:	43c50513          	addi	a0,a0,1084 # 843c <mem_name+0x43c>
    1760:	130020ef          	jal	3890 <printf>
    1764:	02412503          	lw	a0,36(sp)
    1768:	164000ef          	jal	18cc <portable_free>
    176c:	05e10513          	addi	a0,sp,94
    1770:	1ec000ef          	jal	195c <portable_fini>
    1774:	09c12083          	lw	ra,156(sp)
    1778:	09812403          	lw	s0,152(sp)
    177c:	09412483          	lw	s1,148(sp)
    1780:	09012903          	lw	s2,144(sp)
    1784:	08c12983          	lw	s3,140(sp)
    1788:	08012b03          	lw	s6,128(sp)
    178c:	07c12b83          	lw	s7,124(sp)
    1790:	07812c03          	lw	s8,120(sp)
    1794:	07412c83          	lw	s9,116(sp)
    1798:	07012d03          	lw	s10,112(sp)
    179c:	00000513          	li	a0,0
    17a0:	0a010113          	addi	sp,sp,160
    17a4:	00008067          	ret
    17a8:	000a0593          	mv	a1,s4
    17ac:	1a448513          	addi	a0,s1,420 # 81a4 <mem_name+0x1a4>
    17b0:	0e0020ef          	jal	3890 <printf>
    17b4:	ffc45783          	lhu	a5,-4(s0)
    17b8:	00178793          	addi	a5,a5,1
    17bc:	01079793          	slli	a5,a5,0x10
    17c0:	0107d793          	srli	a5,a5,0x10
    17c4:	fef41e23          	sh	a5,-4(s0)
    17c8:	c2dff06f          	j	13f4 <main+0x36c>
    17cc:	08812a03          	lw	s4,136(sp)
    17d0:	08412a83          	lw	s5,132(sp)
    17d4:	06c12d83          	lw	s11,108(sp)
    17d8:	d2dff06f          	j	1504 <main+0x47c>
    17dc:	00008537          	lui	a0,0x8
    17e0:	4a050513          	addi	a0,a0,1184 # 84a0 <mem_name+0x4a0>
    17e4:	0ac020ef          	jal	3890 <printf>
    17e8:	f7dff06f          	j	1764 <main+0x6dc>
    17ec:	00008537          	lui	a0,0x8
    17f0:	3c850513          	addi	a0,a0,968 # 83c8 <mem_name+0x3c8>
    17f4:	09c020ef          	jal	3890 <printf>
    17f8:	00300793          	li	a5,3
    17fc:	f6fb94e3          	bne	s7,a5,1764 <main+0x6dc>
    1800:	908d2783          	lw	a5,-1784(s10)
    1804:	03812503          	lw	a0,56(sp)
    1808:	02f50533          	mul	a0,a0,a5
    180c:	349040ef          	jal	6354 <__floatunsidf>
    1810:	00050493          	mv	s1,a0
    1814:	00058413          	mv	s0,a1
    1818:	000b0513          	mv	a0,s6
    181c:	10c000ef          	jal	1928 <time_in_secs>
    1820:	00912423          	sw	s1,8(sp)
    1824:	00812623          	sw	s0,12(sp)
    1828:	00050613          	mv	a2,a0
    182c:	00058693          	mv	a3,a1
    1830:	00812503          	lw	a0,8(sp)
    1834:	00c12583          	lw	a1,12(sp)
    1838:	4c0030ef          	jal	4cf8 <__divdf3>
    183c:	00050613          	mv	a2,a0
    1840:	00008537          	lui	a0,0x8
    1844:	00058693          	mv	a3,a1
    1848:	27098793          	addi	a5,s3,624
    184c:	24c90713          	addi	a4,s2,588
    1850:	41450513          	addi	a0,a0,1044 # 8414 <mem_name+0x414>
    1854:	03c020ef          	jal	3890 <printf>
    1858:	00008537          	lui	a0,0x8
    185c:	31cc0593          	addi	a1,s8,796
    1860:	43050513          	addi	a0,a0,1072 # 8430 <mem_name+0x430>
    1864:	02c020ef          	jal	3890 <printf>
    1868:	00008537          	lui	a0,0x8
    186c:	43850513          	addi	a0,a0,1080 # 8438 <mem_name+0x438>
    1870:	020020ef          	jal	3890 <printf>
    1874:	ef1ff06f          	j	1764 <main+0x6dc>
    1878:	00008537          	lui	a0,0x8
    187c:	11450513          	addi	a0,a0,276 # 8114 <mem_name+0x114>
    1880:	010020ef          	jal	3890 <printf>
    1884:	00400b93          	li	s7,4
    1888:	b25ff06f          	j	13ac <main+0x324>
    188c:	00008537          	lui	a0,0x8
    1890:	05450513          	addi	a0,a0,84 # 8054 <mem_name+0x54>
    1894:	7fd010ef          	jal	3890 <printf>
    1898:	00000b93          	li	s7,0
    189c:	b11ff06f          	j	13ac <main+0x324>
    18a0:	00008537          	lui	a0,0x8
    18a4:	08450513          	addi	a0,a0,132 # 8084 <mem_name+0x84>
    18a8:	7e9010ef          	jal	3890 <printf>
    18ac:	00100b93          	li	s7,1
    18b0:	afdff06f          	j	13ac <main+0x324>
    18b4:	00000413          	li	s0,0
    18b8:	c4dff06f          	j	1504 <main+0x47c>
    18bc:	0047f793          	andi	a5,a5,4
    18c0:	e40786e3          	beqz	a5,170c <main+0x684>
    18c4:	e8dff06f          	j	1750 <main+0x6c8>

000018c8 <portable_malloc>:
    18c8:	2580206f          	j	3b20 <malloc>

000018cc <portable_free>:
    18cc:	3800206f          	j	3c4c <free>

000018d0 <start_time>:
    18d0:	ff010113          	addi	sp,sp,-16
    18d4:	00112623          	sw	ra,12(sp)
    18d8:	734020ef          	jal	400c <clock>
    18dc:	00c12083          	lw	ra,12(sp)
    18e0:	000097b7          	lui	a5,0x9
    18e4:	94a7a223          	sw	a0,-1724(a5) # 8944 <start_time_val>
    18e8:	01010113          	addi	sp,sp,16
    18ec:	00008067          	ret

000018f0 <stop_time>:
    18f0:	ff010113          	addi	sp,sp,-16
    18f4:	00112623          	sw	ra,12(sp)
    18f8:	714020ef          	jal	400c <clock>
    18fc:	00c12083          	lw	ra,12(sp)
    1900:	000097b7          	lui	a5,0x9
    1904:	94a7a023          	sw	a0,-1728(a5) # 8940 <stop_time_val>
    1908:	01010113          	addi	sp,sp,16
    190c:	00008067          	ret

00001910 <get_time>:
    1910:	00009737          	lui	a4,0x9
    1914:	000097b7          	lui	a5,0x9
    1918:	94072503          	lw	a0,-1728(a4) # 8940 <stop_time_val>
    191c:	9447a783          	lw	a5,-1724(a5) # 8944 <start_time_val>
    1920:	40f50533          	sub	a0,a0,a5
    1924:	00008067          	ret

00001928 <time_in_secs>:
    1928:	ff010113          	addi	sp,sp,-16
    192c:	00112623          	sw	ra,12(sp)
    1930:	225040ef          	jal	6354 <__floatunsidf>
    1934:	000097b7          	lui	a5,0x9
    1938:	8e87a603          	lw	a2,-1816(a5) # 88e8 <__clz_tab+0x108>
    193c:	8ec7a683          	lw	a3,-1812(a5)
    1940:	3b8030ef          	jal	4cf8 <__divdf3>
    1944:	00c12083          	lw	ra,12(sp)
    1948:	01010113          	addi	sp,sp,16
    194c:	00008067          	ret

00001950 <portable_init>:
    1950:	00100793          	li	a5,1
    1954:	00f50023          	sb	a5,0(a0)
    1958:	00008067          	ret

0000195c <portable_fini>:
    195c:	00050023          	sb	zero,0(a0)
    1960:	00008067          	ret

00001964 <get_seed_32>:
    1964:	00500793          	li	a5,5
    1968:	04a7ec63          	bltu	a5,a0,19c0 <get_seed_32+0x5c>
    196c:	000087b7          	lui	a5,0x8
    1970:	62078793          	addi	a5,a5,1568 # 8620 <state_known_crc+0xc>
    1974:	00251513          	slli	a0,a0,0x2
    1978:	00f50533          	add	a0,a0,a5
    197c:	00052783          	lw	a5,0(a0)
    1980:	00078067          	jr	a5
    1984:	000097b7          	lui	a5,0x9
    1988:	9487a503          	lw	a0,-1720(a5) # 8948 <seed5_volatile>
    198c:	00008067          	ret
    1990:	000097b7          	lui	a5,0x9
    1994:	9507a503          	lw	a0,-1712(a5) # 8950 <seed1_volatile>
    1998:	00008067          	ret
    199c:	000097b7          	lui	a5,0x9
    19a0:	94c7a503          	lw	a0,-1716(a5) # 894c <seed2_volatile>
    19a4:	00008067          	ret
    19a8:	000097b7          	lui	a5,0x9
    19ac:	9107a503          	lw	a0,-1776(a5) # 8910 <seed3_volatile>
    19b0:	00008067          	ret
    19b4:	000097b7          	lui	a5,0x9
    19b8:	90c7a503          	lw	a0,-1780(a5) # 890c <seed4_volatile>
    19bc:	00008067          	ret
    19c0:	00000513          	li	a0,0
    19c4:	00008067          	ret

000019c8 <crcu8>:
    19c8:	ffffa637          	lui	a2,0xffffa
    19cc:	00050693          	mv	a3,a0
    19d0:	00160613          	addi	a2,a2,1 # ffffa001 <__stack_top+0xfffed6a1>
    19d4:	00058513          	mv	a0,a1
    19d8:	00800713          	li	a4,8
    19dc:	00a6c7b3          	xor	a5,a3,a0
    19e0:	0017f793          	andi	a5,a5,1
    19e4:	40f007b3          	neg	a5,a5
    19e8:	00155513          	srli	a0,a0,0x1
    19ec:	00c7f7b3          	and	a5,a5,a2
    19f0:	fff70713          	addi	a4,a4,-1
    19f4:	00a7c7b3          	xor	a5,a5,a0
    19f8:	01079513          	slli	a0,a5,0x10
    19fc:	0ff77713          	zext.b	a4,a4
    1a00:	01055513          	srli	a0,a0,0x10
    1a04:	0016d693          	srli	a3,a3,0x1
    1a08:	fc071ae3          	bnez	a4,19dc <crcu8+0x14>
    1a0c:	00008067          	ret

00001a10 <crcu16>:
    1a10:	ff010113          	addi	sp,sp,-16
    1a14:	00812423          	sw	s0,8(sp)
    1a18:	00050413          	mv	s0,a0
    1a1c:	0ff57513          	zext.b	a0,a0
    1a20:	00112623          	sw	ra,12(sp)
    1a24:	fa5ff0ef          	jal	19c8 <crcu8>
    1a28:	00050593          	mv	a1,a0
    1a2c:	00845513          	srli	a0,s0,0x8
    1a30:	00812403          	lw	s0,8(sp)
    1a34:	00c12083          	lw	ra,12(sp)
    1a38:	01010113          	addi	sp,sp,16
    1a3c:	f8dff06f          	j	19c8 <crcu8>

00001a40 <crcu32>:
    1a40:	ff010113          	addi	sp,sp,-16
    1a44:	00812423          	sw	s0,8(sp)
    1a48:	00050413          	mv	s0,a0
    1a4c:	01051513          	slli	a0,a0,0x10
    1a50:	01055513          	srli	a0,a0,0x10
    1a54:	00112623          	sw	ra,12(sp)
    1a58:	fb9ff0ef          	jal	1a10 <crcu16>
    1a5c:	00050593          	mv	a1,a0
    1a60:	01045513          	srli	a0,s0,0x10
    1a64:	00812403          	lw	s0,8(sp)
    1a68:	00c12083          	lw	ra,12(sp)
    1a6c:	01010113          	addi	sp,sp,16
    1a70:	fa1ff06f          	j	1a10 <crcu16>

00001a74 <crc16>:
    1a74:	01051513          	slli	a0,a0,0x10
    1a78:	01055513          	srli	a0,a0,0x10
    1a7c:	f95ff06f          	j	1a10 <crcu16>

00001a80 <check_data_types>:
    1a80:	00000513          	li	a0,0
    1a84:	00008067          	ret

00001a88 <cmp_idx>:
    1a88:	00060a63          	beqz	a2,1a9c <cmp_idx+0x14>
    1a8c:	00251503          	lh	a0,2(a0)
    1a90:	00259783          	lh	a5,2(a1)
    1a94:	40f50533          	sub	a0,a0,a5
    1a98:	00008067          	ret
    1a9c:	00051783          	lh	a5,0(a0)
    1aa0:	01079713          	slli	a4,a5,0x10
    1aa4:	01075713          	srli	a4,a4,0x10
    1aa8:	00875713          	srli	a4,a4,0x8
    1aac:	f007f793          	andi	a5,a5,-256
    1ab0:	00e7e7b3          	or	a5,a5,a4
    1ab4:	00f51023          	sh	a5,0(a0)
    1ab8:	00059783          	lh	a5,0(a1)
    1abc:	00251503          	lh	a0,2(a0)
    1ac0:	01079713          	slli	a4,a5,0x10
    1ac4:	01075713          	srli	a4,a4,0x10
    1ac8:	00875713          	srli	a4,a4,0x8
    1acc:	f007f793          	andi	a5,a5,-256
    1ad0:	00e7e7b3          	or	a5,a5,a4
    1ad4:	00f59023          	sh	a5,0(a1)
    1ad8:	00259783          	lh	a5,2(a1)
    1adc:	40f50533          	sub	a0,a0,a5
    1ae0:	00008067          	ret

00001ae4 <calc_func>:
    1ae4:	fe010113          	addi	sp,sp,-32
    1ae8:	00812c23          	sw	s0,24(sp)
    1aec:	00051403          	lh	s0,0(a0)
    1af0:	00112e23          	sw	ra,28(sp)
    1af4:	40745793          	srai	a5,s0,0x7
    1af8:	0017f793          	andi	a5,a5,1
    1afc:	00078c63          	beqz	a5,1b14 <calc_func+0x30>
    1b00:	01c12083          	lw	ra,28(sp)
    1b04:	07f47513          	andi	a0,s0,127
    1b08:	01812403          	lw	s0,24(sp)
    1b0c:	02010113          	addi	sp,sp,32
    1b10:	00008067          	ret
    1b14:	40345713          	srai	a4,s0,0x3
    1b18:	00f77713          	andi	a4,a4,15
    1b1c:	00471793          	slli	a5,a4,0x4
    1b20:	00f70633          	add	a2,a4,a5
    1b24:	00912a23          	sw	s1,20(sp)
    1b28:	01312623          	sw	s3,12(sp)
    1b2c:	01212823          	sw	s2,16(sp)
    1b30:	00747693          	andi	a3,s0,7
    1b34:	0385d783          	lhu	a5,56(a1)
    1b38:	00050993          	mv	s3,a0
    1b3c:	00058493          	mv	s1,a1
    1b40:	00060713          	mv	a4,a2
    1b44:	08068263          	beqz	a3,1bc8 <calc_func+0xe4>
    1b48:	00100613          	li	a2,1
    1b4c:	06c69663          	bne	a3,a2,1bb8 <calc_func+0xd4>
    1b50:	00078613          	mv	a2,a5
    1b54:	00070593          	mv	a1,a4
    1b58:	02848513          	addi	a0,s1,40
    1b5c:	561000ef          	jal	28bc <core_bench_matrix>
    1b60:	03c4d783          	lhu	a5,60(s1)
    1b64:	01051913          	slli	s2,a0,0x10
    1b68:	41095913          	srai	s2,s2,0x10
    1b6c:	08079863          	bnez	a5,1bfc <calc_func+0x118>
    1b70:	0384d783          	lhu	a5,56(s1)
    1b74:	02a49e23          	sh	a0,60(s1)
    1b78:	00078593          	mv	a1,a5
    1b7c:	e95ff0ef          	jal	1a10 <crcu16>
    1b80:	00050793          	mv	a5,a0
    1b84:	f0047413          	andi	s0,s0,-256
    1b88:	07f97513          	andi	a0,s2,127
    1b8c:	00856433          	or	s0,a0,s0
    1b90:	02f49c23          	sh	a5,56(s1)
    1b94:	08046413          	ori	s0,s0,128
    1b98:	00899023          	sh	s0,0(s3)
    1b9c:	01c12083          	lw	ra,28(sp)
    1ba0:	01812403          	lw	s0,24(sp)
    1ba4:	01412483          	lw	s1,20(sp)
    1ba8:	01012903          	lw	s2,16(sp)
    1bac:	00c12983          	lw	s3,12(sp)
    1bb0:	02010113          	addi	sp,sp,32
    1bb4:	00008067          	ret
    1bb8:	01041513          	slli	a0,s0,0x10
    1bbc:	01055513          	srli	a0,a0,0x10
    1bc0:	00040913          	mv	s2,s0
    1bc4:	fb5ff06f          	j	1b78 <calc_func+0x94>
    1bc8:	02100693          	li	a3,33
    1bcc:	00c6e463          	bltu	a3,a2,1bd4 <calc_func+0xf0>
    1bd0:	02200713          	li	a4,34
    1bd4:	00249683          	lh	a3,2(s1)
    1bd8:	00049603          	lh	a2,0(s1)
    1bdc:	0144a583          	lw	a1,20(s1)
    1be0:	0184a503          	lw	a0,24(s1)
    1be4:	150010ef          	jal	2d34 <core_bench_state>
    1be8:	03e4d783          	lhu	a5,62(s1)
    1bec:	01051913          	slli	s2,a0,0x10
    1bf0:	41095913          	srai	s2,s2,0x10
    1bf4:	00079463          	bnez	a5,1bfc <calc_func+0x118>
    1bf8:	02a49f23          	sh	a0,62(s1)
    1bfc:	0384d783          	lhu	a5,56(s1)
    1c00:	f79ff06f          	j	1b78 <calc_func+0x94>

00001c04 <cmp_complex>:
    1c04:	ff010113          	addi	sp,sp,-16
    1c08:	00912223          	sw	s1,4(sp)
    1c0c:	00058493          	mv	s1,a1
    1c10:	00060593          	mv	a1,a2
    1c14:	00112623          	sw	ra,12(sp)
    1c18:	00812423          	sw	s0,8(sp)
    1c1c:	00060413          	mv	s0,a2
    1c20:	ec5ff0ef          	jal	1ae4 <calc_func>
    1c24:	00050793          	mv	a5,a0
    1c28:	00040593          	mv	a1,s0
    1c2c:	00048513          	mv	a0,s1
    1c30:	00078413          	mv	s0,a5
    1c34:	eb1ff0ef          	jal	1ae4 <calc_func>
    1c38:	00c12083          	lw	ra,12(sp)
    1c3c:	40a40533          	sub	a0,s0,a0
    1c40:	00812403          	lw	s0,8(sp)
    1c44:	00412483          	lw	s1,4(sp)
    1c48:	01010113          	addi	sp,sp,16
    1c4c:	00008067          	ret

00001c50 <copy_info>:
    1c50:	00059703          	lh	a4,0(a1)
    1c54:	00259783          	lh	a5,2(a1)
    1c58:	00e51023          	sh	a4,0(a0)
    1c5c:	00f51123          	sh	a5,2(a0)
    1c60:	00008067          	ret

00001c64 <core_list_insert_new>:
    1c64:	00062803          	lw	a6,0(a2)
    1c68:	00880893          	addi	a7,a6,8
    1c6c:	04e8f663          	bgeu	a7,a4,1cb8 <core_list_insert_new+0x54>
    1c70:	0006a703          	lw	a4,0(a3)
    1c74:	00470313          	addi	t1,a4,4
    1c78:	04f37063          	bgeu	t1,a5,1cb8 <core_list_insert_new+0x54>
    1c7c:	01162023          	sw	a7,0(a2)
    1c80:	00052783          	lw	a5,0(a0)
    1c84:	00059883          	lh	a7,0(a1)
    1c88:	00259603          	lh	a2,2(a1)
    1c8c:	00f82023          	sw	a5,0(a6)
    1c90:	01052023          	sw	a6,0(a0)
    1c94:	00e82223          	sw	a4,4(a6)
    1c98:	0006a783          	lw	a5,0(a3)
    1c9c:	00080513          	mv	a0,a6
    1ca0:	00478793          	addi	a5,a5,4
    1ca4:	00f6a023          	sw	a5,0(a3)
    1ca8:	00482783          	lw	a5,4(a6)
    1cac:	01179023          	sh	a7,0(a5)
    1cb0:	00c79123          	sh	a2,2(a5)
    1cb4:	00008067          	ret
    1cb8:	00000813          	li	a6,0
    1cbc:	00080513          	mv	a0,a6
    1cc0:	00008067          	ret

00001cc4 <core_list_remove>:
    1cc4:	00050793          	mv	a5,a0
    1cc8:	00052503          	lw	a0,0(a0)
    1ccc:	0047a683          	lw	a3,4(a5)
    1cd0:	00452603          	lw	a2,4(a0)
    1cd4:	00052703          	lw	a4,0(a0)
    1cd8:	00c7a223          	sw	a2,4(a5)
    1cdc:	00d52223          	sw	a3,4(a0)
    1ce0:	00e7a023          	sw	a4,0(a5)
    1ce4:	00052023          	sw	zero,0(a0)
    1ce8:	00008067          	ret

00001cec <core_list_undo_remove>:
    1cec:	0045a603          	lw	a2,4(a1)
    1cf0:	00452683          	lw	a3,4(a0)
    1cf4:	0005a703          	lw	a4,0(a1)
    1cf8:	00c52223          	sw	a2,4(a0)
    1cfc:	00d5a223          	sw	a3,4(a1)
    1d00:	00e52023          	sw	a4,0(a0)
    1d04:	00a5a023          	sw	a0,0(a1)
    1d08:	00008067          	ret

00001d0c <core_list_find>:
    1d0c:	00259703          	lh	a4,2(a1)
    1d10:	02074263          	bltz	a4,1d34 <core_list_find+0x28>
    1d14:	00051863          	bnez	a0,1d24 <core_list_find+0x18>
    1d18:	00008067          	ret
    1d1c:	00052503          	lw	a0,0(a0)
    1d20:	02050c63          	beqz	a0,1d58 <core_list_find+0x4c>
    1d24:	00452783          	lw	a5,4(a0)
    1d28:	00279783          	lh	a5,2(a5)
    1d2c:	fee798e3          	bne	a5,a4,1d1c <core_list_find+0x10>
    1d30:	00008067          	ret
    1d34:	02050263          	beqz	a0,1d58 <core_list_find+0x4c>
    1d38:	00059703          	lh	a4,0(a1)
    1d3c:	00c0006f          	j	1d48 <core_list_find+0x3c>
    1d40:	00052503          	lw	a0,0(a0)
    1d44:	00050c63          	beqz	a0,1d5c <core_list_find+0x50>
    1d48:	00452783          	lw	a5,4(a0)
    1d4c:	0007c783          	lbu	a5,0(a5)
    1d50:	fef718e3          	bne	a4,a5,1d40 <core_list_find+0x34>
    1d54:	00008067          	ret
    1d58:	00000513          	li	a0,0
    1d5c:	00008067          	ret

00001d60 <core_list_reverse>:
    1d60:	02050063          	beqz	a0,1d80 <core_list_reverse+0x20>
    1d64:	00000713          	li	a4,0
    1d68:	0080006f          	j	1d70 <core_list_reverse+0x10>
    1d6c:	00078513          	mv	a0,a5
    1d70:	00052783          	lw	a5,0(a0)
    1d74:	00e52023          	sw	a4,0(a0)
    1d78:	00050713          	mv	a4,a0
    1d7c:	fe0798e3          	bnez	a5,1d6c <core_list_reverse+0xc>
    1d80:	00008067          	ret

00001d84 <core_list_mergesort>:
    1d84:	fd010113          	addi	sp,sp,-48
    1d88:	01312e23          	sw	s3,28(sp)
    1d8c:	01512a23          	sw	s5,20(sp)
    1d90:	01712623          	sw	s7,12(sp)
    1d94:	01812423          	sw	s8,8(sp)
    1d98:	01a12023          	sw	s10,0(sp)
    1d9c:	00100a93          	li	s5,1
    1da0:	02112623          	sw	ra,44(sp)
    1da4:	02812423          	sw	s0,40(sp)
    1da8:	02912223          	sw	s1,36(sp)
    1dac:	03212023          	sw	s2,32(sp)
    1db0:	01412c23          	sw	s4,24(sp)
    1db4:	01612823          	sw	s6,16(sp)
    1db8:	01912223          	sw	s9,4(sp)
    1dbc:	00050993          	mv	s3,a0
    1dc0:	00058c13          	mv	s8,a1
    1dc4:	00060b93          	mv	s7,a2
    1dc8:	000a8d13          	mv	s10,s5
    1dcc:	0e098663          	beqz	s3,1eb8 <core_list_mergesort+0x134>
    1dd0:	00000c93          	li	s9,0
    1dd4:	00000913          	li	s2,0
    1dd8:	00000b13          	li	s6,0
    1ddc:	001c8c93          	addi	s9,s9,1
    1de0:	00098793          	mv	a5,s3
    1de4:	00000413          	li	s0,0
    1de8:	01545863          	bge	s0,s5,1df8 <core_list_mergesort+0x74>
    1dec:	0007a783          	lw	a5,0(a5)
    1df0:	00140413          	addi	s0,s0,1
    1df4:	fe079ae3          	bnez	a5,1de8 <core_list_mergesort+0x64>
    1df8:	00090493          	mv	s1,s2
    1dfc:	000a8a13          	mv	s4,s5
    1e00:	00098913          	mv	s2,s3
    1e04:	00078993          	mv	s3,a5
    1e08:	02805463          	blez	s0,1e30 <core_list_mergesort+0xac>
    1e0c:	060a0063          	beqz	s4,1e6c <core_list_mergesort+0xe8>
    1e10:	02099663          	bnez	s3,1e3c <core_list_mergesort+0xb8>
    1e14:	00090793          	mv	a5,s2
    1e18:	fff40413          	addi	s0,s0,-1
    1e1c:	00092903          	lw	s2,0(s2)
    1e20:	04048063          	beqz	s1,1e60 <core_list_mergesort+0xdc>
    1e24:	00f4a023          	sw	a5,0(s1)
    1e28:	00078493          	mv	s1,a5
    1e2c:	fe8040e3          	bgtz	s0,1e0c <core_list_mergesort+0x88>
    1e30:	11405263          	blez	s4,1f34 <core_list_mergesort+0x1b0>
    1e34:	06098863          	beqz	s3,1ea4 <core_list_mergesort+0x120>
    1e38:	08040e63          	beqz	s0,1ed4 <core_list_mergesort+0x150>
    1e3c:	0049a583          	lw	a1,4(s3)
    1e40:	00492503          	lw	a0,4(s2)
    1e44:	000b8613          	mv	a2,s7
    1e48:	000c00e7          	jalr	s8
    1e4c:	fca054e3          	blez	a0,1e14 <core_list_mergesort+0x90>
    1e50:	00098793          	mv	a5,s3
    1e54:	fffa0a13          	addi	s4,s4,-1
    1e58:	0009a983          	lw	s3,0(s3)
    1e5c:	fc0494e3          	bnez	s1,1e24 <core_list_mergesort+0xa0>
    1e60:	00078b13          	mv	s6,a5
    1e64:	00078493          	mv	s1,a5
    1e68:	fc5ff06f          	j	1e2c <core_list_mergesort+0xa8>
    1e6c:	00092783          	lw	a5,0(s2)
    1e70:	fff40413          	addi	s0,s0,-1
    1e74:	02048063          	beqz	s1,1e94 <core_list_mergesort+0x110>
    1e78:	0124a023          	sw	s2,0(s1)
    1e7c:	02040063          	beqz	s0,1e9c <core_list_mergesort+0x118>
    1e80:	00090493          	mv	s1,s2
    1e84:	00078913          	mv	s2,a5
    1e88:	00092783          	lw	a5,0(s2)
    1e8c:	fff40413          	addi	s0,s0,-1
    1e90:	fe0494e3          	bnez	s1,1e78 <core_list_mergesort+0xf4>
    1e94:	00090b13          	mv	s6,s2
    1e98:	fe0414e3          	bnez	s0,1e80 <core_list_mergesort+0xfc>
    1e9c:	f40990e3          	bnez	s3,1ddc <core_list_mergesort+0x58>
    1ea0:	00090493          	mv	s1,s2
    1ea4:	0004a023          	sw	zero,0(s1)
    1ea8:	05ac8863          	beq	s9,s10,1ef8 <core_list_mergesort+0x174>
    1eac:	000b0993          	mv	s3,s6
    1eb0:	001a9a93          	slli	s5,s5,0x1
    1eb4:	f0099ee3          	bnez	s3,1dd0 <core_list_mergesort+0x4c>
    1eb8:	00002023          	sw	zero,0(zero) # 0 <iterate-0x1000>
    1ebc:	00100073          	ebreak
    1ec0:	00098b13          	mv	s6,s3
    1ec4:	020a0263          	beqz	s4,1ee8 <core_list_mergesort+0x164>
    1ec8:	00098493          	mv	s1,s3
    1ecc:	fc078ce3          	beqz	a5,1ea4 <core_list_mergesort+0x120>
    1ed0:	00078993          	mv	s3,a5
    1ed4:	0009a783          	lw	a5,0(s3)
    1ed8:	fffa0a13          	addi	s4,s4,-1
    1edc:	fe0482e3          	beqz	s1,1ec0 <core_list_mergesort+0x13c>
    1ee0:	0134a023          	sw	s3,0(s1)
    1ee4:	fe0a12e3          	bnez	s4,1ec8 <core_list_mergesort+0x144>
    1ee8:	00098913          	mv	s2,s3
    1eec:	00078993          	mv	s3,a5
    1ef0:	ee0996e3          	bnez	s3,1ddc <core_list_mergesort+0x58>
    1ef4:	fadff06f          	j	1ea0 <core_list_mergesort+0x11c>
    1ef8:	02c12083          	lw	ra,44(sp)
    1efc:	02812403          	lw	s0,40(sp)
    1f00:	02412483          	lw	s1,36(sp)
    1f04:	02012903          	lw	s2,32(sp)
    1f08:	01c12983          	lw	s3,28(sp)
    1f0c:	01812a03          	lw	s4,24(sp)
    1f10:	01412a83          	lw	s5,20(sp)
    1f14:	00c12b83          	lw	s7,12(sp)
    1f18:	00812c03          	lw	s8,8(sp)
    1f1c:	00412c83          	lw	s9,4(sp)
    1f20:	00012d03          	lw	s10,0(sp)
    1f24:	000b0513          	mv	a0,s6
    1f28:	01012b03          	lw	s6,16(sp)
    1f2c:	03010113          	addi	sp,sp,48
    1f30:	00008067          	ret
    1f34:	00048913          	mv	s2,s1
    1f38:	ea0992e3          	bnez	s3,1ddc <core_list_mergesort+0x58>
    1f3c:	f65ff06f          	j	1ea0 <core_list_mergesort+0x11c>

00001f40 <core_bench_list>:
    1f40:	fc010113          	addi	sp,sp,-64
    1f44:	01912a23          	sw	s9,20(sp)
    1f48:	00451c83          	lh	s9,4(a0)
    1f4c:	02912a23          	sw	s1,52(sp)
    1f50:	03612023          	sw	s6,32(sp)
    1f54:	01712e23          	sw	s7,28(sp)
    1f58:	02112e23          	sw	ra,60(sp)
    1f5c:	02812c23          	sw	s0,56(sp)
    1f60:	03212823          	sw	s2,48(sp)
    1f64:	03312623          	sw	s3,44(sp)
    1f68:	03512223          	sw	s5,36(sp)
    1f6c:	01a12823          	sw	s10,16(sp)
    1f70:	00011623          	sh	zero,12(sp)
    1f74:	02452483          	lw	s1,36(a0)
    1f78:	00050b13          	mv	s6,a0
    1f7c:	00058b93          	mv	s7,a1
    1f80:	1f905663          	blez	s9,216c <__heap_size+0x16c>
    1f84:	03412423          	sw	s4,40(sp)
    1f88:	01812c23          	sw	s8,24(sp)
    1f8c:	00058d13          	mv	s10,a1
    1f90:	00000913          	li	s2,0
    1f94:	00000c13          	li	s8,0
    1f98:	00000a13          	li	s4,0
    1f9c:	00000413          	li	s0,0
    1fa0:	00c10a93          	addi	s5,sp,12
    1fa4:	0ff97793          	zext.b	a5,s2
    1fa8:	000a8593          	mv	a1,s5
    1fac:	00048513          	mv	a0,s1
    1fb0:	00f11623          	sh	a5,12(sp)
    1fb4:	01a11723          	sh	s10,14(sp)
    1fb8:	d55ff0ef          	jal	1d0c <core_list_find>
    1fbc:	00050993          	mv	s3,a0
    1fc0:	00048513          	mv	a0,s1
    1fc4:	d9dff0ef          	jal	1d60 <core_list_reverse>
    1fc8:	001a0793          	addi	a5,s4,1
    1fcc:	00050493          	mv	s1,a0
    1fd0:	16098263          	beqz	s3,2134 <__heap_size+0x134>
    1fd4:	0049a703          	lw	a4,4(s3)
    1fd8:	01079a13          	slli	s4,a5,0x10
    1fdc:	010a5a13          	srli	s4,s4,0x10
    1fe0:	00071703          	lh	a4,0(a4)
    1fe4:	40975793          	srai	a5,a4,0x9
    1fe8:	0017f793          	andi	a5,a5,1
    1fec:	00177713          	andi	a4,a4,1
    1ff0:	00f407b3          	add	a5,s0,a5
    1ff4:	00070663          	beqz	a4,2000 <__heap_size>
    1ff8:	01079413          	slli	s0,a5,0x10
    1ffc:	01045413          	srli	s0,s0,0x10
    2000:	0009a783          	lw	a5,0(s3)
    2004:	00078c63          	beqz	a5,201c <__heap_size+0x1c>
    2008:	0007a703          	lw	a4,0(a5)
    200c:	00e9a023          	sw	a4,0(s3)
    2010:	0004a703          	lw	a4,0(s1)
    2014:	00e7a023          	sw	a4,0(a5)
    2018:	00f4a023          	sw	a5,0(s1)
    201c:	00190913          	addi	s2,s2,1
    2020:	01091913          	slli	s2,s2,0x10
    2024:	41095913          	srai	s2,s2,0x10
    2028:	001d0793          	addi	a5,s10,1
    202c:	000d4663          	bltz	s10,2038 <__heap_size+0x38>
    2030:	01079d13          	slli	s10,a5,0x10
    2034:	410d5d13          	srai	s10,s10,0x10
    2038:	f72c96e3          	bne	s9,s2,1fa4 <core_bench_list+0x64>
    203c:	002a1a13          	slli	s4,s4,0x2
    2040:	418a0a33          	sub	s4,s4,s8
    2044:	01440433          	add	s0,s0,s4
    2048:	01812c03          	lw	s8,24(sp)
    204c:	02812a03          	lw	s4,40(sp)
    2050:	01041413          	slli	s0,s0,0x10
    2054:	01045413          	srli	s0,s0,0x10
    2058:	01705e63          	blez	s7,2074 <__heap_size+0x74>
    205c:	000025b7          	lui	a1,0x2
    2060:	00048513          	mv	a0,s1
    2064:	000b0613          	mv	a2,s6
    2068:	c0458593          	addi	a1,a1,-1020 # 1c04 <cmp_complex>
    206c:	d19ff0ef          	jal	1d84 <core_list_mergesort>
    2070:	00050493          	mv	s1,a0
    2074:	0004a503          	lw	a0,0(s1)
    2078:	c4dff0ef          	jal	1cc4 <core_list_remove>
    207c:	00050993          	mv	s3,a0
    2080:	000a8593          	mv	a1,s5
    2084:	00048513          	mv	a0,s1
    2088:	01a11723          	sh	s10,14(sp)
    208c:	c81ff0ef          	jal	1d0c <core_list_find>
    2090:	00050913          	mv	s2,a0
    2094:	0c050663          	beqz	a0,2160 <__heap_size+0x160>
    2098:	0044a783          	lw	a5,4(s1)
    209c:	00040593          	mv	a1,s0
    20a0:	00079503          	lh	a0,0(a5)
    20a4:	9d1ff0ef          	jal	1a74 <crc16>
    20a8:	00092903          	lw	s2,0(s2)
    20ac:	00050413          	mv	s0,a0
    20b0:	fe0914e3          	bnez	s2,2098 <__heap_size+0x98>
    20b4:	0004a903          	lw	s2,0(s1)
    20b8:	00090593          	mv	a1,s2
    20bc:	00098513          	mv	a0,s3
    20c0:	c2dff0ef          	jal	1cec <core_list_undo_remove>
    20c4:	000025b7          	lui	a1,0x2
    20c8:	00048513          	mv	a0,s1
    20cc:	a8858593          	addi	a1,a1,-1400 # 1a88 <cmp_idx>
    20d0:	00000613          	li	a2,0
    20d4:	cb1ff0ef          	jal	1d84 <core_list_mergesort>
    20d8:	00052483          	lw	s1,0(a0)
    20dc:	00050913          	mv	s2,a0
    20e0:	02048063          	beqz	s1,2100 <__heap_size+0x100>
    20e4:	00492783          	lw	a5,4(s2)
    20e8:	00040593          	mv	a1,s0
    20ec:	00079503          	lh	a0,0(a5)
    20f0:	985ff0ef          	jal	1a74 <crc16>
    20f4:	0004a483          	lw	s1,0(s1)
    20f8:	00050413          	mv	s0,a0
    20fc:	fe0494e3          	bnez	s1,20e4 <__heap_size+0xe4>
    2100:	03c12083          	lw	ra,60(sp)
    2104:	00040513          	mv	a0,s0
    2108:	03812403          	lw	s0,56(sp)
    210c:	03412483          	lw	s1,52(sp)
    2110:	03012903          	lw	s2,48(sp)
    2114:	02c12983          	lw	s3,44(sp)
    2118:	02412a83          	lw	s5,36(sp)
    211c:	02012b03          	lw	s6,32(sp)
    2120:	01c12b83          	lw	s7,28(sp)
    2124:	01412c83          	lw	s9,20(sp)
    2128:	01012d03          	lw	s10,16(sp)
    212c:	04010113          	addi	sp,sp,64
    2130:	00008067          	ret
    2134:	00052783          	lw	a5,0(a0)
    2138:	001c0c13          	addi	s8,s8,1
    213c:	010c1c13          	slli	s8,s8,0x10
    2140:	0047a783          	lw	a5,4(a5)
    2144:	010c5c13          	srli	s8,s8,0x10
    2148:	00178783          	lb	a5,1(a5)
    214c:	0017f793          	andi	a5,a5,1
    2150:	00f407b3          	add	a5,s0,a5
    2154:	01079413          	slli	s0,a5,0x10
    2158:	01045413          	srli	s0,s0,0x10
    215c:	ec1ff06f          	j	201c <__heap_size+0x1c>
    2160:	0004a903          	lw	s2,0(s1)
    2164:	f2091ae3          	bnez	s2,2098 <__heap_size+0x98>
    2168:	f51ff06f          	j	20b8 <__heap_size+0xb8>
    216c:	00058d13          	mv	s10,a1
    2170:	00000413          	li	s0,0
    2174:	00c10a93          	addi	s5,sp,12
    2178:	ee1ff06f          	j	2058 <__heap_size+0x58>

0000217c <core_list_init>:
    217c:	ccccd7b7          	lui	a5,0xccccd
    2180:	fc010113          	addi	sp,sp,-64
    2184:	ccd78793          	addi	a5,a5,-819 # cccccccd <__stack_top+0xcccc036d>
    2188:	03212823          	sw	s2,48(sp)
    218c:	02f53933          	mulhu	s2,a0,a5
    2190:	03312623          	sw	s3,44(sp)
    2194:	02812c23          	sw	s0,56(sp)
    2198:	02912a23          	sw	s1,52(sp)
    219c:	03412423          	sw	s4,40(sp)
    21a0:	02112e23          	sw	ra,60(sp)
    21a4:	ffff87b7          	lui	a5,0xffff8
    21a8:	0005a023          	sw	zero,0(a1)
    21ac:	00058413          	mv	s0,a1
    21b0:	08078793          	addi	a5,a5,128 # ffff8080 <__stack_top+0xfffeb720>
    21b4:	00495913          	srli	s2,s2,0x4
    21b8:	ffe90913          	addi	s2,s2,-2
    21bc:	00391993          	slli	s3,s2,0x3
    21c0:	013589b3          	add	s3,a1,s3
    21c4:	00291a13          	slli	s4,s2,0x2
    21c8:	0135a223          	sw	s3,4(a1)
    21cc:	80000837          	lui	a6,0x80000
    21d0:	00858593          	addi	a1,a1,8
    21d4:	01498a33          	add	s4,s3,s4
    21d8:	00f99023          	sh	a5,0(s3)
    21dc:	00498893          	addi	a7,s3,4
    21e0:	fff80813          	addi	a6,a6,-1 # 7fffffff <__stack_top+0x7fff369f>
    21e4:	00060493          	mv	s1,a2
    21e8:	00b12623          	sw	a1,12(sp)
    21ec:	00099123          	sh	zero,2(s3)
    21f0:	000a0793          	mv	a5,s4
    21f4:	00098713          	mv	a4,s3
    21f8:	00040513          	mv	a0,s0
    21fc:	01810693          	addi	a3,sp,24
    2200:	00c10613          	addi	a2,sp,12
    2204:	01c10593          	addi	a1,sp,28
    2208:	01112c23          	sw	a7,24(sp)
    220c:	01012e23          	sw	a6,28(sp)
    2210:	a55ff0ef          	jal	1c64 <core_list_insert_new>
    2214:	06090663          	beqz	s2,2280 <core_list_init+0x104>
    2218:	03512223          	sw	s5,36(sp)
    221c:	01049a93          	slli	s5,s1,0x10
    2220:	03612023          	sw	s6,32(sp)
    2224:	010ada93          	srli	s5,s5,0x10
    2228:	00000b13          	li	s6,0
    222c:	010b1613          	slli	a2,s6,0x10
    2230:	01065613          	srli	a2,a2,0x10
    2234:	015646b3          	xor	a3,a2,s5
    2238:	00369693          	slli	a3,a3,0x3
    223c:	00767613          	andi	a2,a2,7
    2240:	0786f693          	andi	a3,a3,120
    2244:	00c6e6b3          	or	a3,a3,a2
    2248:	00869613          	slli	a2,a3,0x8
    224c:	00c68833          	add	a6,a3,a2
    2250:	000a0793          	mv	a5,s4
    2254:	00098713          	mv	a4,s3
    2258:	01810693          	addi	a3,sp,24
    225c:	00c10613          	addi	a2,sp,12
    2260:	01c10593          	addi	a1,sp,28
    2264:	00040513          	mv	a0,s0
    2268:	001b0b13          	addi	s6,s6,1
    226c:	01011e23          	sh	a6,28(sp)
    2270:	9f5ff0ef          	jal	1c64 <core_list_insert_new>
    2274:	fb691ce3          	bne	s2,s6,222c <core_list_init+0xb0>
    2278:	02412a83          	lw	s5,36(sp)
    227c:	02012b03          	lw	s6,32(sp)
    2280:	00042503          	lw	a0,0(s0)
    2284:	00052603          	lw	a2,0(a0)
    2288:	06060a63          	beqz	a2,22fc <core_list_init+0x180>
    228c:	ccccd7b7          	lui	a5,0xccccd
    2290:	ccd78793          	addi	a5,a5,-819 # cccccccd <__stack_top+0xcccc036d>
    2294:	02f93933          	mulhu	s2,s2,a5
    2298:	00004837          	lui	a6,0x4
    229c:	fff80813          	addi	a6,a6,-1 # 3fff <strncmp+0x37>
    22a0:	20000713          	li	a4,512
    22a4:	00100693          	li	a3,1
    22a8:	00295913          	srli	s2,s2,0x2
    22ac:	0080006f          	j	22b4 <core_list_init+0x138>
    22b0:	00058613          	mv	a2,a1
    22b4:	70077793          	andi	a5,a4,1792
    22b8:	0096c5b3          	xor	a1,a3,s1
    22bc:	00b7e7b3          	or	a5,a5,a1
    22c0:	0107f7b3          	and	a5,a5,a6
    22c4:	01079793          	slli	a5,a5,0x10
    22c8:	00452503          	lw	a0,4(a0)
    22cc:	4107d793          	srai	a5,a5,0x10
    22d0:	0126f663          	bgeu	a3,s2,22dc <core_list_init+0x160>
    22d4:	01069793          	slli	a5,a3,0x10
    22d8:	4107d793          	srai	a5,a5,0x10
    22dc:	00062583          	lw	a1,0(a2)
    22e0:	10070713          	addi	a4,a4,256
    22e4:	00f51123          	sh	a5,2(a0)
    22e8:	01071713          	slli	a4,a4,0x10
    22ec:	01075713          	srli	a4,a4,0x10
    22f0:	00168693          	addi	a3,a3,1
    22f4:	00060513          	mv	a0,a2
    22f8:	fa059ce3          	bnez	a1,22b0 <core_list_init+0x134>
    22fc:	000025b7          	lui	a1,0x2
    2300:	00040513          	mv	a0,s0
    2304:	a8858593          	addi	a1,a1,-1400 # 1a88 <cmp_idx>
    2308:	00000613          	li	a2,0
    230c:	a79ff0ef          	jal	1d84 <core_list_mergesort>
    2310:	03c12083          	lw	ra,60(sp)
    2314:	03812403          	lw	s0,56(sp)
    2318:	03412483          	lw	s1,52(sp)
    231c:	03012903          	lw	s2,48(sp)
    2320:	02c12983          	lw	s3,44(sp)
    2324:	02812a03          	lw	s4,40(sp)
    2328:	04010113          	addi	sp,sp,64
    232c:	00008067          	ret

00002330 <core_init_matrix>:
    2330:	ff010113          	addi	sp,sp,-16
    2334:	00812623          	sw	s0,12(sp)
    2338:	00912423          	sw	s1,8(sp)
    233c:	00050813          	mv	a6,a0
    2340:	00061463          	bnez	a2,2348 <core_init_matrix+0x18>
    2344:	00100613          	li	a2,1
    2348:	fff58593          	addi	a1,a1,-1
    234c:	ffc5f293          	andi	t0,a1,-4
    2350:	00428413          	addi	s0,t0,4
    2354:	00000793          	li	a5,0
    2358:	0e080463          	beqz	a6,2440 <core_init_matrix+0x110>
    235c:	00078513          	mv	a0,a5
    2360:	00178793          	addi	a5,a5,1
    2364:	02f78733          	mul	a4,a5,a5
    2368:	00371713          	slli	a4,a4,0x3
    236c:	ff0768e3          	bltu	a4,a6,235c <core_init_matrix+0x2c>
    2370:	02a503b3          	mul	t2,a0,a0
    2374:	00139393          	slli	t2,t2,0x1
    2378:	007402b3          	add	t0,s0,t2
    237c:	0c050e63          	beqz	a0,2458 <core_init_matrix+0x128>
    2380:	01212223          	sw	s2,4(sp)
    2384:	00050493          	mv	s1,a0
    2388:	00150313          	addi	t1,a0,1
    238c:	00151913          	slli	s2,a0,0x1
    2390:	00028f13          	mv	t5,t0
    2394:	00000e93          	li	t4,0
    2398:	00100713          	li	a4,1
    239c:	40540e33          	sub	t3,s0,t0
    23a0:	00070f93          	mv	t6,a4
    23a4:	000f0813          	mv	a6,t5
    23a8:	02e60633          	mul	a2,a2,a4
    23ac:	01071793          	slli	a5,a4,0x10
    23b0:	0107d793          	srli	a5,a5,0x10
    23b4:	010e08b3          	add	a7,t3,a6
    23b8:	00170713          	addi	a4,a4,1
    23bc:	00280813          	addi	a6,a6,2
    23c0:	41f65593          	srai	a1,a2,0x1f
    23c4:	0105d593          	srli	a1,a1,0x10
    23c8:	00b60633          	add	a2,a2,a1
    23cc:	01061613          	slli	a2,a2,0x10
    23d0:	01065613          	srli	a2,a2,0x10
    23d4:	40b60633          	sub	a2,a2,a1
    23d8:	00c785b3          	add	a1,a5,a2
    23dc:	01059593          	slli	a1,a1,0x10
    23e0:	0105d593          	srli	a1,a1,0x10
    23e4:	00f587b3          	add	a5,a1,a5
    23e8:	feb81f23          	sh	a1,-2(a6)
    23ec:	0ff7f793          	zext.b	a5,a5
    23f0:	00f89023          	sh	a5,0(a7)
    23f4:	fa671ae3          	bne	a4,t1,23a8 <core_init_matrix+0x78>
    23f8:	001e8e93          	addi	t4,t4,1
    23fc:	01f50733          	add	a4,a0,t6
    2400:	00a30333          	add	t1,t1,a0
    2404:	012f0f33          	add	t5,t5,s2
    2408:	f8ae9ce3          	bne	t4,a0,23a0 <core_init_matrix+0x70>
    240c:	00412903          	lw	s2,4(sp)
    2410:	007287b3          	add	a5,t0,t2
    2414:	fff78793          	addi	a5,a5,-1
    2418:	0086a223          	sw	s0,4(a3)
    241c:	ffc7f793          	andi	a5,a5,-4
    2420:	00c12403          	lw	s0,12(sp)
    2424:	00478793          	addi	a5,a5,4
    2428:	0096a023          	sw	s1,0(a3)
    242c:	00f6a623          	sw	a5,12(a3)
    2430:	0056a423          	sw	t0,8(a3)
    2434:	00812483          	lw	s1,8(sp)
    2438:	01010113          	addi	sp,sp,16
    243c:	00008067          	ret
    2440:	fff00493          	li	s1,-1
    2444:	01212223          	sw	s2,4(sp)
    2448:	00628293          	addi	t0,t0,6
    244c:	00048513          	mv	a0,s1
    2450:	00200393          	li	t2,2
    2454:	f35ff06f          	j	2388 <core_init_matrix+0x58>
    2458:	00000393          	li	t2,0
    245c:	00000493          	li	s1,0
    2460:	fb1ff06f          	j	2410 <core_init_matrix+0xe0>

00002464 <matrix_sum>:
    2464:	00050e93          	mv	t4,a0
    2468:	08050463          	beqz	a0,24f0 <matrix_sum+0x8c>
    246c:	00251f93          	slli	t6,a0,0x2
    2470:	40a00f33          	neg	t5,a0
    2474:	01f588b3          	add	a7,a1,t6
    2478:	003f1f13          	slli	t5,t5,0x3
    247c:	00000313          	li	t1,0
    2480:	00000513          	li	a0,0
    2484:	00000693          	li	a3,0
    2488:	00000813          	li	a6,0
    248c:	41f88e33          	sub	t3,a7,t6
    2490:	000e0713          	mv	a4,t3
    2494:	0140006f          	j	24a8 <matrix_sum+0x44>
    2498:	01079513          	slli	a0,a5,0x10
    249c:	00470713          	addi	a4,a4,4
    24a0:	41055513          	srai	a0,a0,0x10
    24a4:	02e88e63          	beq	a7,a4,24e0 <matrix_sum+0x7c>
    24a8:	00068593          	mv	a1,a3
    24ac:	01051793          	slli	a5,a0,0x10
    24b0:	00072683          	lw	a3,0(a4)
    24b4:	0107d793          	srli	a5,a5,0x10
    24b8:	00a78513          	addi	a0,a5,10
    24bc:	00d5a5b3          	slt	a1,a1,a3
    24c0:	01051513          	slli	a0,a0,0x10
    24c4:	00d80833          	add	a6,a6,a3
    24c8:	41055513          	srai	a0,a0,0x10
    24cc:	00b787b3          	add	a5,a5,a1
    24d0:	fd0654e3          	bge	a2,a6,2498 <matrix_sum+0x34>
    24d4:	00470713          	addi	a4,a4,4
    24d8:	00000813          	li	a6,0
    24dc:	fce896e3          	bne	a7,a4,24a8 <matrix_sum+0x44>
    24e0:	00130313          	addi	t1,t1,1
    24e4:	41ee08b3          	sub	a7,t3,t5
    24e8:	fa6e92e3          	bne	t4,t1,248c <matrix_sum+0x28>
    24ec:	00008067          	ret
    24f0:	00000513          	li	a0,0
    24f4:	00008067          	ret

000024f8 <matrix_mul_const>:
    24f8:	04050a63          	beqz	a0,254c <matrix_mul_const+0x54>
    24fc:	00151f13          	slli	t5,a0,0x1
    2500:	40a00eb3          	neg	t4,a0
    2504:	01e60833          	add	a6,a2,t5
    2508:	002e9e93          	slli	t4,t4,0x2
    250c:	00000313          	li	t1,0
    2510:	00000893          	li	a7,0
    2514:	41e80e33          	sub	t3,a6,t5
    2518:	00231613          	slli	a2,t1,0x2
    251c:	000e0793          	mv	a5,t3
    2520:	00c58633          	add	a2,a1,a2
    2524:	00079703          	lh	a4,0(a5)
    2528:	00278793          	addi	a5,a5,2
    252c:	00460613          	addi	a2,a2,4
    2530:	02d70733          	mul	a4,a4,a3
    2534:	fee62e23          	sw	a4,-4(a2)
    2538:	ff0796e3          	bne	a5,a6,2524 <matrix_mul_const+0x2c>
    253c:	00188893          	addi	a7,a7,1
    2540:	00a30333          	add	t1,t1,a0
    2544:	41de0833          	sub	a6,t3,t4
    2548:	fd1516e3          	bne	a0,a7,2514 <matrix_mul_const+0x1c>
    254c:	00008067          	ret

00002550 <matrix_add_const>:
    2550:	04050463          	beqz	a0,2598 <matrix_add_const+0x48>
    2554:	00151313          	slli	t1,a0,0x1
    2558:	40a008b3          	neg	a7,a0
    255c:	01061613          	slli	a2,a2,0x10
    2560:	006586b3          	add	a3,a1,t1
    2564:	01065613          	srli	a2,a2,0x10
    2568:	00289893          	slli	a7,a7,0x2
    256c:	00000593          	li	a1,0
    2570:	40668833          	sub	a6,a3,t1
    2574:	00080793          	mv	a5,a6
    2578:	0007d703          	lhu	a4,0(a5)
    257c:	00278793          	addi	a5,a5,2
    2580:	00e60733          	add	a4,a2,a4
    2584:	fee79f23          	sh	a4,-2(a5)
    2588:	fef698e3          	bne	a3,a5,2578 <matrix_add_const+0x28>
    258c:	00158593          	addi	a1,a1,1
    2590:	411806b3          	sub	a3,a6,a7
    2594:	fcb51ee3          	bne	a0,a1,2570 <matrix_add_const+0x20>
    2598:	00008067          	ret

0000259c <matrix_mul_vect>:
    259c:	04050a63          	beqz	a0,25f0 <matrix_mul_vect+0x54>
    25a0:	00251f13          	slli	t5,a0,0x2
    25a4:	00151e13          	slli	t3,a0,0x1
    25a8:	01e58f33          	add	t5,a1,t5
    25ac:	01c68e33          	add	t3,a3,t3
    25b0:	00000e93          	li	t4,0
    25b4:	001e9813          	slli	a6,t4,0x1
    25b8:	01060833          	add	a6,a2,a6
    25bc:	00068793          	mv	a5,a3
    25c0:	00000893          	li	a7,0
    25c4:	00081703          	lh	a4,0(a6)
    25c8:	00079303          	lh	t1,0(a5)
    25cc:	00278793          	addi	a5,a5,2
    25d0:	00280813          	addi	a6,a6,2
    25d4:	02670733          	mul	a4,a4,t1
    25d8:	00e888b3          	add	a7,a7,a4
    25dc:	fefe14e3          	bne	t3,a5,25c4 <matrix_mul_vect+0x28>
    25e0:	0115a023          	sw	a7,0(a1)
    25e4:	00458593          	addi	a1,a1,4
    25e8:	00ae8eb3          	add	t4,t4,a0
    25ec:	fcbf14e3          	bne	t5,a1,25b4 <matrix_mul_vect+0x18>
    25f0:	00008067          	ret

000025f4 <matrix_mul_matrix>:
    25f4:	0a050463          	beqz	a0,269c <matrix_mul_matrix+0xa8>
    25f8:	ff010113          	addi	sp,sp,-16
    25fc:	00050f13          	mv	t5,a0
    2600:	00151513          	slli	a0,a0,0x1
    2604:	00812623          	sw	s0,12(sp)
    2608:	00058393          	mv	t2,a1
    260c:	00068413          	mv	s0,a3
    2610:	00060e93          	mv	t4,a2
    2614:	00a60833          	add	a6,a2,a0
    2618:	00000f93          	li	t6,0
    261c:	00000293          	li	t0,0
    2620:	002f9893          	slli	a7,t6,0x2
    2624:	011388b3          	add	a7,t2,a7
    2628:	00040313          	mv	t1,s0
    262c:	00000e13          	li	t3,0
    2630:	00030693          	mv	a3,t1
    2634:	000e8793          	mv	a5,t4
    2638:	00000613          	li	a2,0
    263c:	00079703          	lh	a4,0(a5)
    2640:	00069583          	lh	a1,0(a3)
    2644:	00278793          	addi	a5,a5,2
    2648:	00a686b3          	add	a3,a3,a0
    264c:	02b70733          	mul	a4,a4,a1
    2650:	00e60633          	add	a2,a2,a4
    2654:	fef814e3          	bne	a6,a5,263c <matrix_mul_matrix+0x48>
    2658:	00c8a023          	sw	a2,0(a7)
    265c:	001e0793          	addi	a5,t3,1
    2660:	00488893          	addi	a7,a7,4
    2664:	00230313          	addi	t1,t1,2
    2668:	00ff0663          	beq	t5,a5,2674 <matrix_mul_matrix+0x80>
    266c:	00078e13          	mv	t3,a5
    2670:	fc1ff06f          	j	2630 <matrix_mul_matrix+0x3c>
    2674:	00ae8eb3          	add	t4,t4,a0
    2678:	01ef8fb3          	add	t6,t6,t5
    267c:	00a80833          	add	a6,a6,a0
    2680:	00128793          	addi	a5,t0,1
    2684:	01c28663          	beq	t0,t3,2690 <matrix_mul_matrix+0x9c>
    2688:	00078293          	mv	t0,a5
    268c:	f95ff06f          	j	2620 <matrix_mul_matrix+0x2c>
    2690:	00c12403          	lw	s0,12(sp)
    2694:	01010113          	addi	sp,sp,16
    2698:	00008067          	ret
    269c:	00008067          	ret

000026a0 <matrix_mul_matrix_bitextract>:
    26a0:	0a050e63          	beqz	a0,275c <matrix_mul_matrix_bitextract+0xbc>
    26a4:	ff010113          	addi	sp,sp,-16
    26a8:	00050f13          	mv	t5,a0
    26ac:	00151513          	slli	a0,a0,0x1
    26b0:	00812623          	sw	s0,12(sp)
    26b4:	00058393          	mv	t2,a1
    26b8:	00068413          	mv	s0,a3
    26bc:	00060e93          	mv	t4,a2
    26c0:	00a60833          	add	a6,a2,a0
    26c4:	00000f93          	li	t6,0
    26c8:	00000293          	li	t0,0
    26cc:	002f9893          	slli	a7,t6,0x2
    26d0:	011388b3          	add	a7,t2,a7
    26d4:	00040313          	mv	t1,s0
    26d8:	00000e13          	li	t3,0
    26dc:	00030613          	mv	a2,t1
    26e0:	000e8693          	mv	a3,t4
    26e4:	00000593          	li	a1,0
    26e8:	00061703          	lh	a4,0(a2)
    26ec:	00069783          	lh	a5,0(a3)
    26f0:	00268693          	addi	a3,a3,2
    26f4:	00a60633          	add	a2,a2,a0
    26f8:	02e787b3          	mul	a5,a5,a4
    26fc:	4027d713          	srai	a4,a5,0x2
    2700:	4057d793          	srai	a5,a5,0x5
    2704:	00f77713          	andi	a4,a4,15
    2708:	07f7f793          	andi	a5,a5,127
    270c:	02f707b3          	mul	a5,a4,a5
    2710:	00f585b3          	add	a1,a1,a5
    2714:	fcd81ae3          	bne	a6,a3,26e8 <matrix_mul_matrix_bitextract+0x48>
    2718:	00b8a023          	sw	a1,0(a7)
    271c:	001e0793          	addi	a5,t3,1
    2720:	00488893          	addi	a7,a7,4
    2724:	00230313          	addi	t1,t1,2
    2728:	00ff0663          	beq	t5,a5,2734 <matrix_mul_matrix_bitextract+0x94>
    272c:	00078e13          	mv	t3,a5
    2730:	fadff06f          	j	26dc <matrix_mul_matrix_bitextract+0x3c>
    2734:	00ae8eb3          	add	t4,t4,a0
    2738:	01ef8fb3          	add	t6,t6,t5
    273c:	00a80833          	add	a6,a6,a0
    2740:	00128793          	addi	a5,t0,1
    2744:	01c28663          	beq	t0,t3,2750 <matrix_mul_matrix_bitextract+0xb0>
    2748:	00078293          	mv	t0,a5
    274c:	f81ff06f          	j	26cc <matrix_mul_matrix_bitextract+0x2c>
    2750:	00c12403          	lw	s0,12(sp)
    2754:	01010113          	addi	sp,sp,16
    2758:	00008067          	ret
    275c:	00008067          	ret

00002760 <matrix_test>:
    2760:	fe010113          	addi	sp,sp,-32
    2764:	01212823          	sw	s2,16(sp)
    2768:	00060913          	mv	s2,a2
    276c:	00912a23          	sw	s1,20(sp)
    2770:	00070613          	mv	a2,a4
    2774:	01412423          	sw	s4,8(sp)
    2778:	00058493          	mv	s1,a1
    277c:	fffffa37          	lui	s4,0xfffff
    2780:	00090593          	mv	a1,s2
    2784:	00112e23          	sw	ra,28(sp)
    2788:	01476a33          	or	s4,a4,s4
    278c:	00812c23          	sw	s0,24(sp)
    2790:	01312623          	sw	s3,12(sp)
    2794:	01512223          	sw	s5,4(sp)
    2798:	00070993          	mv	s3,a4
    279c:	01612023          	sw	s6,0(sp)
    27a0:	00050413          	mv	s0,a0
    27a4:	00068a93          	mv	s5,a3
    27a8:	da9ff0ef          	jal	2550 <matrix_add_const>
    27ac:	00098693          	mv	a3,s3
    27b0:	00090613          	mv	a2,s2
    27b4:	00048593          	mv	a1,s1
    27b8:	00040513          	mv	a0,s0
    27bc:	d3dff0ef          	jal	24f8 <matrix_mul_const>
    27c0:	000a0613          	mv	a2,s4
    27c4:	00048593          	mv	a1,s1
    27c8:	00040513          	mv	a0,s0
    27cc:	c99ff0ef          	jal	2464 <matrix_sum>
    27d0:	00000593          	li	a1,0
    27d4:	aa0ff0ef          	jal	1a74 <crc16>
    27d8:	000a8693          	mv	a3,s5
    27dc:	00050b13          	mv	s6,a0
    27e0:	00090613          	mv	a2,s2
    27e4:	00048593          	mv	a1,s1
    27e8:	00040513          	mv	a0,s0
    27ec:	db1ff0ef          	jal	259c <matrix_mul_vect>
    27f0:	000a0613          	mv	a2,s4
    27f4:	00048593          	mv	a1,s1
    27f8:	00040513          	mv	a0,s0
    27fc:	c69ff0ef          	jal	2464 <matrix_sum>
    2800:	000b0593          	mv	a1,s6
    2804:	a70ff0ef          	jal	1a74 <crc16>
    2808:	000a8693          	mv	a3,s5
    280c:	00050b13          	mv	s6,a0
    2810:	00090613          	mv	a2,s2
    2814:	00048593          	mv	a1,s1
    2818:	00040513          	mv	a0,s0
    281c:	dd9ff0ef          	jal	25f4 <matrix_mul_matrix>
    2820:	000a0613          	mv	a2,s4
    2824:	00048593          	mv	a1,s1
    2828:	00040513          	mv	a0,s0
    282c:	c39ff0ef          	jal	2464 <matrix_sum>
    2830:	000b0593          	mv	a1,s6
    2834:	a40ff0ef          	jal	1a74 <crc16>
    2838:	00050793          	mv	a5,a0
    283c:	000a8693          	mv	a3,s5
    2840:	00090613          	mv	a2,s2
    2844:	00048593          	mv	a1,s1
    2848:	00040513          	mv	a0,s0
    284c:	00078a93          	mv	s5,a5
    2850:	e51ff0ef          	jal	26a0 <matrix_mul_matrix_bitextract>
    2854:	000a0613          	mv	a2,s4
    2858:	00048593          	mv	a1,s1
    285c:	00040513          	mv	a0,s0
    2860:	c05ff0ef          	jal	2464 <matrix_sum>
    2864:	000a8593          	mv	a1,s5
    2868:	a0cff0ef          	jal	1a74 <crc16>
    286c:	41300633          	neg	a2,s3
    2870:	01061613          	slli	a2,a2,0x10
    2874:	00050793          	mv	a5,a0
    2878:	00090593          	mv	a1,s2
    287c:	00040513          	mv	a0,s0
    2880:	41065613          	srai	a2,a2,0x10
    2884:	00078413          	mv	s0,a5
    2888:	cc9ff0ef          	jal	2550 <matrix_add_const>
    288c:	01c12083          	lw	ra,28(sp)
    2890:	01041513          	slli	a0,s0,0x10
    2894:	01812403          	lw	s0,24(sp)
    2898:	01412483          	lw	s1,20(sp)
    289c:	01012903          	lw	s2,16(sp)
    28a0:	00c12983          	lw	s3,12(sp)
    28a4:	00812a03          	lw	s4,8(sp)
    28a8:	00412a83          	lw	s5,4(sp)
    28ac:	00012b03          	lw	s6,0(sp)
    28b0:	41055513          	srai	a0,a0,0x10
    28b4:	02010113          	addi	sp,sp,32
    28b8:	00008067          	ret

000028bc <core_bench_matrix>:
    28bc:	ff010113          	addi	sp,sp,-16
    28c0:	00812423          	sw	s0,8(sp)
    28c4:	00852683          	lw	a3,8(a0)
    28c8:	00060413          	mv	s0,a2
    28cc:	00058713          	mv	a4,a1
    28d0:	00452603          	lw	a2,4(a0)
    28d4:	00c52583          	lw	a1,12(a0)
    28d8:	00052503          	lw	a0,0(a0)
    28dc:	00112623          	sw	ra,12(sp)
    28e0:	e81ff0ef          	jal	2760 <matrix_test>
    28e4:	00040593          	mv	a1,s0
    28e8:	00812403          	lw	s0,8(sp)
    28ec:	00c12083          	lw	ra,12(sp)
    28f0:	01010113          	addi	sp,sp,16
    28f4:	980ff06f          	j	1a74 <crc16>

000028f8 <core_init_state>:
    28f8:	fff50893          	addi	a7,a0,-1
    28fc:	00100e13          	li	t3,1
    2900:	111e7e63          	bgeu	t3,a7,2a1c <core_init_state+0x124>
    2904:	01c585b3          	add	a1,a1,t3
    2908:	01059593          	slli	a1,a1,0x10
    290c:	0105d593          	srli	a1,a1,0x10
    2910:	ff010113          	addi	sp,sp,-16
    2914:	00008837          	lui	a6,0x8
    2918:	0035d793          	srli	a5,a1,0x3
    291c:	00812623          	sw	s0,12(sp)
    2920:	00700313          	li	t1,7
    2924:	0075f693          	andi	a3,a1,7
    2928:	63880813          	addi	a6,a6,1592 # 8638 <intpat>
    292c:	00000713          	li	a4,0
    2930:	00400e93          	li	t4,4
    2934:	02c00f13          	li	t5,44
    2938:	0037f793          	andi	a5,a5,3
    293c:	06668e63          	beq	a3,t1,29b8 <core_init_state+0xc0>
    2940:	0cdee463          	bltu	t4,a3,2a08 <core_init_state+0x110>
    2944:	ffd68693          	addi	a3,a3,-3
    2948:	01069693          	slli	a3,a3,0x10
    294c:	00279793          	slli	a5,a5,0x2
    2950:	0106d693          	srli	a3,a3,0x10
    2954:	00f807b3          	add	a5,a6,a5
    2958:	0ade6263          	bltu	t3,a3,29fc <core_init_state+0x104>
    295c:	0107a783          	lw	a5,16(a5)
    2960:	00800293          	li	t0,8
    2964:	00170693          	addi	a3,a4,1
    2968:	00568433          	add	s0,a3,t0
    296c:	07147463          	bgeu	s0,a7,29d4 <core_init_state+0xdc>
    2970:	00e60733          	add	a4,a2,a4
    2974:	00070693          	mv	a3,a4
    2978:	005783b3          	add	t2,a5,t0
    297c:	0007cf83          	lbu	t6,0(a5)
    2980:	00178793          	addi	a5,a5,1
    2984:	00168693          	addi	a3,a3,1
    2988:	fff68fa3          	sb	t6,-1(a3)
    298c:	fef398e3          	bne	t2,a5,297c <core_init_state+0x84>
    2990:	00158593          	addi	a1,a1,1
    2994:	01059593          	slli	a1,a1,0x10
    2998:	0105d593          	srli	a1,a1,0x10
    299c:	00570733          	add	a4,a4,t0
    29a0:	01e70023          	sb	t5,0(a4)
    29a4:	0035d793          	srli	a5,a1,0x3
    29a8:	0075f693          	andi	a3,a1,7
    29ac:	00040713          	mv	a4,s0
    29b0:	0037f793          	andi	a5,a5,3
    29b4:	f86696e3          	bne	a3,t1,2940 <core_init_state+0x48>
    29b8:	00279793          	slli	a5,a5,0x2
    29bc:	00800293          	li	t0,8
    29c0:	00170693          	addi	a3,a4,1
    29c4:	00f807b3          	add	a5,a6,a5
    29c8:	00568433          	add	s0,a3,t0
    29cc:	0307a783          	lw	a5,48(a5)
    29d0:	fb1460e3          	bltu	s0,a7,2970 <core_init_state+0x78>
    29d4:	00a76663          	bltu	a4,a0,29e0 <core_init_state+0xe8>
    29d8:	0180006f          	j	29f0 <core_init_state+0xf8>
    29dc:	00168693          	addi	a3,a3,1
    29e0:	00e60733          	add	a4,a2,a4
    29e4:	00070023          	sb	zero,0(a4)
    29e8:	00068713          	mv	a4,a3
    29ec:	fea6e8e3          	bltu	a3,a0,29dc <core_init_state+0xe4>
    29f0:	00c12403          	lw	s0,12(sp)
    29f4:	01010113          	addi	sp,sp,16
    29f8:	00008067          	ret
    29fc:	0007a783          	lw	a5,0(a5)
    2a00:	00400293          	li	t0,4
    2a04:	f61ff06f          	j	2964 <core_init_state+0x6c>
    2a08:	00279793          	slli	a5,a5,0x2
    2a0c:	00f807b3          	add	a5,a6,a5
    2a10:	0207a783          	lw	a5,32(a5)
    2a14:	00800293          	li	t0,8
    2a18:	f4dff06f          	j	2964 <core_init_state+0x6c>
    2a1c:	000e0693          	mv	a3,t3
    2a20:	00000713          	li	a4,0
    2a24:	0080006f          	j	2a2c <core_init_state+0x134>
    2a28:	00168693          	addi	a3,a3,1
    2a2c:	00e60733          	add	a4,a2,a4
    2a30:	00070023          	sb	zero,0(a4)
    2a34:	00068713          	mv	a4,a3
    2a38:	fea6e8e3          	bltu	a3,a0,2a28 <core_init_state+0x130>
    2a3c:	00008067          	ret

00002a40 <core_state_transition>:
    2a40:	00052703          	lw	a4,0(a0)
    2a44:	00050613          	mv	a2,a0
    2a48:	00074683          	lbu	a3,0(a4)
    2a4c:	26068c63          	beqz	a3,2cc4 <core_state_transition+0x284>
    2a50:	02c00793          	li	a5,44
    2a54:	00000513          	li	a0,0
    2a58:	1cf68c63          	beq	a3,a5,2c30 <core_state_transition+0x1f0>
    2a5c:	fd068513          	addi	a0,a3,-48
    2a60:	0ff57513          	zext.b	a0,a0
    2a64:	00900813          	li	a6,9
    2a68:	04a87263          	bgeu	a6,a0,2aac <core_state_transition+0x6c>
    2a6c:	02d00513          	li	a0,45
    2a70:	1ca68463          	beq	a3,a0,2c38 <core_state_transition+0x1f8>
    2a74:	02e00513          	li	a0,46
    2a78:	20a68e63          	beq	a3,a0,2c94 <core_state_transition+0x254>
    2a7c:	02b00513          	li	a0,43
    2a80:	1aa68c63          	beq	a3,a0,2c38 <core_state_transition+0x1f8>
    2a84:	0045a683          	lw	a3,4(a1)
    2a88:	0005a783          	lw	a5,0(a1)
    2a8c:	00170713          	addi	a4,a4,1
    2a90:	00168693          	addi	a3,a3,1
    2a94:	00178793          	addi	a5,a5,1
    2a98:	00d5a223          	sw	a3,4(a1)
    2a9c:	00f5a023          	sw	a5,0(a1)
    2aa0:	00100513          	li	a0,1
    2aa4:	00e62023          	sw	a4,0(a2)
    2aa8:	00008067          	ret
    2aac:	0005a503          	lw	a0,0(a1)
    2ab0:	00170693          	addi	a3,a4,1
    2ab4:	00150513          	addi	a0,a0,1
    2ab8:	00a5a023          	sw	a0,0(a1)
    2abc:	00174703          	lbu	a4,1(a4)
    2ac0:	1e070c63          	beqz	a4,2cb8 <core_state_transition+0x278>
    2ac4:	16f70263          	beq	a4,a5,2c28 <core_state_transition+0x1e8>
    2ac8:	02e00793          	li	a5,46
    2acc:	04f70263          	beq	a4,a5,2b10 <core_state_transition+0xd0>
    2ad0:	fd070713          	addi	a4,a4,-48
    2ad4:	0ff77713          	zext.b	a4,a4
    2ad8:	00900793          	li	a5,9
    2adc:	00e7ec63          	bltu	a5,a4,2af4 <core_state_transition+0xb4>
    2ae0:	0016c703          	lbu	a4,1(a3)
    2ae4:	00168693          	addi	a3,a3,1
    2ae8:	1c070863          	beqz	a4,2cb8 <core_state_transition+0x278>
    2aec:	02c00793          	li	a5,44
    2af0:	fd5ff06f          	j	2ac4 <core_state_transition+0x84>
    2af4:	0105a783          	lw	a5,16(a1)
    2af8:	00100513          	li	a0,1
    2afc:	00168713          	addi	a4,a3,1
    2b00:	00a787b3          	add	a5,a5,a0
    2b04:	00f5a823          	sw	a5,16(a1)
    2b08:	00e62023          	sw	a4,0(a2)
    2b0c:	00008067          	ret
    2b10:	0105a783          	lw	a5,16(a1)
    2b14:	00178793          	addi	a5,a5,1
    2b18:	00f5a823          	sw	a5,16(a1)
    2b1c:	0016c703          	lbu	a4,1(a3)
    2b20:	00168693          	addi	a3,a3,1
    2b24:	02c00793          	li	a5,44
    2b28:	18070263          	beqz	a4,2cac <core_state_transition+0x26c>
    2b2c:	1af70063          	beq	a4,a5,2ccc <core_state_transition+0x28c>
    2b30:	0df77793          	andi	a5,a4,223
    2b34:	04500513          	li	a0,69
    2b38:	02a78863          	beq	a5,a0,2b68 <core_state_transition+0x128>
    2b3c:	fd070713          	addi	a4,a4,-48
    2b40:	0ff77713          	zext.b	a4,a4
    2b44:	00900793          	li	a5,9
    2b48:	fce7fae3          	bgeu	a5,a4,2b1c <core_state_transition+0xdc>
    2b4c:	0145a783          	lw	a5,20(a1)
    2b50:	00100513          	li	a0,1
    2b54:	00168713          	addi	a4,a3,1
    2b58:	00a787b3          	add	a5,a5,a0
    2b5c:	00f5aa23          	sw	a5,20(a1)
    2b60:	00e62023          	sw	a4,0(a2)
    2b64:	00008067          	ret
    2b68:	0145a783          	lw	a5,20(a1)
    2b6c:	00168713          	addi	a4,a3,1
    2b70:	00178793          	addi	a5,a5,1
    2b74:	00f5aa23          	sw	a5,20(a1)
    2b78:	0016c783          	lbu	a5,1(a3)
    2b7c:	16078063          	beqz	a5,2cdc <core_state_transition+0x29c>
    2b80:	02c00513          	li	a0,44
    2b84:	16a78463          	beq	a5,a0,2cec <core_state_transition+0x2ac>
    2b88:	00c5a703          	lw	a4,12(a1)
    2b8c:	fd578793          	addi	a5,a5,-43
    2b90:	0fd7f793          	andi	a5,a5,253
    2b94:	00170713          	addi	a4,a4,1
    2b98:	00e5a623          	sw	a4,12(a1)
    2b9c:	00078a63          	beqz	a5,2bb0 <core_state_transition+0x170>
    2ba0:	00268713          	addi	a4,a3,2
    2ba4:	00100513          	li	a0,1
    2ba8:	00e62023          	sw	a4,0(a2)
    2bac:	00008067          	ret
    2bb0:	0026c783          	lbu	a5,2(a3)
    2bb4:	00268713          	addi	a4,a3,2
    2bb8:	12078663          	beqz	a5,2ce4 <core_state_transition+0x2a4>
    2bbc:	12a78e63          	beq	a5,a0,2cf8 <core_state_transition+0x2b8>
    2bc0:	0185a803          	lw	a6,24(a1)
    2bc4:	fd078793          	addi	a5,a5,-48
    2bc8:	0ff7f793          	zext.b	a5,a5
    2bcc:	00180813          	addi	a6,a6,1
    2bd0:	00900513          	li	a0,9
    2bd4:	0105ac23          	sw	a6,24(a1)
    2bd8:	00f57a63          	bgeu	a0,a5,2bec <core_state_transition+0x1ac>
    2bdc:	00368713          	addi	a4,a3,3
    2be0:	00100513          	li	a0,1
    2be4:	00e62023          	sw	a4,0(a2)
    2be8:	00008067          	ret
    2bec:	00070813          	mv	a6,a4
    2bf0:	00174683          	lbu	a3,1(a4)
    2bf4:	00170713          	addi	a4,a4,1
    2bf8:	02c00893          	li	a7,44
    2bfc:	fd068793          	addi	a5,a3,-48
    2c00:	0ff7f793          	zext.b	a5,a5
    2c04:	10068063          	beqz	a3,2d04 <core_state_transition+0x2c4>
    2c08:	11168263          	beq	a3,a7,2d0c <core_state_transition+0x2cc>
    2c0c:	fef570e3          	bgeu	a0,a5,2bec <core_state_transition+0x1ac>
    2c10:	0045a783          	lw	a5,4(a1)
    2c14:	00100513          	li	a0,1
    2c18:	00280713          	addi	a4,a6,2
    2c1c:	00a787b3          	add	a5,a5,a0
    2c20:	00f5a223          	sw	a5,4(a1)
    2c24:	ee5ff06f          	j	2b08 <core_state_transition+0xc8>
    2c28:	00068713          	mv	a4,a3
    2c2c:	00400513          	li	a0,4
    2c30:	00170713          	addi	a4,a4,1
    2c34:	ed5ff06f          	j	2b08 <core_state_transition+0xc8>
    2c38:	0005a503          	lw	a0,0(a1)
    2c3c:	00170693          	addi	a3,a4,1
    2c40:	00150513          	addi	a0,a0,1
    2c44:	00a5a023          	sw	a0,0(a1)
    2c48:	00174803          	lbu	a6,1(a4)
    2c4c:	0c080e63          	beqz	a6,2d28 <core_state_transition+0x2e8>
    2c50:	0cf80463          	beq	a6,a5,2d18 <core_state_transition+0x2d8>
    2c54:	0085a703          	lw	a4,8(a1)
    2c58:	fd080793          	addi	a5,a6,-48
    2c5c:	0ff7f793          	zext.b	a5,a5
    2c60:	00900513          	li	a0,9
    2c64:	00170713          	addi	a4,a4,1
    2c68:	00f57a63          	bgeu	a0,a5,2c7c <core_state_transition+0x23c>
    2c6c:	02e00793          	li	a5,46
    2c70:	00f81a63          	bne	a6,a5,2c84 <core_state_transition+0x244>
    2c74:	00e5a423          	sw	a4,8(a1)
    2c78:	ea5ff06f          	j	2b1c <core_state_transition+0xdc>
    2c7c:	00e5a423          	sw	a4,8(a1)
    2c80:	e61ff06f          	j	2ae0 <core_state_transition+0xa0>
    2c84:	00e5a423          	sw	a4,8(a1)
    2c88:	00100513          	li	a0,1
    2c8c:	00168713          	addi	a4,a3,1
    2c90:	e79ff06f          	j	2b08 <core_state_transition+0xc8>
    2c94:	0005a503          	lw	a0,0(a1)
    2c98:	00170693          	addi	a3,a4,1
    2c9c:	00150513          	addi	a0,a0,1
    2ca0:	00a5a023          	sw	a0,0(a1)
    2ca4:	00174703          	lbu	a4,1(a4)
    2ca8:	e80712e3          	bnez	a4,2b2c <core_state_transition+0xec>
    2cac:	00068713          	mv	a4,a3
    2cb0:	00500513          	li	a0,5
    2cb4:	e55ff06f          	j	2b08 <core_state_transition+0xc8>
    2cb8:	00068713          	mv	a4,a3
    2cbc:	00400513          	li	a0,4
    2cc0:	e49ff06f          	j	2b08 <core_state_transition+0xc8>
    2cc4:	00000513          	li	a0,0
    2cc8:	e41ff06f          	j	2b08 <core_state_transition+0xc8>
    2ccc:	00068713          	mv	a4,a3
    2cd0:	00500513          	li	a0,5
    2cd4:	00170713          	addi	a4,a4,1
    2cd8:	e31ff06f          	j	2b08 <core_state_transition+0xc8>
    2cdc:	00300513          	li	a0,3
    2ce0:	e29ff06f          	j	2b08 <core_state_transition+0xc8>
    2ce4:	00600513          	li	a0,6
    2ce8:	e21ff06f          	j	2b08 <core_state_transition+0xc8>
    2cec:	00300513          	li	a0,3
    2cf0:	00170713          	addi	a4,a4,1
    2cf4:	e15ff06f          	j	2b08 <core_state_transition+0xc8>
    2cf8:	00600513          	li	a0,6
    2cfc:	00170713          	addi	a4,a4,1
    2d00:	e09ff06f          	j	2b08 <core_state_transition+0xc8>
    2d04:	00700513          	li	a0,7
    2d08:	e01ff06f          	j	2b08 <core_state_transition+0xc8>
    2d0c:	00700513          	li	a0,7
    2d10:	00170713          	addi	a4,a4,1
    2d14:	df5ff06f          	j	2b08 <core_state_transition+0xc8>
    2d18:	00068713          	mv	a4,a3
    2d1c:	00200513          	li	a0,2
    2d20:	00170713          	addi	a4,a4,1
    2d24:	de5ff06f          	j	2b08 <core_state_transition+0xc8>
    2d28:	00068713          	mv	a4,a3
    2d2c:	00200513          	li	a0,2
    2d30:	dd9ff06f          	j	2b08 <core_state_transition+0xc8>

00002d34 <core_bench_state>:
    2d34:	f8010113          	addi	sp,sp,-128
    2d38:	07312623          	sw	s3,108(sp)
    2d3c:	07412423          	sw	s4,104(sp)
    2d40:	01010993          	addi	s3,sp,16
    2d44:	03010a13          	addi	s4,sp,48
    2d48:	06812c23          	sw	s0,120(sp)
    2d4c:	06912a23          	sw	s1,116(sp)
    2d50:	07212823          	sw	s2,112(sp)
    2d54:	07512223          	sw	s5,100(sp)
    2d58:	05712e23          	sw	s7,92(sp)
    2d5c:	05812c23          	sw	s8,88(sp)
    2d60:	05912a23          	sw	s9,84(sp)
    2d64:	00070a93          	mv	s5,a4
    2d68:	00078493          	mv	s1,a5
    2d6c:	06112e23          	sw	ra,124(sp)
    2d70:	07612023          	sw	s6,96(sp)
    2d74:	00058413          	mv	s0,a1
    2d78:	00b12623          	sw	a1,12(sp)
    2d7c:	00050c13          	mv	s8,a0
    2d80:	00060c93          	mv	s9,a2
    2d84:	00068b93          	mv	s7,a3
    2d88:	000a0793          	mv	a5,s4
    2d8c:	00098913          	mv	s2,s3
    2d90:	00098713          	mv	a4,s3
    2d94:	0007a023          	sw	zero,0(a5)
    2d98:	00072023          	sw	zero,0(a4)
    2d9c:	00478793          	addi	a5,a5,4
    2da0:	05010693          	addi	a3,sp,80
    2da4:	00470713          	addi	a4,a4,4
    2da8:	fed796e3          	bne	a5,a3,2d94 <core_bench_state+0x60>
    2dac:	00044783          	lbu	a5,0(s0)
    2db0:	00c10b13          	addi	s6,sp,12
    2db4:	10078c63          	beqz	a5,2ecc <core_bench_state+0x198>
    2db8:	03010593          	addi	a1,sp,48
    2dbc:	000b0513          	mv	a0,s6
    2dc0:	c81ff0ef          	jal	2a40 <core_state_transition>
    2dc4:	00251813          	slli	a6,a0,0x2
    2dc8:	01098833          	add	a6,s3,a6
    2dcc:	00c12703          	lw	a4,12(sp)
    2dd0:	00082783          	lw	a5,0(a6)
    2dd4:	00074703          	lbu	a4,0(a4)
    2dd8:	00178793          	addi	a5,a5,1
    2ddc:	00f82023          	sw	a5,0(a6)
    2de0:	fc071ce3          	bnez	a4,2db8 <core_bench_state+0x84>
    2de4:	00812623          	sw	s0,12(sp)
    2de8:	01840c33          	add	s8,s0,s8
    2dec:	03847863          	bgeu	s0,s8,2e1c <core_bench_state+0xe8>
    2df0:	00040793          	mv	a5,s0
    2df4:	02c00613          	li	a2,44
    2df8:	0007c703          	lbu	a4,0(a5)
    2dfc:	019746b3          	xor	a3,a4,s9
    2e00:	00c70463          	beq	a4,a2,2e08 <core_bench_state+0xd4>
    2e04:	00d78023          	sb	a3,0(a5)
    2e08:	015787b3          	add	a5,a5,s5
    2e0c:	ff87e6e3          	bltu	a5,s8,2df8 <core_bench_state+0xc4>
    2e10:	00044783          	lbu	a5,0(s0)
    2e14:	00c10b13          	addi	s6,sp,12
    2e18:	02078863          	beqz	a5,2e48 <core_bench_state+0x114>
    2e1c:	03010593          	addi	a1,sp,48
    2e20:	000b0513          	mv	a0,s6
    2e24:	c1dff0ef          	jal	2a40 <core_state_transition>
    2e28:	00251613          	slli	a2,a0,0x2
    2e2c:	00c98633          	add	a2,s3,a2
    2e30:	00c12703          	lw	a4,12(sp)
    2e34:	00062783          	lw	a5,0(a2)
    2e38:	00074703          	lbu	a4,0(a4)
    2e3c:	00178793          	addi	a5,a5,1
    2e40:	00f62023          	sw	a5,0(a2)
    2e44:	fc071ce3          	bnez	a4,2e1c <core_bench_state+0xe8>
    2e48:	00812623          	sw	s0,12(sp)
    2e4c:	02c00693          	li	a3,44
    2e50:	01847e63          	bgeu	s0,s8,2e6c <core_bench_state+0x138>
    2e54:	00044783          	lbu	a5,0(s0)
    2e58:	0177c733          	xor	a4,a5,s7
    2e5c:	00d78463          	beq	a5,a3,2e64 <core_bench_state+0x130>
    2e60:	00e40023          	sb	a4,0(s0)
    2e64:	01540433          	add	s0,s0,s5
    2e68:	ff8466e3          	bltu	s0,s8,2e54 <core_bench_state+0x120>
    2e6c:	02098993          	addi	s3,s3,32
    2e70:	00092503          	lw	a0,0(s2)
    2e74:	00048593          	mv	a1,s1
    2e78:	00490913          	addi	s2,s2,4
    2e7c:	bc5fe0ef          	jal	1a40 <crcu32>
    2e80:	00050593          	mv	a1,a0
    2e84:	000a2503          	lw	a0,0(s4) # fffff000 <__stack_top+0xffff26a0>
    2e88:	004a0a13          	addi	s4,s4,4
    2e8c:	bb5fe0ef          	jal	1a40 <crcu32>
    2e90:	00050493          	mv	s1,a0
    2e94:	fd299ee3          	bne	s3,s2,2e70 <core_bench_state+0x13c>
    2e98:	07c12083          	lw	ra,124(sp)
    2e9c:	07812403          	lw	s0,120(sp)
    2ea0:	07412483          	lw	s1,116(sp)
    2ea4:	07012903          	lw	s2,112(sp)
    2ea8:	06c12983          	lw	s3,108(sp)
    2eac:	06812a03          	lw	s4,104(sp)
    2eb0:	06412a83          	lw	s5,100(sp)
    2eb4:	06012b03          	lw	s6,96(sp)
    2eb8:	05c12b83          	lw	s7,92(sp)
    2ebc:	05812c03          	lw	s8,88(sp)
    2ec0:	05412c83          	lw	s9,84(sp)
    2ec4:	08010113          	addi	sp,sp,128
    2ec8:	00008067          	ret
    2ecc:	01840c33          	add	s8,s0,s8
    2ed0:	f38460e3          	bltu	s0,s8,2df0 <core_bench_state+0xbc>
    2ed4:	f99ff06f          	j	2e6c <core_bench_state+0x138>

00002ed8 <crt0>:
    2ed8:	ff010113          	addi	sp,sp,-16
    2edc:	00112623          	sw	ra,12(sp)
    2ee0:	000092b7          	lui	t0,0x9
    2ee4:	9422aa23          	sw	sp,-1708(t0) # 8954 <sp_store>
    2ee8:	000092b7          	lui	t0,0x9
    2eec:	9142a103          	lw	sp,-1772(t0) # 8914 <stack_top>
    2ef0:	998fe0ef          	jal	1088 <main>
    2ef4:	000092b7          	lui	t0,0x9
    2ef8:	9542a103          	lw	sp,-1708(t0) # 8954 <sp_store>
    2efc:	00c12083          	lw	ra,12(sp)
    2f00:	01010113          	addi	sp,sp,16
    2f04:	00008067          	ret

00002f08 <getchar>:
    2f08:	ff010113          	addi	sp,sp,-16
    2f0c:	00112623          	sw	ra,12(sp)
    2f10:	1cc010ef          	jal	40dc <inbyte>
    2f14:	00c12083          	lw	ra,12(sp)
    2f18:	01010113          	addi	sp,sp,16
    2f1c:	00008067          	ret

00002f20 <putchar>:
    2f20:	ff010113          	addi	sp,sp,-16
    2f24:	00812423          	sw	s0,8(sp)
    2f28:	00050413          	mv	s0,a0
    2f2c:	0ff57513          	zext.b	a0,a0
    2f30:	00112623          	sw	ra,12(sp)
    2f34:	1cc010ef          	jal	4100 <outbyte>
    2f38:	00c12083          	lw	ra,12(sp)
    2f3c:	00040513          	mv	a0,s0
    2f40:	00812403          	lw	s0,8(sp)
    2f44:	01010113          	addi	sp,sp,16
    2f48:	00008067          	ret

00002f4c <fputs>:
    2f4c:	000097b7          	lui	a5,0x9
    2f50:	91c7a783          	lw	a5,-1764(a5) # 891c <stdout>
    2f54:	ff010113          	addi	sp,sp,-16
    2f58:	00112623          	sw	ra,12(sp)
    2f5c:	02b78663          	beq	a5,a1,2f88 <fputs+0x3c>
    2f60:	00008537          	lui	a0,0x8
    2f64:	00078593          	mv	a1,a5
    2f68:	57c50513          	addi	a0,a0,1404 # 857c <mem_name+0x57c>
    2f6c:	fe1ff0ef          	jal	2f4c <fputs>
    2f70:	00a00513          	li	a0,10
    2f74:	18c010ef          	jal	4100 <outbyte>
    2f78:	00c12083          	lw	ra,12(sp)
    2f7c:	00a00513          	li	a0,10
    2f80:	01010113          	addi	sp,sp,16
    2f84:	00008067          	ret
    2f88:	00812423          	sw	s0,8(sp)
    2f8c:	00050413          	mv	s0,a0
    2f90:	00054503          	lbu	a0,0(a0)
    2f94:	00050a63          	beqz	a0,2fa8 <fputs+0x5c>
    2f98:	00140413          	addi	s0,s0,1
    2f9c:	164010ef          	jal	4100 <outbyte>
    2fa0:	00044503          	lbu	a0,0(s0)
    2fa4:	fe051ae3          	bnez	a0,2f98 <fputs+0x4c>
    2fa8:	00a00513          	li	a0,10
    2fac:	00812403          	lw	s0,8(sp)
    2fb0:	150010ef          	jal	4100 <outbyte>
    2fb4:	00c12083          	lw	ra,12(sp)
    2fb8:	00a00513          	li	a0,10
    2fbc:	01010113          	addi	sp,sp,16
    2fc0:	00008067          	ret

00002fc4 <fgets>:
    2fc4:	000097b7          	lui	a5,0x9
    2fc8:	9207a783          	lw	a5,-1760(a5) # 8920 <stdin>
    2fcc:	fe010113          	addi	sp,sp,-32
    2fd0:	00112e23          	sw	ra,28(sp)
    2fd4:	08c79063          	bne	a5,a2,3054 <fgets+0x90>
    2fd8:	00812c23          	sw	s0,24(sp)
    2fdc:	00912a23          	sw	s1,20(sp)
    2fe0:	01212823          	sw	s2,16(sp)
    2fe4:	01312623          	sw	s3,12(sp)
    2fe8:	01412423          	sw	s4,8(sp)
    2fec:	00050493          	mv	s1,a0
    2ff0:	00050413          	mv	s0,a0
    2ff4:	00a00913          	li	s2,10
    2ff8:	00d00993          	li	s3,13
    2ffc:	00b50a33          	add	s4,a0,a1
    3000:	00059c63          	bnez	a1,3018 <fgets+0x54>
    3004:	0200006f          	j	3024 <fgets+0x60>
    3008:	01350e63          	beq	a0,s3,3024 <fgets+0x60>
    300c:	00140413          	addi	s0,s0,1
    3010:	0f0010ef          	jal	4100 <outbyte>
    3014:	01440863          	beq	s0,s4,3024 <fgets+0x60>
    3018:	0c4010ef          	jal	40dc <inbyte>
    301c:	00a40023          	sb	a0,0(s0)
    3020:	ff2514e3          	bne	a0,s2,3008 <fgets+0x44>
    3024:	00a00513          	li	a0,10
    3028:	0d8010ef          	jal	4100 <outbyte>
    302c:	00040023          	sb	zero,0(s0)
    3030:	01812403          	lw	s0,24(sp)
    3034:	01c12083          	lw	ra,28(sp)
    3038:	01012903          	lw	s2,16(sp)
    303c:	00c12983          	lw	s3,12(sp)
    3040:	00812a03          	lw	s4,8(sp)
    3044:	00048513          	mv	a0,s1
    3048:	01412483          	lw	s1,20(sp)
    304c:	02010113          	addi	sp,sp,32
    3050:	00008067          	ret
    3054:	000097b7          	lui	a5,0x9
    3058:	91c7a583          	lw	a1,-1764(a5) # 891c <stdout>
    305c:	00008537          	lui	a0,0x8
    3060:	5a850513          	addi	a0,a0,1448 # 85a8 <mem_name+0x5a8>
    3064:	ee9ff0ef          	jal	2f4c <fputs>
    3068:	01c12083          	lw	ra,28(sp)
    306c:	00000513          	li	a0,0
    3070:	02010113          	addi	sp,sp,32
    3074:	00008067          	ret

00003078 <putd>:
    3078:	fd010113          	addi	sp,sp,-48
    307c:	00d03733          	snez	a4,a3
    3080:	3b9ad7b7          	lui	a5,0x3b9ad
    3084:	ccccd8b7          	lui	a7,0xccccd
    3088:	03212023          	sw	s2,32(sp)
    308c:	02112623          	sw	ra,44(sp)
    3090:	02812423          	sw	s0,40(sp)
    3094:	02912223          	sw	s1,36(sp)
    3098:	01312e23          	sw	s3,28(sp)
    309c:	00068913          	mv	s2,a3
    30a0:	40e585b3          	sub	a1,a1,a4
    30a4:	a0078793          	addi	a5,a5,-1536 # 3b9aca00 <__stack_top+0x3b9a00a0>
    30a8:	ccd88893          	addi	a7,a7,-819 # cccccccd <__stack_top+0xcccc036d>
    30ac:	00a00813          	li	a6,10
    30b0:	0317b6b3          	mulhu	a3,a5,a7
    30b4:	00078713          	mv	a4,a5
    30b8:	0036d793          	srli	a5,a3,0x3
    30bc:	04e56e63          	bltu	a0,a4,3118 <putd+0xa0>
    30c0:	ccccdf37          	lui	t5,0xccccd
    30c4:	ccdf0f13          	addi	t5,t5,-819 # cccccccd <__stack_top+0xcccc036d>
    30c8:	00000413          	li	s0,0
    30cc:	00050e13          	mv	t3,a0
    30d0:	02e57533          	remu	a0,a0,a4
    30d4:	00070313          	mv	t1,a4
    30d8:	00040893          	mv	a7,s0
    30dc:	00288eb3          	add	t4,a7,sp
    30e0:	00140413          	addi	s0,s0,1
    30e4:	fff80813          	addi	a6,a6,-1
    30e8:	00078713          	mv	a4,a5
    30ec:	00040893          	mv	a7,s0
    30f0:	026e56b3          	divu	a3,t3,t1
    30f4:	00078313          	mv	t1,a5
    30f8:	00050e13          	mv	t3,a0
    30fc:	03068693          	addi	a3,a3,48
    3100:	00de8023          	sb	a3,0(t4)
    3104:	08080663          	beqz	a6,3190 <putd+0x118>
    3108:	03e7b7b3          	mulhu	a5,a5,t5
    310c:	0037d793          	srli	a5,a5,0x3
    3110:	fae57ee3          	bgeu	a0,a4,30cc <putd+0x54>
    3114:	fc9ff06f          	j	30dc <putd+0x64>
    3118:	fff80813          	addi	a6,a6,-1
    311c:	f8081ae3          	bnez	a6,30b0 <putd+0x38>
    3120:	00100993          	li	s3,1
    3124:	03000793          	li	a5,48
    3128:	00098413          	mv	s0,s3
    312c:	00f10023          	sb	a5,0(sp)
    3130:	002407b3          	add	a5,s0,sp
    3134:	00078023          	sb	zero,0(a5)
    3138:	fff58493          	addi	s1,a1,-1
    313c:	06060863          	beqz	a2,31ac <putd+0x134>
    3140:	0a091263          	bnez	s2,31e4 <putd+0x16c>
    3144:	fff40913          	addi	s2,s0,-1
    3148:	0084ca63          	blt	s1,s0,315c <putd+0xe4>
    314c:	03000513          	li	a0,48
    3150:	fff48493          	addi	s1,s1,-1
    3154:	7ad000ef          	jal	4100 <outbyte>
    3158:	fe991ae3          	bne	s2,s1,314c <putd+0xd4>
    315c:	00010413          	mv	s0,sp
    3160:	002989b3          	add	s3,s3,sp
    3164:	00044503          	lbu	a0,0(s0)
    3168:	00140413          	addi	s0,s0,1
    316c:	795000ef          	jal	4100 <outbyte>
    3170:	ff341ae3          	bne	s0,s3,3164 <putd+0xec>
    3174:	02c12083          	lw	ra,44(sp)
    3178:	02812403          	lw	s0,40(sp)
    317c:	02412483          	lw	s1,36(sp)
    3180:	02012903          	lw	s2,32(sp)
    3184:	01c12983          	lw	s3,28(sp)
    3188:	03010113          	addi	sp,sp,48
    318c:	00008067          	ret
    3190:	00014783          	lbu	a5,0(sp)
    3194:	00040993          	mv	s3,s0
    3198:	fff58493          	addi	s1,a1,-1
    319c:	00f10023          	sb	a5,0(sp)
    31a0:	002407b3          	add	a5,s0,sp
    31a4:	00078023          	sb	zero,0(a5)
    31a8:	f8061ce3          	bnez	a2,3140 <putd+0xc8>
    31ac:	01412c23          	sw	s4,24(sp)
    31b0:	fff40a13          	addi	s4,s0,-1
    31b4:	0084ca63          	blt	s1,s0,31c8 <putd+0x150>
    31b8:	02000513          	li	a0,32
    31bc:	fff48493          	addi	s1,s1,-1
    31c0:	741000ef          	jal	4100 <outbyte>
    31c4:	ff449ae3          	bne	s1,s4,31b8 <putd+0x140>
    31c8:	00091663          	bnez	s2,31d4 <putd+0x15c>
    31cc:	01812a03          	lw	s4,24(sp)
    31d0:	f8dff06f          	j	315c <putd+0xe4>
    31d4:	02d00513          	li	a0,45
    31d8:	729000ef          	jal	4100 <outbyte>
    31dc:	01812a03          	lw	s4,24(sp)
    31e0:	f7dff06f          	j	315c <putd+0xe4>
    31e4:	02d00513          	li	a0,45
    31e8:	719000ef          	jal	4100 <outbyte>
    31ec:	fff40913          	addi	s2,s0,-1
    31f0:	f484dee3          	bge	s1,s0,314c <putd+0xd4>
    31f4:	f69ff06f          	j	315c <putd+0xe4>

000031f8 <putx>:
    31f8:	01f6d793          	srli	a5,a3,0x1f
    31fc:	00f688b3          	add	a7,a3,a5
    3200:	0018f893          	andi	a7,a7,1
    3204:	fd010113          	addi	sp,sp,-48
    3208:	40f888b3          	sub	a7,a7,a5
    320c:	00008737          	lui	a4,0x8
    3210:	000087b7          	lui	a5,0x8
    3214:	5e878793          	addi	a5,a5,1512 # 85e8 <mem_name+0x5e8>
    3218:	00289893          	slli	a7,a7,0x2
    321c:	00c10693          	addi	a3,sp,12
    3220:	5d470713          	addi	a4,a4,1492 # 85d4 <mem_name+0x5d4>
    3224:	02812423          	sw	s0,40(sp)
    3228:	00f12823          	sw	a5,16(sp)
    322c:	02112623          	sw	ra,44(sp)
    3230:	02912223          	sw	s1,36(sp)
    3234:	00d888b3          	add	a7,a7,a3
    3238:	00e12623          	sw	a4,12(sp)
    323c:	01c00793          	li	a5,28
    3240:	00000413          	li	s0,0
    3244:	00100313          	li	t1,1
    3248:	02000e93          	li	t4,32
    324c:	ffc00e13          	li	t3,-4
    3250:	02c0006f          	j	327c <putx+0x84>
    3254:	00040713          	mv	a4,s0
    3258:	0c031063          	bnez	t1,3318 <putx+0x120>
    325c:	0008a683          	lw	a3,0(a7)
    3260:	00270733          	add	a4,a4,sp
    3264:	ffc78793          	addi	a5,a5,-4
    3268:	010686b3          	add	a3,a3,a6
    326c:	0006c683          	lbu	a3,0(a3)
    3270:	00140413          	addi	s0,s0,1
    3274:	00d70a23          	sb	a3,20(a4)
    3278:	05c78063          	beq	a5,t3,32b8 <putx+0xc0>
    327c:	00f55833          	srl	a6,a0,a5
    3280:	fc080ae3          	beqz	a6,3254 <putx+0x5c>
    3284:	40fe8733          	sub	a4,t4,a5
    3288:	00e51533          	sll	a0,a0,a4
    328c:	00e55533          	srl	a0,a0,a4
    3290:	00000313          	li	t1,0
    3294:	00040713          	mv	a4,s0
    3298:	0008a683          	lw	a3,0(a7)
    329c:	00270733          	add	a4,a4,sp
    32a0:	ffc78793          	addi	a5,a5,-4
    32a4:	010686b3          	add	a3,a3,a6
    32a8:	0006c683          	lbu	a3,0(a3)
    32ac:	00140413          	addi	s0,s0,1
    32b0:	00d70a23          	sb	a3,20(a4)
    32b4:	fdc794e3          	bne	a5,t3,327c <putx+0x84>
    32b8:	002407b3          	add	a5,s0,sp
    32bc:	fff58493          	addi	s1,a1,-1
    32c0:	00078a23          	sb	zero,20(a5)
    32c4:	0284c463          	blt	s1,s0,32ec <putx+0xf4>
    32c8:	03212023          	sw	s2,32(sp)
    32cc:	fff40913          	addi	s2,s0,-1
    32d0:	06060c63          	beqz	a2,3348 <putx+0x150>
    32d4:	03000513          	li	a0,48
    32d8:	fff48493          	addi	s1,s1,-1
    32dc:	625000ef          	jal	4100 <outbyte>
    32e0:	fe991ae3          	bne	s2,s1,32d4 <putx+0xdc>
    32e4:	02012903          	lw	s2,32(sp)
    32e8:	00040e63          	beqz	s0,3304 <putx+0x10c>
    32ec:	01410493          	addi	s1,sp,20
    32f0:	00940433          	add	s0,s0,s1
    32f4:	0004c503          	lbu	a0,0(s1)
    32f8:	00148493          	addi	s1,s1,1
    32fc:	605000ef          	jal	4100 <outbyte>
    3300:	fe941ae3          	bne	s0,s1,32f4 <putx+0xfc>
    3304:	02c12083          	lw	ra,44(sp)
    3308:	02812403          	lw	s0,40(sp)
    330c:	02412483          	lw	s1,36(sp)
    3310:	03010113          	addi	sp,sp,48
    3314:	00008067          	ret
    3318:	f40612e3          	bnez	a2,325c <putx+0x64>
    331c:	ffc00713          	li	a4,-4
    3320:	ffc78793          	addi	a5,a5,-4
    3324:	00f55833          	srl	a6,a0,a5
    3328:	04e78263          	beq	a5,a4,336c <putx+0x174>
    332c:	fe080ae3          	beqz	a6,3320 <putx+0x128>
    3330:	40fe8733          	sub	a4,t4,a5
    3334:	00e51533          	sll	a0,a0,a4
    3338:	00e55533          	srl	a0,a0,a4
    333c:	00000313          	li	t1,0
    3340:	00040713          	mv	a4,s0
    3344:	f55ff06f          	j	3298 <putx+0xa0>
    3348:	02000513          	li	a0,32
    334c:	fff48493          	addi	s1,s1,-1
    3350:	5b1000ef          	jal	4100 <outbyte>
    3354:	f89908e3          	beq	s2,s1,32e4 <putx+0xec>
    3358:	02000513          	li	a0,32
    335c:	fff48493          	addi	s1,s1,-1
    3360:	5a1000ef          	jal	4100 <outbyte>
    3364:	fe9912e3          	bne	s2,s1,3348 <putx+0x150>
    3368:	f7dff06f          	j	32e4 <putx+0xec>
    336c:	002407b3          	add	a5,s0,sp
    3370:	fff58493          	addi	s1,a1,-1
    3374:	00078a23          	sb	zero,20(a5)
    3378:	f484d8e3          	bge	s1,s0,32c8 <putx+0xd0>
    337c:	f6dff06f          	j	32e8 <putx+0xf0>

00003380 <putld>:
    3380:	f9010113          	addi	sp,sp,-112
    3384:	05312e23          	sw	s3,92(sp)
    3388:	05712623          	sw	s7,76(sp)
    338c:	06112623          	sw	ra,108(sp)
    3390:	06812423          	sw	s0,104(sp)
    3394:	06912223          	sw	s1,100(sp)
    3398:	07212023          	sw	s2,96(sp)
    339c:	05412c23          	sw	s4,88(sp)
    33a0:	05512a23          	sw	s5,84(sp)
    33a4:	05612823          	sw	s6,80(sp)
    33a8:	05812423          	sw	s8,72(sp)
    33ac:	05912223          	sw	s9,68(sp)
    33b0:	05a12023          	sw	s10,64(sp)
    33b4:	03b12e23          	sw	s11,60(sp)
    33b8:	00e12223          	sw	a4,4(sp)
    33bc:	00c12423          	sw	a2,8(sp)
    33c0:	00d12623          	sw	a3,12(sp)
    33c4:	00050b93          	mv	s7,a0
    33c8:	00058993          	mv	s3,a1
    33cc:	22071a63          	bnez	a4,3600 <putld+0x280>
    33d0:	2805c463          	bltz	a1,3658 <putld+0x2d8>
    33d4:	ccccdd37          	lui	s10,0xccccd
    33d8:	000d0c93          	mv	s9,s10
    33dc:	016346b7          	lui	a3,0x1634
    33e0:	57868a13          	addi	s4,a3,1400 # 1634578 <__stack_top+0x1627c18>
    33e4:	ccdd0d13          	addi	s10,s10,-819 # cccccccd <__stack_top+0xcccc036d>
    33e8:	cccc8c93          	addi	s9,s9,-820
    33ec:	000b8493          	mv	s1,s7
    33f0:	00098913          	mv	s2,s3
    33f4:	01200a93          	li	s5,18
    33f8:	5d8a0437          	lui	s0,0x5d8a0
    33fc:	00040613          	mv	a2,s0
    3400:	000a0693          	mv	a3,s4
    3404:	000b8513          	mv	a0,s7
    3408:	00098593          	mv	a1,s3
    340c:	541000ef          	jal	414c <__udivdi3>
    3410:	014407b3          	add	a5,s0,s4
    3414:	0087b733          	sltu	a4,a5,s0
    3418:	00e787b3          	add	a5,a5,a4
    341c:	03a7b733          	mulhu	a4,a5,s10
    3420:	00040b13          	mv	s6,s0
    3424:	000a0c13          	mv	s8,s4
    3428:	00050813          	mv	a6,a0
    342c:	00275693          	srli	a3,a4,0x2
    3430:	ffc77713          	andi	a4,a4,-4
    3434:	00d70733          	add	a4,a4,a3
    3438:	40e787b3          	sub	a5,a5,a4
    343c:	40f407b3          	sub	a5,s0,a5
    3440:	00f436b3          	sltu	a3,s0,a5
    3444:	40da06b3          	sub	a3,s4,a3
    3448:	03978633          	mul	a2,a5,s9
    344c:	03a686b3          	mul	a3,a3,s10
    3450:	03a7b733          	mulhu	a4,a5,s10
    3454:	00c686b3          	add	a3,a3,a2
    3458:	03a787b3          	mul	a5,a5,s10
    345c:	00e686b3          	add	a3,a3,a4
    3460:	01f69613          	slli	a2,a3,0x1f
    3464:	0016da13          	srli	s4,a3,0x1
    3468:	0017d793          	srli	a5,a5,0x1
    346c:	00f66433          	or	s0,a2,a5
    3470:	0e050663          	beqz	a0,355c <putld+0x1dc>
    3474:	ccccddb7          	lui	s11,0xccccd
    3478:	000d8993          	mv	s3,s11
    347c:	ccc98993          	addi	s3,s3,-820
    3480:	ccdd8d93          	addi	s11,s11,-819 # cccccccd <__stack_top+0xcccc036d>
    3484:	00000d13          	li	s10,0
    3488:	030c0bb3          	mul	s7,s8,a6
    348c:	000d0313          	mv	t1,s10
    3490:	000a0c13          	mv	s8,s4
    3494:	036837b3          	mulhu	a5,a6,s6
    3498:	03680cb3          	mul	s9,a6,s6
    349c:	00fb8bb3          	add	s7,s7,a5
    34a0:	41790bb3          	sub	s7,s2,s7
    34a4:	00040b13          	mv	s6,s0
    34a8:	41948cb3          	sub	s9,s1,s9
    34ac:	0194b4b3          	sltu	s1,s1,s9
    34b0:	409b8bb3          	sub	s7,s7,s1
    34b4:	000b8913          	mv	s2,s7
    34b8:	000c8493          	mv	s1,s9
    34bc:	00230333          	add	t1,t1,sp
    34c0:	03080813          	addi	a6,a6,48
    34c4:	01030c23          	sb	a6,24(t1)
    34c8:	fffa8a93          	addi	s5,s5,-1
    34cc:	000b0613          	mv	a2,s6
    34d0:	000c0693          	mv	a3,s8
    34d4:	000c8513          	mv	a0,s9
    34d8:	000b8593          	mv	a1,s7
    34dc:	001d0d13          	addi	s10,s10,1
    34e0:	120a8463          	beqz	s5,3608 <putld+0x288>
    34e4:	469000ef          	jal	414c <__udivdi3>
    34e8:	018b07b3          	add	a5,s6,s8
    34ec:	0167b733          	sltu	a4,a5,s6
    34f0:	00e787b3          	add	a5,a5,a4
    34f4:	03b7b733          	mulhu	a4,a5,s11
    34f8:	00050813          	mv	a6,a0
    34fc:	000d0313          	mv	t1,s10
    3500:	00275693          	srli	a3,a4,0x2
    3504:	ffc77713          	andi	a4,a4,-4
    3508:	00d70733          	add	a4,a4,a3
    350c:	40e787b3          	sub	a5,a5,a4
    3510:	40fb07b3          	sub	a5,s6,a5
    3514:	00fb3733          	sltu	a4,s6,a5
    3518:	40ec0733          	sub	a4,s8,a4
    351c:	03378633          	mul	a2,a5,s3
    3520:	03b70733          	mul	a4,a4,s11
    3524:	03b7b6b3          	mulhu	a3,a5,s11
    3528:	00c70733          	add	a4,a4,a2
    352c:	03b787b3          	mul	a5,a5,s11
    3530:	00d70733          	add	a4,a4,a3
    3534:	01f71613          	slli	a2,a4,0x1f
    3538:	00175713          	srli	a4,a4,0x1
    353c:	00070a13          	mv	s4,a4
    3540:	0017d793          	srli	a5,a5,0x1
    3544:	00f667b3          	or	a5,a2,a5
    3548:	00078413          	mv	s0,a5
    354c:	f2051ee3          	bnez	a0,3488 <putld+0x108>
    3550:	00078b13          	mv	s6,a5
    3554:	00070c13          	mv	s8,a4
    3558:	f65ff06f          	j	34bc <putld+0x13c>
    355c:	fffa8a93          	addi	s5,s5,-1
    3560:	e80a9ee3          	bnez	s5,33fc <putld+0x7c>
    3564:	00100493          	li	s1,1
    3568:	03000793          	li	a5,48
    356c:	00048d13          	mv	s10,s1
    3570:	00f10c23          	sb	a5,24(sp)
    3574:	002d07b3          	add	a5,s10,sp
    3578:	00078c23          	sb	zero,24(a5)
    357c:	00812783          	lw	a5,8(sp)
    3580:	fff78413          	addi	s0,a5,-1
    3584:	00c12783          	lw	a5,12(sp)
    3588:	0a078263          	beqz	a5,362c <putld+0x2ac>
    358c:	00412783          	lw	a5,4(sp)
    3590:	0e079663          	bnez	a5,367c <putld+0x2fc>
    3594:	fffd0913          	addi	s2,s10,-1
    3598:	01a44a63          	blt	s0,s10,35ac <putld+0x22c>
    359c:	03000513          	li	a0,48
    35a0:	fff40413          	addi	s0,s0,-1 # 5d89ffff <__stack_top+0x5d89369f>
    35a4:	35d000ef          	jal	4100 <outbyte>
    35a8:	ff241ae3          	bne	s0,s2,359c <putld+0x21c>
    35ac:	01810413          	addi	s0,sp,24
    35b0:	009404b3          	add	s1,s0,s1
    35b4:	00044503          	lbu	a0,0(s0)
    35b8:	00140413          	addi	s0,s0,1
    35bc:	345000ef          	jal	4100 <outbyte>
    35c0:	fe941ae3          	bne	s0,s1,35b4 <putld+0x234>
    35c4:	06c12083          	lw	ra,108(sp)
    35c8:	06812403          	lw	s0,104(sp)
    35cc:	06412483          	lw	s1,100(sp)
    35d0:	06012903          	lw	s2,96(sp)
    35d4:	05c12983          	lw	s3,92(sp)
    35d8:	05812a03          	lw	s4,88(sp)
    35dc:	05412a83          	lw	s5,84(sp)
    35e0:	05012b03          	lw	s6,80(sp)
    35e4:	04c12b83          	lw	s7,76(sp)
    35e8:	04812c03          	lw	s8,72(sp)
    35ec:	04412c83          	lw	s9,68(sp)
    35f0:	04012d03          	lw	s10,64(sp)
    35f4:	03c12d83          	lw	s11,60(sp)
    35f8:	07010113          	addi	sp,sp,112
    35fc:	00008067          	ret
    3600:	00012223          	sw	zero,4(sp)
    3604:	dd1ff06f          	j	33d4 <putld+0x54>
    3608:	01814783          	lbu	a5,24(sp)
    360c:	000d0493          	mv	s1,s10
    3610:	00f10c23          	sb	a5,24(sp)
    3614:	002d07b3          	add	a5,s10,sp
    3618:	00078c23          	sb	zero,24(a5)
    361c:	00812783          	lw	a5,8(sp)
    3620:	fff78413          	addi	s0,a5,-1
    3624:	00c12783          	lw	a5,12(sp)
    3628:	f60792e3          	bnez	a5,358c <putld+0x20c>
    362c:	fffd0913          	addi	s2,s10,-1
    3630:	01a44a63          	blt	s0,s10,3644 <putld+0x2c4>
    3634:	02000513          	li	a0,32
    3638:	fff40413          	addi	s0,s0,-1
    363c:	2c5000ef          	jal	4100 <outbyte>
    3640:	ff241ae3          	bne	s0,s2,3634 <putld+0x2b4>
    3644:	00412783          	lw	a5,4(sp)
    3648:	f60782e3          	beqz	a5,35ac <putld+0x22c>
    364c:	02d00513          	li	a0,45
    3650:	2b1000ef          	jal	4100 <outbyte>
    3654:	f59ff06f          	j	35ac <putld+0x22c>
    3658:	00a037b3          	snez	a5,a0
    365c:	40b009b3          	neg	s3,a1
    3660:	fff60713          	addi	a4,a2,-1
    3664:	40f989b3          	sub	s3,s3,a5
    3668:	00100793          	li	a5,1
    366c:	00e12423          	sw	a4,8(sp)
    3670:	40a00bb3          	neg	s7,a0
    3674:	00f12223          	sw	a5,4(sp)
    3678:	d5dff06f          	j	33d4 <putld+0x54>
    367c:	02d00513          	li	a0,45
    3680:	281000ef          	jal	4100 <outbyte>
    3684:	fffd0913          	addi	s2,s10,-1
    3688:	f1a45ae3          	bge	s0,s10,359c <putld+0x21c>
    368c:	f21ff06f          	j	35ac <putld+0x22c>

00003690 <putf>:
    3690:	f8010113          	addi	sp,sp,-128
    3694:	05812c23          	sw	s8,88(sp)
    3698:	06112e23          	sw	ra,124(sp)
    369c:	00070c13          	mv	s8,a4
    36a0:	06812c23          	sw	s0,120(sp)
    36a4:	06912a23          	sw	s1,116(sp)
    36a8:	07212823          	sw	s2,112(sp)
    36ac:	07312623          	sw	s3,108(sp)
    36b0:	07412423          	sw	s4,104(sp)
    36b4:	05912a23          	sw	s9,84(sp)
    36b8:	05a12823          	sw	s10,80(sp)
    36bc:	02a12823          	sw	a0,48(sp)
    36c0:	02c12a23          	sw	a2,52(sp)
    36c4:	02d12c23          	sw	a3,56(sp)
    36c8:	00058713          	mv	a4,a1
    36cc:	1b805463          	blez	s8,3874 <putf+0x1e4>
    36d0:	000096b7          	lui	a3,0x9
    36d4:	000097b7          	lui	a5,0x9
    36d8:	00009637          	lui	a2,0x9
    36dc:	07612023          	sw	s6,96(sp)
    36e0:	05712e23          	sw	s7,92(sp)
    36e4:	8e06a483          	lw	s1,-1824(a3) # 88e0 <__clz_tab+0x100>
    36e8:	8e46a403          	lw	s0,-1820(a3)
    36ec:	8f07a983          	lw	s3,-1808(a5) # 88f0 <__clz_tab+0x110>
    36f0:	8f47a903          	lw	s2,-1804(a5)
    36f4:	8f862b03          	lw	s6,-1800(a2) # 88f8 <__clz_tab+0x118>
    36f8:	8fc62b83          	lw	s7,-1796(a2)
    36fc:	07512223          	sw	s5,100(sp)
    3700:	05b12623          	sw	s11,76(sp)
    3704:	00000c93          	li	s9,0
    3708:	02b12e23          	sw	a1,60(sp)
    370c:	00098513          	mv	a0,s3
    3710:	00090593          	mv	a1,s2
    3714:	000b0613          	mv	a2,s6
    3718:	000b8693          	mv	a3,s7
    371c:	5dc010ef          	jal	4cf8 <__divdf3>
    3720:	00050993          	mv	s3,a0
    3724:	00058913          	mv	s2,a1
    3728:	00048513          	mv	a0,s1
    372c:	00040593          	mv	a1,s0
    3730:	000b0613          	mv	a2,s6
    3734:	000b8693          	mv	a3,s7
    3738:	61d010ef          	jal	5554 <__muldf3>
    373c:	001c8c93          	addi	s9,s9,1
    3740:	00050493          	mv	s1,a0
    3744:	00058413          	mv	s0,a1
    3748:	fd9c12e3          	bne	s8,s9,370c <putf+0x7c>
    374c:	03c12703          	lw	a4,60(sp)
    3750:	06412a83          	lw	s5,100(sp)
    3754:	06012b03          	lw	s6,96(sp)
    3758:	05c12b83          	lw	s7,92(sp)
    375c:	04c12d83          	lw	s11,76(sp)
    3760:	03012783          	lw	a5,48(sp)
    3764:	00e12623          	sw	a4,12(sp)
    3768:	00c12583          	lw	a1,12(sp)
    376c:	00f12423          	sw	a5,8(sp)
    3770:	00812503          	lw	a0,8(sp)
    3774:	00000613          	li	a2,0
    3778:	00000693          	li	a3,0
    377c:	02e12e23          	sw	a4,60(sp)
    3780:	505010ef          	jal	5484 <__ledf2>
    3784:	03c12703          	lw	a4,60(sp)
    3788:	00000a13          	li	s4,0
    378c:	00055863          	bgez	a0,379c <putf+0x10c>
    3790:	800007b7          	lui	a5,0x80000
    3794:	00f74733          	xor	a4,a4,a5
    3798:	00100a13          	li	s4,1
    379c:	03012d03          	lw	s10,48(sp)
    37a0:	00e12e23          	sw	a4,28(sp)
    37a4:	01312823          	sw	s3,16(sp)
    37a8:	01a12c23          	sw	s10,24(sp)
    37ac:	01212a23          	sw	s2,20(sp)
    37b0:	01012603          	lw	a2,16(sp)
    37b4:	01412683          	lw	a3,20(sp)
    37b8:	01812503          	lw	a0,24(sp)
    37bc:	01c12583          	lw	a1,28(sp)
    37c0:	5b9000ef          	jal	4578 <__adddf3>
    37c4:	00058913          	mv	s2,a1
    37c8:	00050993          	mv	s3,a0
    37cc:	30d020ef          	jal	62d8 <__fixunsdfsi>
    37d0:	03412783          	lw	a5,52(sp)
    37d4:	03812603          	lw	a2,56(sp)
    37d8:	000a0693          	mv	a3,s4
    37dc:	41878cb3          	sub	s9,a5,s8
    37e0:	419005b3          	neg	a1,s9
    37e4:	41f5d593          	srai	a1,a1,0x1f
    37e8:	fffc8c93          	addi	s9,s9,-1
    37ec:	00bcf5b3          	and	a1,s9,a1
    37f0:	00050a13          	mv	s4,a0
    37f4:	885ff0ef          	jal	3078 <putd>
    37f8:	02e00513          	li	a0,46
    37fc:	105000ef          	jal	4100 <outbyte>
    3800:	000a0513          	mv	a0,s4
    3804:	351020ef          	jal	6354 <__floatunsidf>
    3808:	03312023          	sw	s3,32(sp)
    380c:	03212223          	sw	s2,36(sp)
    3810:	00050613          	mv	a2,a0
    3814:	00058693          	mv	a3,a1
    3818:	02012503          	lw	a0,32(sp)
    381c:	02412583          	lw	a1,36(sp)
    3820:	328020ef          	jal	5b48 <__subdf3>
    3824:	02912423          	sw	s1,40(sp)
    3828:	02812623          	sw	s0,44(sp)
    382c:	02812603          	lw	a2,40(sp)
    3830:	02c12683          	lw	a3,44(sp)
    3834:	521010ef          	jal	5554 <__muldf3>
    3838:	3ad020ef          	jal	63e4 <__fixunsdfdi>
    383c:	07812403          	lw	s0,120(sp)
    3840:	07c12083          	lw	ra,124(sp)
    3844:	07412483          	lw	s1,116(sp)
    3848:	07012903          	lw	s2,112(sp)
    384c:	06c12983          	lw	s3,108(sp)
    3850:	06812a03          	lw	s4,104(sp)
    3854:	05412c83          	lw	s9,84(sp)
    3858:	05012d03          	lw	s10,80(sp)
    385c:	000c0613          	mv	a2,s8
    3860:	05812c03          	lw	s8,88(sp)
    3864:	00100713          	li	a4,1
    3868:	00070693          	mv	a3,a4
    386c:	08010113          	addi	sp,sp,128
    3870:	b11ff06f          	j	3380 <putld>
    3874:	000096b7          	lui	a3,0x9
    3878:	000097b7          	lui	a5,0x9
    387c:	8e06a483          	lw	s1,-1824(a3) # 88e0 <__clz_tab+0x100>
    3880:	8e46a403          	lw	s0,-1820(a3)
    3884:	8f07a983          	lw	s3,-1808(a5) # 88f0 <__clz_tab+0x110>
    3888:	8f47a903          	lw	s2,-1804(a5)
    388c:	ed5ff06f          	j	3760 <putf+0xd0>

00003890 <printf>:
    3890:	fa010113          	addi	sp,sp,-96
    3894:	02812c23          	sw	s0,56(sp)
    3898:	04f12a23          	sw	a5,84(sp)
    389c:	02112e23          	sw	ra,60(sp)
    38a0:	04b12223          	sw	a1,68(sp)
    38a4:	04c12423          	sw	a2,72(sp)
    38a8:	04d12623          	sw	a3,76(sp)
    38ac:	04e12823          	sw	a4,80(sp)
    38b0:	05012c23          	sw	a6,88(sp)
    38b4:	05112e23          	sw	a7,92(sp)
    38b8:	00050413          	mv	s0,a0
    38bc:	00054503          	lbu	a0,0(a0)
    38c0:	04410793          	addi	a5,sp,68
    38c4:	00f12623          	sw	a5,12(sp)
    38c8:	06050063          	beqz	a0,3928 <printf+0x98>
    38cc:	02912a23          	sw	s1,52(sp)
    38d0:	03212823          	sw	s2,48(sp)
    38d4:	03312623          	sw	s3,44(sp)
    38d8:	03412423          	sw	s4,40(sp)
    38dc:	03512223          	sw	s5,36(sp)
    38e0:	03612023          	sw	s6,32(sp)
    38e4:	00600493          	li	s1,6
    38e8:	02500913          	li	s2,37
    38ec:	00900b13          	li	s6,9
    38f0:	02e00a13          	li	s4,46
    38f4:	02000993          	li	s3,32
    38f8:	00008ab7          	lui	s5,0x8
    38fc:	05250063          	beq	a0,s2,393c <printf+0xac>
    3900:	001000ef          	jal	4100 <outbyte>
    3904:	00144503          	lbu	a0,1(s0)
    3908:	00140413          	addi	s0,s0,1
    390c:	fe0518e3          	bnez	a0,38fc <printf+0x6c>
    3910:	03412483          	lw	s1,52(sp)
    3914:	03012903          	lw	s2,48(sp)
    3918:	02c12983          	lw	s3,44(sp)
    391c:	02812a03          	lw	s4,40(sp)
    3920:	02412a83          	lw	s5,36(sp)
    3924:	02012b03          	lw	s6,32(sp)
    3928:	03c12083          	lw	ra,60(sp)
    392c:	03812403          	lw	s0,56(sp)
    3930:	00000513          	li	a0,0
    3934:	06010113          	addi	sp,sp,96
    3938:	00008067          	ret
    393c:	00144503          	lbu	a0,1(s0)
    3940:	00000593          	li	a1,0
    3944:	00140413          	addi	s0,s0,1
    3948:	fd050713          	addi	a4,a0,-48
    394c:	0ff77793          	zext.b	a5,a4
    3950:	00173613          	seqz	a2,a4
    3954:	02fb6463          	bltu	s6,a5,397c <printf+0xec>
    3958:	00259793          	slli	a5,a1,0x2
    395c:	00144503          	lbu	a0,1(s0)
    3960:	00b787b3          	add	a5,a5,a1
    3964:	00179793          	slli	a5,a5,0x1
    3968:	00f705b3          	add	a1,a4,a5
    396c:	fd050713          	addi	a4,a0,-48
    3970:	0ff77793          	zext.b	a5,a4
    3974:	00140413          	addi	s0,s0,1
    3978:	fefb70e3          	bgeu	s6,a5,3958 <printf+0xc8>
    397c:	f9450513          	addi	a0,a0,-108
    3980:	00153513          	seqz	a0,a0
    3984:	00a40433          	add	s0,s0,a0
    3988:	00044503          	lbu	a0,0(s0)
    398c:	11450263          	beq	a0,s4,3a90 <printf+0x200>
    3990:	fa850793          	addi	a5,a0,-88
    3994:	0ff7f793          	zext.b	a5,a5
    3998:	f6f9e4e3          	bltu	s3,a5,3900 <printf+0x70>
    399c:	00279793          	slli	a5,a5,0x2
    39a0:	678a8713          	addi	a4,s5,1656 # 8678 <errpat+0x10>
    39a4:	00e787b3          	add	a5,a5,a4
    39a8:	0007a783          	lw	a5,0(a5)
    39ac:	00078067          	jr	a5
    39b0:	00c12783          	lw	a5,12(sp)
    39b4:	00000693          	li	a3,0
    39b8:	0007a503          	lw	a0,0(a5)
    39bc:	00478793          	addi	a5,a5,4
    39c0:	00f12623          	sw	a5,12(sp)
    39c4:	835ff0ef          	jal	31f8 <putx>
    39c8:	f3dff06f          	j	3904 <printf+0x74>
    39cc:	00c12783          	lw	a5,12(sp)
    39d0:	00000693          	li	a3,0
    39d4:	0007a503          	lw	a0,0(a5)
    39d8:	00478793          	addi	a5,a5,4
    39dc:	00f12623          	sw	a5,12(sp)
    39e0:	e98ff0ef          	jal	3078 <putd>
    39e4:	f21ff06f          	j	3904 <printf+0x74>
    39e8:	00c12783          	lw	a5,12(sp)
    39ec:	01712e23          	sw	s7,28(sp)
    39f0:	0007ab83          	lw	s7,0(a5)
    39f4:	00478793          	addi	a5,a5,4
    39f8:	00f12623          	sw	a5,12(sp)
    39fc:	000bc503          	lbu	a0,0(s7)
    3a00:	00050a63          	beqz	a0,3a14 <printf+0x184>
    3a04:	001b8b93          	addi	s7,s7,1
    3a08:	6f8000ef          	jal	4100 <outbyte>
    3a0c:	000bc503          	lbu	a0,0(s7)
    3a10:	fe051ae3          	bnez	a0,3a04 <printf+0x174>
    3a14:	01c12b83          	lw	s7,28(sp)
    3a18:	eedff06f          	j	3904 <printf+0x74>
    3a1c:	00c12783          	lw	a5,12(sp)
    3a20:	00060693          	mv	a3,a2
    3a24:	00058613          	mv	a2,a1
    3a28:	00778793          	addi	a5,a5,7
    3a2c:	ff87f793          	andi	a5,a5,-8
    3a30:	0007a503          	lw	a0,0(a5)
    3a34:	0047a583          	lw	a1,4(a5)
    3a38:	00048713          	mv	a4,s1
    3a3c:	00878793          	addi	a5,a5,8
    3a40:	00f12623          	sw	a5,12(sp)
    3a44:	c4dff0ef          	jal	3690 <putf>
    3a48:	ebdff06f          	j	3904 <printf+0x74>
    3a4c:	00c12783          	lw	a5,12(sp)
    3a50:	0007a683          	lw	a3,0(a5)
    3a54:	00478793          	addi	a5,a5,4
    3a58:	00f12623          	sw	a5,12(sp)
    3a5c:	41f6d793          	srai	a5,a3,0x1f
    3a60:	00d7c533          	xor	a0,a5,a3
    3a64:	40f50533          	sub	a0,a0,a5
    3a68:	01f6d693          	srli	a3,a3,0x1f
    3a6c:	e0cff0ef          	jal	3078 <putd>
    3a70:	e95ff06f          	j	3904 <printf+0x74>
    3a74:	00c12783          	lw	a5,12(sp)
    3a78:	00100693          	li	a3,1
    3a7c:	0007a503          	lw	a0,0(a5)
    3a80:	00478793          	addi	a5,a5,4
    3a84:	00f12623          	sw	a5,12(sp)
    3a88:	f70ff0ef          	jal	31f8 <putx>
    3a8c:	e79ff06f          	j	3904 <printf+0x74>
    3a90:	00144503          	lbu	a0,1(s0)
    3a94:	00900693          	li	a3,9
    3a98:	00140413          	addi	s0,s0,1
    3a9c:	fd050713          	addi	a4,a0,-48
    3aa0:	0ff77793          	zext.b	a5,a4
    3aa4:	00000493          	li	s1,0
    3aa8:	eef6e4e3          	bltu	a3,a5,3990 <printf+0x100>
    3aac:	00249793          	slli	a5,s1,0x2
    3ab0:	00144503          	lbu	a0,1(s0)
    3ab4:	009787b3          	add	a5,a5,s1
    3ab8:	00179793          	slli	a5,a5,0x1
    3abc:	00f704b3          	add	s1,a4,a5
    3ac0:	fd050713          	addi	a4,a0,-48
    3ac4:	0ff77793          	zext.b	a5,a4
    3ac8:	00140413          	addi	s0,s0,1
    3acc:	fef6f0e3          	bgeu	a3,a5,3aac <printf+0x21c>
    3ad0:	ec1ff06f          	j	3990 <printf+0x100>

00003ad4 <exit>:
    3ad4:	fe010113          	addi	sp,sp,-32
    3ad8:	00112e23          	sw	ra,28(sp)
    3adc:	00812c23          	sw	s0,24(sp)
    3ae0:	02010413          	addi	s0,sp,32
    3ae4:	fea42623          	sw	a0,-20(s0)
    3ae8:	000087b7          	lui	a5,0x8
    3aec:	6fc78513          	addi	a0,a5,1788 # 86fc <errpat+0x94>
    3af0:	da1ff0ef          	jal	3890 <printf>
    3af4:	fec42583          	lw	a1,-20(s0)
    3af8:	000087b7          	lui	a5,0x8
    3afc:	74878513          	addi	a0,a5,1864 # 8748 <errpat+0xe0>
    3b00:	d91ff0ef          	jal	3890 <printf>
    3b04:	000087b7          	lui	a5,0x8
    3b08:	76c78513          	addi	a0,a5,1900 # 876c <errpat+0x104>
    3b0c:	d85ff0ef          	jal	3890 <printf>
    3b10:	00300513          	li	a0,3
    3b14:	c0cff0ef          	jal	2f20 <putchar>
    3b18:	00000013          	nop
    3b1c:	ffdff06f          	j	3b18 <exit+0x44>

00003b20 <malloc>:
    3b20:	000098b7          	lui	a7,0x9
    3b24:	00009737          	lui	a4,0x9
    3b28:	93c8a783          	lw	a5,-1732(a7) # 893c <curr_top>
    3b2c:	93872583          	lw	a1,-1736(a4) # 8938 <heap_end>
    3b30:	00050813          	mv	a6,a0
    3b34:	08b78e63          	beq	a5,a1,3bd0 <malloc+0xb0>
    3b38:	02b7f263          	bgeu	a5,a1,3b5c <malloc+0x3c>
    3b3c:	0007a703          	lw	a4,0(a5)
    3b40:	00177693          	andi	a3,a4,1
    3b44:	40f70633          	sub	a2,a4,a5
    3b48:	00069463          	bnez	a3,3b50 <malloc+0x30>
    3b4c:	04c86063          	bltu	a6,a2,3b8c <malloc+0x6c>
    3b50:	ffe77793          	andi	a5,a4,-2
    3b54:	feb7e4e3          	bltu	a5,a1,3b3c <malloc+0x1c>
    3b58:	93c8a783          	lw	a5,-1732(a7)
    3b5c:	00009737          	lui	a4,0x9
    3b60:	90472703          	lw	a4,-1788(a4) # 8904 <heap_top>
    3b64:	02f77063          	bgeu	a4,a5,3b84 <malloc+0x64>
    3b68:	00072683          	lw	a3,0(a4)
    3b6c:	0016f613          	andi	a2,a3,1
    3b70:	40e685b3          	sub	a1,a3,a4
    3b74:	00061463          	bnez	a2,3b7c <malloc+0x5c>
    3b78:	08b86a63          	bltu	a6,a1,3c0c <malloc+0xec>
    3b7c:	ffe6f713          	andi	a4,a3,-2
    3b80:	fef764e3          	bltu	a4,a5,3b68 <malloc+0x48>
    3b84:	00000513          	li	a0,0
    3b88:	00008067          	ret
    3b8c:	ffe7f613          	andi	a2,a5,-2
    3b90:	00460613          	addi	a2,a2,4
    3b94:	00387693          	andi	a3,a6,3
    3b98:	00060513          	mv	a0,a2
    3b9c:	00000593          	li	a1,0
    3ba0:	06069063          	bnez	a3,3c00 <malloc+0xe0>
    3ba4:	00480693          	addi	a3,a6,4
    3ba8:	00b686b3          	add	a3,a3,a1
    3bac:	ffc6f693          	andi	a3,a3,-4
    3bb0:	00d786b3          	add	a3,a5,a3
    3bb4:	92d8ae23          	sw	a3,-1732(a7)
    3bb8:	00e68463          	beq	a3,a4,3bc0 <malloc+0xa0>
    3bbc:	00e6a023          	sw	a4,0(a3)
    3bc0:	0016e693          	ori	a3,a3,1
    3bc4:	00d7a023          	sw	a3,0(a5)
    3bc8:	f80608e3          	beqz	a2,3b58 <malloc+0x38>
    3bcc:	00008067          	ret
    3bd0:	000097b7          	lui	a5,0x9
    3bd4:	000096b7          	lui	a3,0x9
    3bd8:	9047a783          	lw	a5,-1788(a5) # 8904 <heap_top>
    3bdc:	9006a583          	lw	a1,-1792(a3) # 8900 <heap_size>
    3be0:	92f8ae23          	sw	a5,-1732(a7)
    3be4:	00b785b3          	add	a1,a5,a1
    3be8:	ff05f593          	andi	a1,a1,-16
    3bec:	92b72c23          	sw	a1,-1736(a4)
    3bf0:	00b7a023          	sw	a1,0(a5)
    3bf4:	f4b7e4e3          	bltu	a5,a1,3b3c <malloc+0x1c>
    3bf8:	00000513          	li	a0,0
    3bfc:	00008067          	ret
    3c00:	00400593          	li	a1,4
    3c04:	40d585b3          	sub	a1,a1,a3
    3c08:	f9dff06f          	j	3ba4 <malloc+0x84>
    3c0c:	ffe77513          	andi	a0,a4,-2
    3c10:	00387793          	andi	a5,a6,3
    3c14:	00450513          	addi	a0,a0,4
    3c18:	00078663          	beqz	a5,3c24 <malloc+0x104>
    3c1c:	00400613          	li	a2,4
    3c20:	40f60633          	sub	a2,a2,a5
    3c24:	00480793          	addi	a5,a6,4
    3c28:	00c787b3          	add	a5,a5,a2
    3c2c:	ffc7f793          	andi	a5,a5,-4
    3c30:	00f707b3          	add	a5,a4,a5
    3c34:	92f8ae23          	sw	a5,-1732(a7)
    3c38:	00d78463          	beq	a5,a3,3c40 <malloc+0x120>
    3c3c:	00d7a023          	sw	a3,0(a5)
    3c40:	0017e793          	ori	a5,a5,1
    3c44:	00f72023          	sw	a5,0(a4)
    3c48:	00008067          	ret

00003c4c <free>:
    3c4c:	ffc52783          	lw	a5,-4(a0)
    3c50:	ffe7f793          	andi	a5,a5,-2
    3c54:	fef52e23          	sw	a5,-4(a0)
    3c58:	0007a783          	lw	a5,0(a5)
    3c5c:	0017f713          	andi	a4,a5,1
    3c60:	00071a63          	bnez	a4,3c74 <free+0x28>
    3c64:	ffc50693          	addi	a3,a0,-4
    3c68:	00009737          	lui	a4,0x9
    3c6c:	fef52e23          	sw	a5,-4(a0)
    3c70:	92d72e23          	sw	a3,-1732(a4) # 893c <curr_top>
    3c74:	00008067          	ret

00003c78 <calloc>:
    3c78:	ff010113          	addi	sp,sp,-16
    3c7c:	00912423          	sw	s1,8(sp)
    3c80:	02b504b3          	mul	s1,a0,a1
    3c84:	00112623          	sw	ra,12(sp)
    3c88:	00048513          	mv	a0,s1
    3c8c:	e95ff0ef          	jal	3b20 <malloc>
    3c90:	00048613          	mv	a2,s1
    3c94:	00000593          	li	a1,0
    3c98:	00050493          	mv	s1,a0
    3c9c:	17c000ef          	jal	3e18 <memset>
    3ca0:	00c12083          	lw	ra,12(sp)
    3ca4:	00048513          	mv	a0,s1
    3ca8:	00812483          	lw	s1,8(sp)
    3cac:	01010113          	addi	sp,sp,16
    3cb0:	00008067          	ret

00003cb4 <atoi>:
    3cb4:	00050793          	mv	a5,a0
    3cb8:	02000693          	li	a3,32
    3cbc:	00900613          	li	a2,9
    3cc0:	0007c703          	lbu	a4,0(a5)
    3cc4:	00d70463          	beq	a4,a3,3ccc <atoi+0x18>
    3cc8:	00c71663          	bne	a4,a2,3cd4 <atoi+0x20>
    3ccc:	00178793          	addi	a5,a5,1
    3cd0:	ff1ff06f          	j	3cc0 <atoi+0xc>
    3cd4:	02d00693          	li	a3,45
    3cd8:	00100813          	li	a6,1
    3cdc:	00d71863          	bne	a4,a3,3cec <atoi+0x38>
    3ce0:	0017c703          	lbu	a4,1(a5)
    3ce4:	fff00813          	li	a6,-1
    3ce8:	00178793          	addi	a5,a5,1
    3cec:	fd070713          	addi	a4,a4,-48
    3cf0:	0ff77613          	zext.b	a2,a4
    3cf4:	00900693          	li	a3,9
    3cf8:	00000513          	li	a0,0
    3cfc:	04c6e263          	bltu	a3,a2,3d40 <atoi+0x8c>
    3d00:	0017c603          	lbu	a2,1(a5)
    3d04:	00178793          	addi	a5,a5,1
    3d08:	02060e63          	beqz	a2,3d44 <atoi+0x90>
    3d0c:	00068513          	mv	a0,a3
    3d10:	0100006f          	j	3d20 <atoi+0x6c>
    3d14:	0007c603          	lbu	a2,0(a5)
    3d18:	00e58733          	add	a4,a1,a4
    3d1c:	02060463          	beqz	a2,3d44 <atoi+0x90>
    3d20:	00271693          	slli	a3,a4,0x2
    3d24:	fd060593          	addi	a1,a2,-48
    3d28:	00e68733          	add	a4,a3,a4
    3d2c:	0ff5f693          	zext.b	a3,a1
    3d30:	00178793          	addi	a5,a5,1
    3d34:	00171713          	slli	a4,a4,0x1
    3d38:	fcd57ee3          	bgeu	a0,a3,3d14 <atoi+0x60>
    3d3c:	00000513          	li	a0,0
    3d40:	00008067          	ret
    3d44:	02e80533          	mul	a0,a6,a4
    3d48:	00008067          	ret

00003d4c <abs>:
    3d4c:	41f55793          	srai	a5,a0,0x1f
    3d50:	00a7c533          	xor	a0,a5,a0
    3d54:	40f50533          	sub	a0,a0,a5
    3d58:	00008067          	ret

00003d5c <srand>:
    3d5c:	000097b7          	lui	a5,0x9
    3d60:	92a7aa23          	sw	a0,-1740(a5) # 8934 <rand_seed>
    3d64:	00008067          	ret

00003d68 <rand>:
    3d68:	000096b7          	lui	a3,0x9
    3d6c:	9346a783          	lw	a5,-1740(a3) # 8934 <rand_seed>
    3d70:	00034737          	lui	a4,0x34
    3d74:	3fd70713          	addi	a4,a4,1021 # 343fd <__stack_top+0x27a9d>
    3d78:	02e787b3          	mul	a5,a5,a4
    3d7c:	0026a737          	lui	a4,0x26a
    3d80:	ec370713          	addi	a4,a4,-317 # 269ec3 <__stack_top+0x25d563>
    3d84:	00e787b3          	add	a5,a5,a4
    3d88:	00179513          	slli	a0,a5,0x1
    3d8c:	92f6aa23          	sw	a5,-1740(a3)
    3d90:	01155513          	srli	a0,a0,0x11
    3d94:	00008067          	ret

00003d98 <memcpy>:
    3d98:	02060063          	beqz	a2,3db8 <memcpy+0x20>
    3d9c:	00c50633          	add	a2,a0,a2
    3da0:	00050793          	mv	a5,a0
    3da4:	0005c703          	lbu	a4,0(a1)
    3da8:	00178793          	addi	a5,a5,1
    3dac:	00158593          	addi	a1,a1,1
    3db0:	fee78fa3          	sb	a4,-1(a5)
    3db4:	fef618e3          	bne	a2,a5,3da4 <memcpy+0xc>
    3db8:	00008067          	ret

00003dbc <memmove>:
    3dbc:	02b56a63          	bltu	a0,a1,3df0 <memmove+0x34>
    3dc0:	00c587b3          	add	a5,a1,a2
    3dc4:	02a7e663          	bltu	a5,a0,3df0 <memmove+0x34>
    3dc8:	fff60793          	addi	a5,a2,-1
    3dcc:	0407c263          	bltz	a5,3e10 <memmove+0x54>
    3dd0:	fff00613          	li	a2,-1
    3dd4:	00f58733          	add	a4,a1,a5
    3dd8:	00074683          	lbu	a3,0(a4)
    3ddc:	00f50733          	add	a4,a0,a5
    3de0:	fff78793          	addi	a5,a5,-1
    3de4:	00d70023          	sb	a3,0(a4)
    3de8:	fec796e3          	bne	a5,a2,3dd4 <memmove+0x18>
    3dec:	00008067          	ret
    3df0:	00c506b3          	add	a3,a0,a2
    3df4:	00050793          	mv	a5,a0
    3df8:	00060e63          	beqz	a2,3e14 <memmove+0x58>
    3dfc:	0005c703          	lbu	a4,0(a1)
    3e00:	00178793          	addi	a5,a5,1
    3e04:	00158593          	addi	a1,a1,1
    3e08:	fee78fa3          	sb	a4,-1(a5)
    3e0c:	fef698e3          	bne	a3,a5,3dfc <memmove+0x40>
    3e10:	00008067          	ret
    3e14:	00008067          	ret

00003e18 <memset>:
    3e18:	0ff5f593          	zext.b	a1,a1
    3e1c:	00c50733          	add	a4,a0,a2
    3e20:	00050793          	mv	a5,a0
    3e24:	00060863          	beqz	a2,3e34 <memset+0x1c>
    3e28:	00178793          	addi	a5,a5,1
    3e2c:	feb78fa3          	sb	a1,-1(a5)
    3e30:	fef71ce3          	bne	a4,a5,3e28 <memset+0x10>
    3e34:	00008067          	ret

00003e38 <strlen>:
    3e38:	00054783          	lbu	a5,0(a0)
    3e3c:	00050713          	mv	a4,a0
    3e40:	00000513          	li	a0,0
    3e44:	00078c63          	beqz	a5,3e5c <strlen+0x24>
    3e48:	00150513          	addi	a0,a0,1
    3e4c:	00a707b3          	add	a5,a4,a0
    3e50:	0007c783          	lbu	a5,0(a5)
    3e54:	fe079ae3          	bnez	a5,3e48 <strlen+0x10>
    3e58:	00008067          	ret
    3e5c:	00008067          	ret

00003e60 <strcpy>:
    3e60:	0005c783          	lbu	a5,0(a1)
    3e64:	00050713          	mv	a4,a0
    3e68:	00078c63          	beqz	a5,3e80 <strcpy+0x20>
    3e6c:	00158593          	addi	a1,a1,1
    3e70:	00f70023          	sb	a5,0(a4)
    3e74:	0005c783          	lbu	a5,0(a1)
    3e78:	00170713          	addi	a4,a4,1
    3e7c:	fe0798e3          	bnez	a5,3e6c <strcpy+0xc>
    3e80:	00070023          	sb	zero,0(a4)
    3e84:	00008067          	ret

00003e88 <strncpy>:
    3e88:	0005c703          	lbu	a4,0(a1)
    3e8c:	00050793          	mv	a5,a0
    3e90:	00071e63          	bnez	a4,3eac <strncpy+0x24>
    3e94:	0480006f          	j	3edc <strncpy+0x54>
    3e98:	fee78fa3          	sb	a4,-1(a5)
    3e9c:	0005c703          	lbu	a4,0(a1)
    3ea0:	fff60693          	addi	a3,a2,-1
    3ea4:	00070c63          	beqz	a4,3ebc <strncpy+0x34>
    3ea8:	00068613          	mv	a2,a3
    3eac:	00178793          	addi	a5,a5,1
    3eb0:	00158593          	addi	a1,a1,1
    3eb4:	fe0612e3          	bnez	a2,3e98 <strncpy+0x10>
    3eb8:	00008067          	ret
    3ebc:	ffe60713          	addi	a4,a2,-2
    3ec0:	00170713          	addi	a4,a4,1
    3ec4:	00e78733          	add	a4,a5,a4
    3ec8:	02068063          	beqz	a3,3ee8 <strncpy+0x60>
    3ecc:	00178793          	addi	a5,a5,1
    3ed0:	fe078fa3          	sb	zero,-1(a5)
    3ed4:	fee79ce3          	bne	a5,a4,3ecc <strncpy+0x44>
    3ed8:	00008067          	ret
    3edc:	fff60713          	addi	a4,a2,-1
    3ee0:	00060693          	mv	a3,a2
    3ee4:	fddff06f          	j	3ec0 <strncpy+0x38>
    3ee8:	00008067          	ret

00003eec <strcat>:
    3eec:	00054783          	lbu	a5,0(a0)
    3ef0:	02078c63          	beqz	a5,3f28 <strcat+0x3c>
    3ef4:	00050793          	mv	a5,a0
    3ef8:	0017c703          	lbu	a4,1(a5)
    3efc:	00178793          	addi	a5,a5,1
    3f00:	fe071ce3          	bnez	a4,3ef8 <strcat+0xc>
    3f04:	0005c703          	lbu	a4,0(a1)
    3f08:	00070c63          	beqz	a4,3f20 <strcat+0x34>
    3f0c:	00178793          	addi	a5,a5,1
    3f10:	00158593          	addi	a1,a1,1
    3f14:	fee78fa3          	sb	a4,-1(a5)
    3f18:	0005c703          	lbu	a4,0(a1)
    3f1c:	fe0718e3          	bnez	a4,3f0c <strcat+0x20>
    3f20:	00078023          	sb	zero,0(a5)
    3f24:	00008067          	ret
    3f28:	00050793          	mv	a5,a0
    3f2c:	fedff06f          	j	3f18 <strcat+0x2c>

00003f30 <strncat>:
    3f30:	00054783          	lbu	a5,0(a0)
    3f34:	04078863          	beqz	a5,3f84 <strncat+0x54>
    3f38:	00050793          	mv	a5,a0
    3f3c:	0017c703          	lbu	a4,1(a5)
    3f40:	00178793          	addi	a5,a5,1
    3f44:	fe071ce3          	bnez	a4,3f3c <strncat+0xc>
    3f48:	0005c703          	lbu	a4,0(a1)
    3f4c:	02070663          	beqz	a4,3f78 <strncat+0x48>
    3f50:	00c78633          	add	a2,a5,a2
    3f54:	0140006f          	j	3f68 <strncat+0x38>
    3f58:	00e78023          	sb	a4,0(a5)
    3f5c:	0005c703          	lbu	a4,0(a1)
    3f60:	00178793          	addi	a5,a5,1
    3f64:	00070a63          	beqz	a4,3f78 <strncat+0x48>
    3f68:	00158593          	addi	a1,a1,1
    3f6c:	fef616e3          	bne	a2,a5,3f58 <strncat+0x28>
    3f70:	00060023          	sb	zero,0(a2)
    3f74:	00008067          	ret
    3f78:	00078613          	mv	a2,a5
    3f7c:	00060023          	sb	zero,0(a2)
    3f80:	00008067          	ret
    3f84:	00050793          	mv	a5,a0
    3f88:	fc1ff06f          	j	3f48 <strncat+0x18>

00003f8c <strcmp>:
    3f8c:	fff50513          	addi	a0,a0,-1
    3f90:	fff58593          	addi	a1,a1,-1
    3f94:	0080006f          	j	3f9c <strcmp+0x10>
    3f98:	02078463          	beqz	a5,3fc0 <strcmp+0x34>
    3f9c:	00154783          	lbu	a5,1(a0)
    3fa0:	0015c703          	lbu	a4,1(a1)
    3fa4:	00150513          	addi	a0,a0,1
    3fa8:	00158593          	addi	a1,a1,1
    3fac:	fee786e3          	beq	a5,a4,3f98 <strcmp+0xc>
    3fb0:	00100513          	li	a0,1
    3fb4:	00e7f463          	bgeu	a5,a4,3fbc <strcmp+0x30>
    3fb8:	fff00513          	li	a0,-1
    3fbc:	00008067          	ret
    3fc0:	00000513          	li	a0,0
    3fc4:	00008067          	ret

00003fc8 <strncmp>:
    3fc8:	fff60613          	addi	a2,a2,-1
    3fcc:	00c50633          	add	a2,a0,a2
    3fd0:	fff58593          	addi	a1,a1,-1
    3fd4:	0100006f          	j	3fe4 <strncmp+0x1c>
    3fd8:	02c50663          	beq	a0,a2,4004 <strncmp+0x3c>
    3fdc:	00150513          	addi	a0,a0,1
    3fe0:	02078263          	beqz	a5,4004 <strncmp+0x3c>
    3fe4:	00054783          	lbu	a5,0(a0)
    3fe8:	0015c703          	lbu	a4,1(a1)
    3fec:	00158593          	addi	a1,a1,1
    3ff0:	fee784e3          	beq	a5,a4,3fd8 <strncmp+0x10>
    3ff4:	00100513          	li	a0,1
    3ff8:	00e7f863          	bgeu	a5,a4,4008 <strncmp+0x40>
    3ffc:	fff00513          	li	a0,-1
    4000:	00008067          	ret
    4004:	00000513          	li	a0,0
    4008:	00008067          	ret

0000400c <clock>:
    400c:	b0002673          	csrr	a2,mcycle
    4010:	b80027f3          	csrr	a5,mcycleh
    4014:	00100737          	lui	a4,0x100
    4018:	00c79593          	slli	a1,a5,0xc
    401c:	01465693          	srli	a3,a2,0x14
    4020:	fff70713          	addi	a4,a4,-1 # fffff <__stack_top+0xf369f>
    4024:	00d5e6b3          	or	a3,a1,a3
    4028:	00e6f6b3          	and	a3,a3,a4
    402c:	00e67533          	and	a0,a2,a4
    4030:	0087d593          	srli	a1,a5,0x8
    4034:	00e5f733          	and	a4,a1,a4
    4038:	00d50533          	add	a0,a0,a3
    403c:	00e50533          	add	a0,a0,a4
    4040:	41f7d693          	srai	a3,a5,0x1f
    4044:	01c7d713          	srli	a4,a5,0x1c
    4048:	0216f593          	andi	a1,a3,33
    404c:	00e50533          	add	a0,a0,a4
    4050:	51eb8737          	lui	a4,0x51eb8
    4054:	00b50533          	add	a0,a0,a1
    4058:	51f70713          	addi	a4,a4,1311 # 51eb851f <__stack_top+0x51eabbbf>
    405c:	02e53733          	mulhu	a4,a0,a4
    4060:	fe86f893          	andi	a7,a3,-24
    4064:	c28f65b7          	lui	a1,0xc28f6
    4068:	8f5c3837          	lui	a6,0x8f5c3
    406c:	c2958593          	addi	a1,a1,-983 # c28f5c29 <__stack_top+0xc28e92c9>
    4070:	8f580813          	addi	a6,a6,-1803 # 8f5c28f5 <__stack_top+0x8f5b5f95>
    4074:	00375713          	srli	a4,a4,0x3
    4078:	00171693          	slli	a3,a4,0x1
    407c:	00e686b3          	add	a3,a3,a4
    4080:	00369693          	slli	a3,a3,0x3
    4084:	00e68733          	add	a4,a3,a4
    4088:	40e50533          	sub	a0,a0,a4
    408c:	01150533          	add	a0,a0,a7
    4090:	41f55713          	srai	a4,a0,0x1f
    4094:	40a60533          	sub	a0,a2,a0
    4098:	00a63633          	sltu	a2,a2,a0
    409c:	40e78733          	sub	a4,a5,a4
    40a0:	40c70733          	sub	a4,a4,a2
    40a4:	030507b3          	mul	a5,a0,a6
    40a8:	02b70733          	mul	a4,a4,a1
    40ac:	02b536b3          	mulhu	a3,a0,a1
    40b0:	00f70733          	add	a4,a4,a5
    40b4:	02b50533          	mul	a0,a0,a1
    40b8:	00d70733          	add	a4,a4,a3
    40bc:	01f75693          	srli	a3,a4,0x1f
    40c0:	00a687b3          	add	a5,a3,a0
    40c4:	00d7b533          	sltu	a0,a5,a3
    40c8:	00e50533          	add	a0,a0,a4
    40cc:	0017d793          	srli	a5,a5,0x1
    40d0:	01f51513          	slli	a0,a0,0x1f
    40d4:	00f56533          	or	a0,a0,a5
    40d8:	00008067          	ret

000040dc <inbyte>:
    40dc:	c0000737          	lui	a4,0xc0000
    40e0:	00870713          	addi	a4,a4,8 # c0000008 <__stack_top+0xbfff36a8>
    40e4:	c00006b7          	lui	a3,0xc0000
    40e8:	00072783          	lw	a5,0(a4)
    40ec:	0017f793          	andi	a5,a5,1
    40f0:	fe078ce3          	beqz	a5,40e8 <inbyte+0xc>
    40f4:	0006a503          	lw	a0,0(a3) # c0000000 <__stack_top+0xbfff36a0>
    40f8:	0ff57513          	zext.b	a0,a0
    40fc:	00008067          	ret

00004100 <outbyte>:
    4100:	00a00793          	li	a5,10
    4104:	02f50263          	beq	a0,a5,4128 <outbyte+0x28>
    4108:	c0000737          	lui	a4,0xc0000
    410c:	00870713          	addi	a4,a4,8 # c0000008 <__stack_top+0xbfff36a8>
    4110:	00072783          	lw	a5,0(a4)
    4114:	0087f793          	andi	a5,a5,8
    4118:	fe079ce3          	bnez	a5,4110 <outbyte+0x10>
    411c:	c00007b7          	lui	a5,0xc0000
    4120:	00a7a223          	sw	a0,4(a5) # c0000004 <__stack_top+0xbfff36a4>
    4124:	00008067          	ret
    4128:	c0000737          	lui	a4,0xc0000
    412c:	00870713          	addi	a4,a4,8 # c0000008 <__stack_top+0xbfff36a8>
    4130:	00072783          	lw	a5,0(a4)
    4134:	0087f793          	andi	a5,a5,8
    4138:	fe079ce3          	bnez	a5,4130 <outbyte+0x30>
    413c:	c00007b7          	lui	a5,0xc0000
    4140:	00d00713          	li	a4,13
    4144:	00e7a223          	sw	a4,4(a5) # c0000004 <__stack_top+0xbfff36a4>
    4148:	fc1ff06f          	j	4108 <outbyte+0x8>

0000414c <__udivdi3>:
    414c:	00050893          	mv	a7,a0
    4150:	00058313          	mv	t1,a1
    4154:	00060713          	mv	a4,a2
    4158:	00050813          	mv	a6,a0
    415c:	00058793          	mv	a5,a1
    4160:	28069263          	bnez	a3,43e4 <__udivdi3+0x298>
    4164:	000085b7          	lui	a1,0x8
    4168:	7e058593          	addi	a1,a1,2016 # 87e0 <__clz_tab>
    416c:	0ec37663          	bgeu	t1,a2,4258 <__udivdi3+0x10c>
    4170:	000106b7          	lui	a3,0x10
    4174:	0cd67863          	bgeu	a2,a3,4244 <__udivdi3+0xf8>
    4178:	10063693          	sltiu	a3,a2,256
    417c:	0016b693          	seqz	a3,a3
    4180:	00369693          	slli	a3,a3,0x3
    4184:	00d65533          	srl	a0,a2,a3
    4188:	00a585b3          	add	a1,a1,a0
    418c:	0005c583          	lbu	a1,0(a1)
    4190:	02000513          	li	a0,32
    4194:	00d586b3          	add	a3,a1,a3
    4198:	40d505b3          	sub	a1,a0,a3
    419c:	00d50c63          	beq	a0,a3,41b4 <__udivdi3+0x68>
    41a0:	00b317b3          	sll	a5,t1,a1
    41a4:	00d8d6b3          	srl	a3,a7,a3
    41a8:	00b61733          	sll	a4,a2,a1
    41ac:	00f6e7b3          	or	a5,a3,a5
    41b0:	00b89833          	sll	a6,a7,a1
    41b4:	01075593          	srli	a1,a4,0x10
    41b8:	02b7d333          	divu	t1,a5,a1
    41bc:	01071613          	slli	a2,a4,0x10
    41c0:	01065613          	srli	a2,a2,0x10
    41c4:	02b7f7b3          	remu	a5,a5,a1
    41c8:	00030513          	mv	a0,t1
    41cc:	026608b3          	mul	a7,a2,t1
    41d0:	01079693          	slli	a3,a5,0x10
    41d4:	01085793          	srli	a5,a6,0x10
    41d8:	00d7e7b3          	or	a5,a5,a3
    41dc:	0117fe63          	bgeu	a5,a7,41f8 <__udivdi3+0xac>
    41e0:	00f707b3          	add	a5,a4,a5
    41e4:	fff30513          	addi	a0,t1,-1
    41e8:	00e7e863          	bltu	a5,a4,41f8 <__udivdi3+0xac>
    41ec:	0117f663          	bgeu	a5,a7,41f8 <__udivdi3+0xac>
    41f0:	ffe30513          	addi	a0,t1,-2
    41f4:	00e787b3          	add	a5,a5,a4
    41f8:	411787b3          	sub	a5,a5,a7
    41fc:	02b7d8b3          	divu	a7,a5,a1
    4200:	01081813          	slli	a6,a6,0x10
    4204:	01085813          	srli	a6,a6,0x10
    4208:	02b7f7b3          	remu	a5,a5,a1
    420c:	031606b3          	mul	a3,a2,a7
    4210:	01079793          	slli	a5,a5,0x10
    4214:	00f86833          	or	a6,a6,a5
    4218:	00088793          	mv	a5,a7
    421c:	00d87c63          	bgeu	a6,a3,4234 <__udivdi3+0xe8>
    4220:	01070833          	add	a6,a4,a6
    4224:	fff88793          	addi	a5,a7,-1
    4228:	00e86663          	bltu	a6,a4,4234 <__udivdi3+0xe8>
    422c:	00d87463          	bgeu	a6,a3,4234 <__udivdi3+0xe8>
    4230:	ffe88793          	addi	a5,a7,-2
    4234:	01051513          	slli	a0,a0,0x10
    4238:	00f56533          	or	a0,a0,a5
    423c:	00000593          	li	a1,0
    4240:	00008067          	ret
    4244:	01000537          	lui	a0,0x1000
    4248:	01800693          	li	a3,24
    424c:	f2a67ce3          	bgeu	a2,a0,4184 <__udivdi3+0x38>
    4250:	01000693          	li	a3,16
    4254:	f31ff06f          	j	4184 <__udivdi3+0x38>
    4258:	00000693          	li	a3,0
    425c:	00060c63          	beqz	a2,4274 <__udivdi3+0x128>
    4260:	000107b7          	lui	a5,0x10
    4264:	0cf67063          	bgeu	a2,a5,4324 <__udivdi3+0x1d8>
    4268:	10063693          	sltiu	a3,a2,256
    426c:	0016b693          	seqz	a3,a3
    4270:	00369693          	slli	a3,a3,0x3
    4274:	00d657b3          	srl	a5,a2,a3
    4278:	00f585b3          	add	a1,a1,a5
    427c:	0005c783          	lbu	a5,0(a1)
    4280:	00d787b3          	add	a5,a5,a3
    4284:	02000693          	li	a3,32
    4288:	40f685b3          	sub	a1,a3,a5
    428c:	0af69663          	bne	a3,a5,4338 <__udivdi3+0x1ec>
    4290:	40c307b3          	sub	a5,t1,a2
    4294:	00100593          	li	a1,1
    4298:	01075893          	srli	a7,a4,0x10
    429c:	0317de33          	divu	t3,a5,a7
    42a0:	01071613          	slli	a2,a4,0x10
    42a4:	01065613          	srli	a2,a2,0x10
    42a8:	01085693          	srli	a3,a6,0x10
    42ac:	0317f7b3          	remu	a5,a5,a7
    42b0:	000e0513          	mv	a0,t3
    42b4:	03c60333          	mul	t1,a2,t3
    42b8:	01079793          	slli	a5,a5,0x10
    42bc:	00f6e7b3          	or	a5,a3,a5
    42c0:	0067fe63          	bgeu	a5,t1,42dc <__udivdi3+0x190>
    42c4:	00f707b3          	add	a5,a4,a5
    42c8:	fffe0513          	addi	a0,t3,-1
    42cc:	00e7e863          	bltu	a5,a4,42dc <__udivdi3+0x190>
    42d0:	0067f663          	bgeu	a5,t1,42dc <__udivdi3+0x190>
    42d4:	ffee0513          	addi	a0,t3,-2
    42d8:	00e787b3          	add	a5,a5,a4
    42dc:	406787b3          	sub	a5,a5,t1
    42e0:	0317d333          	divu	t1,a5,a7
    42e4:	01081813          	slli	a6,a6,0x10
    42e8:	01085813          	srli	a6,a6,0x10
    42ec:	0317f7b3          	remu	a5,a5,a7
    42f0:	026606b3          	mul	a3,a2,t1
    42f4:	01079793          	slli	a5,a5,0x10
    42f8:	00f86833          	or	a6,a6,a5
    42fc:	00030793          	mv	a5,t1
    4300:	00d87c63          	bgeu	a6,a3,4318 <__udivdi3+0x1cc>
    4304:	01070833          	add	a6,a4,a6
    4308:	fff30793          	addi	a5,t1,-1
    430c:	00e86663          	bltu	a6,a4,4318 <__udivdi3+0x1cc>
    4310:	00d87463          	bgeu	a6,a3,4318 <__udivdi3+0x1cc>
    4314:	ffe30793          	addi	a5,t1,-2
    4318:	01051513          	slli	a0,a0,0x10
    431c:	00f56533          	or	a0,a0,a5
    4320:	00008067          	ret
    4324:	010007b7          	lui	a5,0x1000
    4328:	01800693          	li	a3,24
    432c:	f4f674e3          	bgeu	a2,a5,4274 <__udivdi3+0x128>
    4330:	01000693          	li	a3,16
    4334:	f41ff06f          	j	4274 <__udivdi3+0x128>
    4338:	00b61733          	sll	a4,a2,a1
    433c:	00f356b3          	srl	a3,t1,a5
    4340:	01075513          	srli	a0,a4,0x10
    4344:	00b31333          	sll	t1,t1,a1
    4348:	00f8d7b3          	srl	a5,a7,a5
    434c:	0067e7b3          	or	a5,a5,t1
    4350:	02a6d333          	divu	t1,a3,a0
    4354:	01071613          	slli	a2,a4,0x10
    4358:	01065613          	srli	a2,a2,0x10
    435c:	00b89833          	sll	a6,a7,a1
    4360:	02a6f6b3          	remu	a3,a3,a0
    4364:	026608b3          	mul	a7,a2,t1
    4368:	01069593          	slli	a1,a3,0x10
    436c:	0107d693          	srli	a3,a5,0x10
    4370:	00b6e6b3          	or	a3,a3,a1
    4374:	00030593          	mv	a1,t1
    4378:	0116fe63          	bgeu	a3,a7,4394 <__udivdi3+0x248>
    437c:	00d706b3          	add	a3,a4,a3
    4380:	fff30593          	addi	a1,t1,-1
    4384:	00e6e863          	bltu	a3,a4,4394 <__udivdi3+0x248>
    4388:	0116f663          	bgeu	a3,a7,4394 <__udivdi3+0x248>
    438c:	ffe30593          	addi	a1,t1,-2
    4390:	00e686b3          	add	a3,a3,a4
    4394:	411686b3          	sub	a3,a3,a7
    4398:	02a6d8b3          	divu	a7,a3,a0
    439c:	01079793          	slli	a5,a5,0x10
    43a0:	0107d793          	srli	a5,a5,0x10
    43a4:	02a6f6b3          	remu	a3,a3,a0
    43a8:	03160633          	mul	a2,a2,a7
    43ac:	01069693          	slli	a3,a3,0x10
    43b0:	00d7e7b3          	or	a5,a5,a3
    43b4:	00088693          	mv	a3,a7
    43b8:	00c7fe63          	bgeu	a5,a2,43d4 <__udivdi3+0x288>
    43bc:	00f707b3          	add	a5,a4,a5
    43c0:	fff88693          	addi	a3,a7,-1
    43c4:	00e7e863          	bltu	a5,a4,43d4 <__udivdi3+0x288>
    43c8:	00c7f663          	bgeu	a5,a2,43d4 <__udivdi3+0x288>
    43cc:	ffe88693          	addi	a3,a7,-2
    43d0:	00e787b3          	add	a5,a5,a4
    43d4:	01059593          	slli	a1,a1,0x10
    43d8:	40c787b3          	sub	a5,a5,a2
    43dc:	00d5e5b3          	or	a1,a1,a3
    43e0:	eb9ff06f          	j	4298 <__udivdi3+0x14c>
    43e4:	18d5e463          	bltu	a1,a3,456c <__udivdi3+0x420>
    43e8:	000107b7          	lui	a5,0x10
    43ec:	04f6f463          	bgeu	a3,a5,4434 <__udivdi3+0x2e8>
    43f0:	1006b793          	sltiu	a5,a3,256
    43f4:	0017b793          	seqz	a5,a5
    43f8:	00379793          	slli	a5,a5,0x3
    43fc:	00008737          	lui	a4,0x8
    4400:	00f6d5b3          	srl	a1,a3,a5
    4404:	7e070713          	addi	a4,a4,2016 # 87e0 <__clz_tab>
    4408:	00b70733          	add	a4,a4,a1
    440c:	00074703          	lbu	a4,0(a4)
    4410:	00f70733          	add	a4,a4,a5
    4414:	02000793          	li	a5,32
    4418:	40e785b3          	sub	a1,a5,a4
    441c:	02e79663          	bne	a5,a4,4448 <__udivdi3+0x2fc>
    4420:	00100513          	li	a0,1
    4424:	e066eee3          	bltu	a3,t1,4240 <__udivdi3+0xf4>
    4428:	00c8b533          	sltu	a0,a7,a2
    442c:	00153513          	seqz	a0,a0
    4430:	00008067          	ret
    4434:	01000737          	lui	a4,0x1000
    4438:	01800793          	li	a5,24
    443c:	fce6f0e3          	bgeu	a3,a4,43fc <__udivdi3+0x2b0>
    4440:	01000793          	li	a5,16
    4444:	fb9ff06f          	j	43fc <__udivdi3+0x2b0>
    4448:	00e65533          	srl	a0,a2,a4
    444c:	00b696b3          	sll	a3,a3,a1
    4450:	00e357b3          	srl	a5,t1,a4
    4454:	00d56533          	or	a0,a0,a3
    4458:	00b31333          	sll	t1,t1,a1
    445c:	00e8d733          	srl	a4,a7,a4
    4460:	00676733          	or	a4,a4,t1
    4464:	01055313          	srli	t1,a0,0x10
    4468:	0267deb3          	divu	t4,a5,t1
    446c:	01051813          	slli	a6,a0,0x10
    4470:	01085813          	srli	a6,a6,0x10
    4474:	01075693          	srli	a3,a4,0x10
    4478:	00b61633          	sll	a2,a2,a1
    447c:	0267f7b3          	remu	a5,a5,t1
    4480:	03d80e33          	mul	t3,a6,t4
    4484:	01079793          	slli	a5,a5,0x10
    4488:	00f6e6b3          	or	a3,a3,a5
    448c:	000e8793          	mv	a5,t4
    4490:	01c6fe63          	bgeu	a3,t3,44ac <__udivdi3+0x360>
    4494:	00d506b3          	add	a3,a0,a3
    4498:	fffe8793          	addi	a5,t4,-1
    449c:	00a6e863          	bltu	a3,a0,44ac <__udivdi3+0x360>
    44a0:	01c6f663          	bgeu	a3,t3,44ac <__udivdi3+0x360>
    44a4:	ffee8793          	addi	a5,t4,-2
    44a8:	00a686b3          	add	a3,a3,a0
    44ac:	41c686b3          	sub	a3,a3,t3
    44b0:	0266de33          	divu	t3,a3,t1
    44b4:	01071713          	slli	a4,a4,0x10
    44b8:	01075713          	srli	a4,a4,0x10
    44bc:	0266f6b3          	remu	a3,a3,t1
    44c0:	03c80833          	mul	a6,a6,t3
    44c4:	01069693          	slli	a3,a3,0x10
    44c8:	00d76733          	or	a4,a4,a3
    44cc:	000e0693          	mv	a3,t3
    44d0:	01077e63          	bgeu	a4,a6,44ec <__udivdi3+0x3a0>
    44d4:	00e50733          	add	a4,a0,a4
    44d8:	fffe0693          	addi	a3,t3,-1
    44dc:	00a76863          	bltu	a4,a0,44ec <__udivdi3+0x3a0>
    44e0:	01077663          	bgeu	a4,a6,44ec <__udivdi3+0x3a0>
    44e4:	ffee0693          	addi	a3,t3,-2
    44e8:	00a70733          	add	a4,a4,a0
    44ec:	01079793          	slli	a5,a5,0x10
    44f0:	00d7e533          	or	a0,a5,a3
    44f4:	01061313          	slli	t1,a2,0x10
    44f8:	01069693          	slli	a3,a3,0x10
    44fc:	0106d693          	srli	a3,a3,0x10
    4500:	01035313          	srli	t1,t1,0x10
    4504:	01065613          	srli	a2,a2,0x10
    4508:	41070733          	sub	a4,a4,a6
    450c:	01055813          	srli	a6,a0,0x10
    4510:	02668e33          	mul	t3,a3,t1
    4514:	02680333          	mul	t1,a6,t1
    4518:	010e5793          	srli	a5,t3,0x10
    451c:	02c686b3          	mul	a3,a3,a2
    4520:	006686b3          	add	a3,a3,t1
    4524:	00d787b3          	add	a5,a5,a3
    4528:	02c80833          	mul	a6,a6,a2
    452c:	0067f663          	bgeu	a5,t1,4538 <__udivdi3+0x3ec>
    4530:	000106b7          	lui	a3,0x10
    4534:	00d80833          	add	a6,a6,a3
    4538:	0107d693          	srli	a3,a5,0x10
    453c:	010686b3          	add	a3,a3,a6
    4540:	02d76263          	bltu	a4,a3,4564 <__udivdi3+0x418>
    4544:	ced71ce3          	bne	a4,a3,423c <__udivdi3+0xf0>
    4548:	010e1e13          	slli	t3,t3,0x10
    454c:	01079793          	slli	a5,a5,0x10
    4550:	010e5e13          	srli	t3,t3,0x10
    4554:	00b898b3          	sll	a7,a7,a1
    4558:	01c787b3          	add	a5,a5,t3
    455c:	00000593          	li	a1,0
    4560:	cef8f0e3          	bgeu	a7,a5,4240 <__udivdi3+0xf4>
    4564:	fff50513          	addi	a0,a0,-1 # ffffff <__stack_top+0xff369f>
    4568:	cd5ff06f          	j	423c <__udivdi3+0xf0>
    456c:	00000593          	li	a1,0
    4570:	00000513          	li	a0,0
    4574:	00008067          	ret

00004578 <__adddf3>:
    4578:	00100837          	lui	a6,0x100
    457c:	fff80813          	addi	a6,a6,-1 # fffff <__stack_top+0xf369f>
    4580:	fe010113          	addi	sp,sp,-32
    4584:	00b878b3          	and	a7,a6,a1
    4588:	0145d713          	srli	a4,a1,0x14
    458c:	00d87833          	and	a6,a6,a3
    4590:	01412423          	sw	s4,8(sp)
    4594:	7ff77a13          	andi	s4,a4,2047
    4598:	00389713          	slli	a4,a7,0x3
    459c:	0146d893          	srli	a7,a3,0x14
    45a0:	01d55793          	srli	a5,a0,0x1d
    45a4:	00381813          	slli	a6,a6,0x3
    45a8:	01312623          	sw	s3,12(sp)
    45ac:	7ff8f893          	andi	a7,a7,2047
    45b0:	01f5d993          	srli	s3,a1,0x1f
    45b4:	00112e23          	sw	ra,28(sp)
    45b8:	01d65593          	srli	a1,a2,0x1d
    45bc:	00812c23          	sw	s0,24(sp)
    45c0:	00912a23          	sw	s1,20(sp)
    45c4:	01212823          	sw	s2,16(sp)
    45c8:	01512223          	sw	s5,4(sp)
    45cc:	01f6d693          	srli	a3,a3,0x1f
    45d0:	0105e5b3          	or	a1,a1,a6
    45d4:	00e7e7b3          	or	a5,a5,a4
    45d8:	00351513          	slli	a0,a0,0x3
    45dc:	00361613          	slli	a2,a2,0x3
    45e0:	411a0833          	sub	a6,s4,a7
    45e4:	7ff00313          	li	t1,2047
    45e8:	32d99863          	bne	s3,a3,4918 <__adddf3+0x3a0>
    45ec:	17005e63          	blez	a6,4768 <__adddf3+0x1f0>
    45f0:	0a089863          	bnez	a7,46a0 <__adddf3+0x128>
    45f4:	00c5e733          	or	a4,a1,a2
    45f8:	02070663          	beqz	a4,4624 <__adddf3+0xac>
    45fc:	fffa0813          	addi	a6,s4,-1
    4600:	02081063          	bnez	a6,4620 <__adddf3+0xa8>
    4604:	00c50633          	add	a2,a0,a2
    4608:	00a63733          	sltu	a4,a2,a0
    460c:	00b785b3          	add	a1,a5,a1
    4610:	00060513          	mv	a0,a2
    4614:	00e587b3          	add	a5,a1,a4
    4618:	00100a13          	li	s4,1
    461c:	0d40006f          	j	46f0 <__adddf3+0x178>
    4620:	086a1663          	bne	s4,t1,46ac <__adddf3+0x134>
    4624:	01d79693          	slli	a3,a5,0x1d
    4628:	00355513          	srli	a0,a0,0x3
    462c:	7ff00713          	li	a4,2047
    4630:	00a6e6b3          	or	a3,a3,a0
    4634:	0037d793          	srli	a5,a5,0x3
    4638:	00ea1e63          	bne	s4,a4,4654 <__adddf3+0xdc>
    463c:	00f6e6b3          	or	a3,a3,a5
    4640:	00000793          	li	a5,0
    4644:	00068863          	beqz	a3,4654 <__adddf3+0xdc>
    4648:	000807b7          	lui	a5,0x80
    464c:	00000693          	li	a3,0
    4650:	00000993          	li	s3,0
    4654:	014a1713          	slli	a4,s4,0x14
    4658:	7ff00637          	lui	a2,0x7ff00
    465c:	00c79793          	slli	a5,a5,0xc
    4660:	00c77733          	and	a4,a4,a2
    4664:	01c12083          	lw	ra,28(sp)
    4668:	01812403          	lw	s0,24(sp)
    466c:	00c7d793          	srli	a5,a5,0xc
    4670:	00f767b3          	or	a5,a4,a5
    4674:	01f99713          	slli	a4,s3,0x1f
    4678:	00e7e633          	or	a2,a5,a4
    467c:	01412483          	lw	s1,20(sp)
    4680:	01012903          	lw	s2,16(sp)
    4684:	00c12983          	lw	s3,12(sp)
    4688:	00812a03          	lw	s4,8(sp)
    468c:	00412a83          	lw	s5,4(sp)
    4690:	00068513          	mv	a0,a3
    4694:	00060593          	mv	a1,a2
    4698:	02010113          	addi	sp,sp,32
    469c:	00008067          	ret
    46a0:	f86a02e3          	beq	s4,t1,4624 <__adddf3+0xac>
    46a4:	00800737          	lui	a4,0x800
    46a8:	00e5e5b3          	or	a1,a1,a4
    46ac:	03800713          	li	a4,56
    46b0:	0b074663          	blt	a4,a6,475c <__adddf3+0x1e4>
    46b4:	01f00713          	li	a4,31
    46b8:	02000893          	li	a7,32
    46bc:	07074863          	blt	a4,a6,472c <__adddf3+0x1b4>
    46c0:	410888b3          	sub	a7,a7,a6
    46c4:	01159733          	sll	a4,a1,a7
    46c8:	010656b3          	srl	a3,a2,a6
    46cc:	011618b3          	sll	a7,a2,a7
    46d0:	00d76733          	or	a4,a4,a3
    46d4:	011038b3          	snez	a7,a7
    46d8:	01176733          	or	a4,a4,a7
    46dc:	0105d833          	srl	a6,a1,a6
    46e0:	00a70533          	add	a0,a4,a0
    46e4:	00f80833          	add	a6,a6,a5
    46e8:	00e53733          	sltu	a4,a0,a4
    46ec:	00e807b3          	add	a5,a6,a4
    46f0:	00879713          	slli	a4,a5,0x8
    46f4:	1c075e63          	bgez	a4,48d0 <__adddf3+0x358>
    46f8:	001a0a13          	addi	s4,s4,1
    46fc:	7ff00713          	li	a4,2047
    4700:	5cea0863          	beq	s4,a4,4cd0 <__adddf3+0x758>
    4704:	ff800737          	lui	a4,0xff800
    4708:	fff70713          	addi	a4,a4,-1 # ff7fffff <__stack_top+0xff7f369f>
    470c:	00e7f7b3          	and	a5,a5,a4
    4710:	00155713          	srli	a4,a0,0x1
    4714:	00157513          	andi	a0,a0,1
    4718:	00a76733          	or	a4,a4,a0
    471c:	01f79513          	slli	a0,a5,0x1f
    4720:	00e56533          	or	a0,a0,a4
    4724:	0017d793          	srli	a5,a5,0x1
    4728:	1a80006f          	j	48d0 <__adddf3+0x358>
    472c:	fe080713          	addi	a4,a6,-32
    4730:	00e5d733          	srl	a4,a1,a4
    4734:	00000693          	li	a3,0
    4738:	01180863          	beq	a6,a7,4748 <__adddf3+0x1d0>
    473c:	04000693          	li	a3,64
    4740:	410686b3          	sub	a3,a3,a6
    4744:	00d596b3          	sll	a3,a1,a3
    4748:	00c6e6b3          	or	a3,a3,a2
    474c:	00d036b3          	snez	a3,a3
    4750:	00d76733          	or	a4,a4,a3
    4754:	00000813          	li	a6,0
    4758:	f89ff06f          	j	46e0 <__adddf3+0x168>
    475c:	00c5e733          	or	a4,a1,a2
    4760:	00e03733          	snez	a4,a4
    4764:	ff1ff06f          	j	4754 <__adddf3+0x1dc>
    4768:	0c080663          	beqz	a6,4834 <__adddf3+0x2bc>
    476c:	41488733          	sub	a4,a7,s4
    4770:	020a1463          	bnez	s4,4798 <__adddf3+0x220>
    4774:	00a7e6b3          	or	a3,a5,a0
    4778:	00068863          	beqz	a3,4788 <__adddf3+0x210>
    477c:	fff70693          	addi	a3,a4,-1
    4780:	e80682e3          	beqz	a3,4604 <__adddf3+0x8c>
    4784:	02671263          	bne	a4,t1,47a8 <__adddf3+0x230>
    4788:	00058793          	mv	a5,a1
    478c:	00060513          	mv	a0,a2
    4790:	00070a13          	mv	s4,a4
    4794:	e91ff06f          	j	4624 <__adddf3+0xac>
    4798:	54688263          	beq	a7,t1,4cdc <__adddf3+0x764>
    479c:	008006b7          	lui	a3,0x800
    47a0:	00d7e7b3          	or	a5,a5,a3
    47a4:	00070693          	mv	a3,a4
    47a8:	03800713          	li	a4,56
    47ac:	06d74e63          	blt	a4,a3,4828 <__adddf3+0x2b0>
    47b0:	01f00713          	li	a4,31
    47b4:	02000313          	li	t1,32
    47b8:	04d74063          	blt	a4,a3,47f8 <__adddf3+0x280>
    47bc:	40d30333          	sub	t1,t1,a3
    47c0:	00679733          	sll	a4,a5,t1
    47c4:	00d55833          	srl	a6,a0,a3
    47c8:	00651333          	sll	t1,a0,t1
    47cc:	01076733          	or	a4,a4,a6
    47d0:	00603333          	snez	t1,t1
    47d4:	00676733          	or	a4,a4,t1
    47d8:	00d7d6b3          	srl	a3,a5,a3
    47dc:	00c70633          	add	a2,a4,a2
    47e0:	00b686b3          	add	a3,a3,a1
    47e4:	00e63733          	sltu	a4,a2,a4
    47e8:	00060513          	mv	a0,a2
    47ec:	00e687b3          	add	a5,a3,a4
    47f0:	00088a13          	mv	s4,a7
    47f4:	efdff06f          	j	46f0 <__adddf3+0x178>
    47f8:	fe068713          	addi	a4,a3,-32 # 7fffe0 <__stack_top+0x7f3680>
    47fc:	00e7d733          	srl	a4,a5,a4
    4800:	00000813          	li	a6,0
    4804:	00668863          	beq	a3,t1,4814 <__adddf3+0x29c>
    4808:	04000813          	li	a6,64
    480c:	40d80833          	sub	a6,a6,a3
    4810:	01079833          	sll	a6,a5,a6
    4814:	00a86833          	or	a6,a6,a0
    4818:	01003833          	snez	a6,a6
    481c:	01076733          	or	a4,a4,a6
    4820:	00000693          	li	a3,0
    4824:	fb9ff06f          	j	47dc <__adddf3+0x264>
    4828:	00a7e733          	or	a4,a5,a0
    482c:	00e03733          	snez	a4,a4
    4830:	ff1ff06f          	j	4820 <__adddf3+0x2a8>
    4834:	001a0713          	addi	a4,s4,1
    4838:	7fe77693          	andi	a3,a4,2046
    483c:	06069663          	bnez	a3,48a8 <__adddf3+0x330>
    4840:	00a7e733          	or	a4,a5,a0
    4844:	040a1263          	bnez	s4,4888 <__adddf3+0x310>
    4848:	46070263          	beqz	a4,4cac <__adddf3+0x734>
    484c:	00c5e733          	or	a4,a1,a2
    4850:	46070263          	beqz	a4,4cb4 <__adddf3+0x73c>
    4854:	00c50733          	add	a4,a0,a2
    4858:	00b785b3          	add	a1,a5,a1
    485c:	00a737b3          	sltu	a5,a4,a0
    4860:	00f587b3          	add	a5,a1,a5
    4864:	00879693          	slli	a3,a5,0x8
    4868:	00070613          	mv	a2,a4
    486c:	2c06de63          	bgez	a3,4b48 <__adddf3+0x5d0>
    4870:	ff8006b7          	lui	a3,0xff800
    4874:	fff68693          	addi	a3,a3,-1 # ff7fffff <__stack_top+0xff7f369f>
    4878:	00d7f7b3          	and	a5,a5,a3
    487c:	00070513          	mv	a0,a4
    4880:	00100a13          	li	s4,1
    4884:	da1ff06f          	j	4624 <__adddf3+0xac>
    4888:	42070a63          	beqz	a4,4cbc <__adddf3+0x744>
    488c:	00c5e633          	or	a2,a1,a2
    4890:	00030a13          	mv	s4,t1
    4894:	d80608e3          	beqz	a2,4624 <__adddf3+0xac>
    4898:	00000993          	li	s3,0
    489c:	004007b7          	lui	a5,0x400
    48a0:	00000513          	li	a0,0
    48a4:	d81ff06f          	j	4624 <__adddf3+0xac>
    48a8:	42670263          	beq	a4,t1,4ccc <__adddf3+0x754>
    48ac:	00c50633          	add	a2,a0,a2
    48b0:	00a63533          	sltu	a0,a2,a0
    48b4:	00b785b3          	add	a1,a5,a1
    48b8:	00a585b3          	add	a1,a1,a0
    48bc:	01f59513          	slli	a0,a1,0x1f
    48c0:	00165613          	srli	a2,a2,0x1
    48c4:	00c56533          	or	a0,a0,a2
    48c8:	0015d793          	srli	a5,a1,0x1
    48cc:	00070a13          	mv	s4,a4
    48d0:	00757713          	andi	a4,a0,7
    48d4:	02070063          	beqz	a4,48f4 <__adddf3+0x37c>
    48d8:	00f57713          	andi	a4,a0,15
    48dc:	00400693          	li	a3,4
    48e0:	00d70a63          	beq	a4,a3,48f4 <__adddf3+0x37c>
    48e4:	00d50733          	add	a4,a0,a3
    48e8:	00a736b3          	sltu	a3,a4,a0
    48ec:	00d787b3          	add	a5,a5,a3
    48f0:	00070513          	mv	a0,a4
    48f4:	00879713          	slli	a4,a5,0x8
    48f8:	d20756e3          	bgez	a4,4624 <__adddf3+0xac>
    48fc:	001a0a13          	addi	s4,s4,1
    4900:	7ff00713          	li	a4,2047
    4904:	3cea0663          	beq	s4,a4,4cd0 <__adddf3+0x758>
    4908:	ff800737          	lui	a4,0xff800
    490c:	fff70713          	addi	a4,a4,-1 # ff7fffff <__stack_top+0xff7f369f>
    4910:	00e7f7b3          	and	a5,a5,a4
    4914:	d11ff06f          	j	4624 <__adddf3+0xac>
    4918:	0f005463          	blez	a6,4a00 <__adddf3+0x488>
    491c:	08089c63          	bnez	a7,49b4 <__adddf3+0x43c>
    4920:	00c5e733          	or	a4,a1,a2
    4924:	d00700e3          	beqz	a4,4624 <__adddf3+0xac>
    4928:	fffa0813          	addi	a6,s4,-1
    492c:	02081063          	bnez	a6,494c <__adddf3+0x3d4>
    4930:	40c50633          	sub	a2,a0,a2
    4934:	00c53733          	sltu	a4,a0,a2
    4938:	40b785b3          	sub	a1,a5,a1
    493c:	00060513          	mv	a0,a2
    4940:	40e587b3          	sub	a5,a1,a4
    4944:	00100a13          	li	s4,1
    4948:	0500006f          	j	4998 <__adddf3+0x420>
    494c:	cc6a0ce3          	beq	s4,t1,4624 <__adddf3+0xac>
    4950:	03800713          	li	a4,56
    4954:	0b074063          	blt	a4,a6,49f4 <__adddf3+0x47c>
    4958:	01f00713          	li	a4,31
    495c:	02000893          	li	a7,32
    4960:	07074263          	blt	a4,a6,49c4 <__adddf3+0x44c>
    4964:	410888b3          	sub	a7,a7,a6
    4968:	01159733          	sll	a4,a1,a7
    496c:	010656b3          	srl	a3,a2,a6
    4970:	011618b3          	sll	a7,a2,a7
    4974:	00d76733          	or	a4,a4,a3
    4978:	011038b3          	snez	a7,a7
    497c:	01176733          	or	a4,a4,a7
    4980:	0105d833          	srl	a6,a1,a6
    4984:	40e50733          	sub	a4,a0,a4
    4988:	00e536b3          	sltu	a3,a0,a4
    498c:	41078833          	sub	a6,a5,a6
    4990:	00070513          	mv	a0,a4
    4994:	40d807b3          	sub	a5,a6,a3
    4998:	00879713          	slli	a4,a5,0x8
    499c:	f2075ae3          	bgez	a4,48d0 <__adddf3+0x358>
    49a0:	00800937          	lui	s2,0x800
    49a4:	fff90913          	addi	s2,s2,-1 # 7fffff <__stack_top+0x7f369f>
    49a8:	0127f933          	and	s2,a5,s2
    49ac:	00050a93          	mv	s5,a0
    49b0:	2180006f          	j	4bc8 <__adddf3+0x650>
    49b4:	c66a08e3          	beq	s4,t1,4624 <__adddf3+0xac>
    49b8:	00800737          	lui	a4,0x800
    49bc:	00e5e5b3          	or	a1,a1,a4
    49c0:	f91ff06f          	j	4950 <__adddf3+0x3d8>
    49c4:	fe080713          	addi	a4,a6,-32
    49c8:	00e5d733          	srl	a4,a1,a4
    49cc:	00000693          	li	a3,0
    49d0:	01180863          	beq	a6,a7,49e0 <__adddf3+0x468>
    49d4:	04000693          	li	a3,64
    49d8:	410686b3          	sub	a3,a3,a6
    49dc:	00d596b3          	sll	a3,a1,a3
    49e0:	00c6e6b3          	or	a3,a3,a2
    49e4:	00d036b3          	snez	a3,a3
    49e8:	00d76733          	or	a4,a4,a3
    49ec:	00000813          	li	a6,0
    49f0:	f95ff06f          	j	4984 <__adddf3+0x40c>
    49f4:	00c5e733          	or	a4,a1,a2
    49f8:	00e03733          	snez	a4,a4
    49fc:	ff1ff06f          	j	49ec <__adddf3+0x474>
    4a00:	0e080463          	beqz	a6,4ae8 <__adddf3+0x570>
    4a04:	41488833          	sub	a6,a7,s4
    4a08:	040a1263          	bnez	s4,4a4c <__adddf3+0x4d4>
    4a0c:	00a7e733          	or	a4,a5,a0
    4a10:	02070463          	beqz	a4,4a38 <__adddf3+0x4c0>
    4a14:	fff80713          	addi	a4,a6,-1
    4a18:	00071e63          	bnez	a4,4a34 <__adddf3+0x4bc>
    4a1c:	40a60533          	sub	a0,a2,a0
    4a20:	40f585b3          	sub	a1,a1,a5
    4a24:	00a63633          	sltu	a2,a2,a0
    4a28:	40c587b3          	sub	a5,a1,a2
    4a2c:	00068993          	mv	s3,a3
    4a30:	f15ff06f          	j	4944 <__adddf3+0x3cc>
    4a34:	02681463          	bne	a6,t1,4a5c <__adddf3+0x4e4>
    4a38:	00068993          	mv	s3,a3
    4a3c:	00058793          	mv	a5,a1
    4a40:	00060513          	mv	a0,a2
    4a44:	00080a13          	mv	s4,a6
    4a48:	bddff06f          	j	4624 <__adddf3+0xac>
    4a4c:	28688663          	beq	a7,t1,4cd8 <__adddf3+0x760>
    4a50:	00800737          	lui	a4,0x800
    4a54:	00e7e7b3          	or	a5,a5,a4
    4a58:	00080713          	mv	a4,a6
    4a5c:	03800813          	li	a6,56
    4a60:	06e84e63          	blt	a6,a4,4adc <__adddf3+0x564>
    4a64:	01f00813          	li	a6,31
    4a68:	02000e13          	li	t3,32
    4a6c:	04e84063          	blt	a6,a4,4aac <__adddf3+0x534>
    4a70:	40ee0e33          	sub	t3,t3,a4
    4a74:	00e55333          	srl	t1,a0,a4
    4a78:	01c79833          	sll	a6,a5,t3
    4a7c:	01c51e33          	sll	t3,a0,t3
    4a80:	00686833          	or	a6,a6,t1
    4a84:	01c03e33          	snez	t3,t3
    4a88:	01c86533          	or	a0,a6,t3
    4a8c:	00e7d733          	srl	a4,a5,a4
    4a90:	40a60533          	sub	a0,a2,a0
    4a94:	40e58733          	sub	a4,a1,a4
    4a98:	00a63633          	sltu	a2,a2,a0
    4a9c:	40c707b3          	sub	a5,a4,a2
    4aa0:	00088a13          	mv	s4,a7
    4aa4:	00068993          	mv	s3,a3
    4aa8:	ef1ff06f          	j	4998 <__adddf3+0x420>
    4aac:	fe070813          	addi	a6,a4,-32 # 7fffe0 <__stack_top+0x7f3680>
    4ab0:	0107d833          	srl	a6,a5,a6
    4ab4:	00000313          	li	t1,0
    4ab8:	01c70863          	beq	a4,t3,4ac8 <__adddf3+0x550>
    4abc:	04000313          	li	t1,64
    4ac0:	40e30333          	sub	t1,t1,a4
    4ac4:	00679333          	sll	t1,a5,t1
    4ac8:	00a36333          	or	t1,t1,a0
    4acc:	00603333          	snez	t1,t1
    4ad0:	00686533          	or	a0,a6,t1
    4ad4:	00000713          	li	a4,0
    4ad8:	fb9ff06f          	j	4a90 <__adddf3+0x518>
    4adc:	00a7e533          	or	a0,a5,a0
    4ae0:	00a03533          	snez	a0,a0
    4ae4:	ff1ff06f          	j	4ad4 <__adddf3+0x55c>
    4ae8:	001a0713          	addi	a4,s4,1
    4aec:	7fe77713          	andi	a4,a4,2046
    4af0:	0a071463          	bnez	a4,4b98 <__adddf3+0x620>
    4af4:	00a7e833          	or	a6,a5,a0
    4af8:	00c5e733          	or	a4,a1,a2
    4afc:	060a1a63          	bnez	s4,4b70 <__adddf3+0x5f8>
    4b00:	00081a63          	bnez	a6,4b14 <__adddf3+0x59c>
    4b04:	00058793          	mv	a5,a1
    4b08:	02071e63          	bnez	a4,4b44 <__adddf3+0x5cc>
    4b0c:	00000993          	li	s3,0
    4b10:	1c00006f          	j	4cd0 <__adddf3+0x758>
    4b14:	1a070063          	beqz	a4,4cb4 <__adddf3+0x73c>
    4b18:	40c50833          	sub	a6,a0,a2
    4b1c:	010538b3          	sltu	a7,a0,a6
    4b20:	40b78733          	sub	a4,a5,a1
    4b24:	41170733          	sub	a4,a4,a7
    4b28:	00871893          	slli	a7,a4,0x8
    4b2c:	0208d863          	bgez	a7,4b5c <__adddf3+0x5e4>
    4b30:	40a60533          	sub	a0,a2,a0
    4b34:	00a63733          	sltu	a4,a2,a0
    4b38:	40f585b3          	sub	a1,a1,a5
    4b3c:	00050613          	mv	a2,a0
    4b40:	40e587b3          	sub	a5,a1,a4
    4b44:	00068993          	mv	s3,a3
    4b48:	00c7e533          	or	a0,a5,a2
    4b4c:	0e050663          	beqz	a0,4c38 <__adddf3+0x6c0>
    4b50:	00060513          	mv	a0,a2
    4b54:	00000a13          	li	s4,0
    4b58:	d79ff06f          	j	48d0 <__adddf3+0x358>
    4b5c:	00e86533          	or	a0,a6,a4
    4b60:	18050663          	beqz	a0,4cec <__adddf3+0x774>
    4b64:	00070793          	mv	a5,a4
    4b68:	00080613          	mv	a2,a6
    4b6c:	fddff06f          	j	4b48 <__adddf3+0x5d0>
    4b70:	00081e63          	bnez	a6,4b8c <__adddf3+0x614>
    4b74:	00068993          	mv	s3,a3
    4b78:	14071263          	bnez	a4,4cbc <__adddf3+0x744>
    4b7c:	00000993          	li	s3,0
    4b80:	004007b7          	lui	a5,0x400
    4b84:	00000513          	li	a0,0
    4b88:	13c0006f          	j	4cc4 <__adddf3+0x74c>
    4b8c:	00030a13          	mv	s4,t1
    4b90:	a8070ae3          	beqz	a4,4624 <__adddf3+0xac>
    4b94:	d05ff06f          	j	4898 <__adddf3+0x320>
    4b98:	40c50733          	sub	a4,a0,a2
    4b9c:	00e53833          	sltu	a6,a0,a4
    4ba0:	40b78933          	sub	s2,a5,a1
    4ba4:	41090933          	sub	s2,s2,a6
    4ba8:	00891813          	slli	a6,s2,0x8
    4bac:	00070a93          	mv	s5,a4
    4bb0:	06085e63          	bgez	a6,4c2c <__adddf3+0x6b4>
    4bb4:	40a60ab3          	sub	s5,a2,a0
    4bb8:	40f58933          	sub	s2,a1,a5
    4bbc:	01563633          	sltu	a2,a2,s5
    4bc0:	40c90933          	sub	s2,s2,a2
    4bc4:	00068993          	mv	s3,a3
    4bc8:	06090e63          	beqz	s2,4c44 <__adddf3+0x6cc>
    4bcc:	00090513          	mv	a0,s2
    4bd0:	0f5010ef          	jal	64c4 <__clzsi2>
    4bd4:	ff850613          	addi	a2,a0,-8
    4bd8:	02000793          	li	a5,32
    4bdc:	40c787b3          	sub	a5,a5,a2
    4be0:	00c91933          	sll	s2,s2,a2
    4be4:	00fad7b3          	srl	a5,s5,a5
    4be8:	0127e7b3          	or	a5,a5,s2
    4bec:	00ca9933          	sll	s2,s5,a2
    4bf0:	0b464263          	blt	a2,s4,4c94 <__adddf3+0x71c>
    4bf4:	41460633          	sub	a2,a2,s4
    4bf8:	00160593          	addi	a1,a2,1 # 7ff00001 <__stack_top+0x7fef36a1>
    4bfc:	01f00713          	li	a4,31
    4c00:	02000693          	li	a3,32
    4c04:	06b74063          	blt	a4,a1,4c64 <__adddf3+0x6ec>
    4c08:	40b686b3          	sub	a3,a3,a1
    4c0c:	00d79633          	sll	a2,a5,a3
    4c10:	00b95733          	srl	a4,s2,a1
    4c14:	00d916b3          	sll	a3,s2,a3
    4c18:	00e66633          	or	a2,a2,a4
    4c1c:	00d036b3          	snez	a3,a3
    4c20:	00d66633          	or	a2,a2,a3
    4c24:	00b7d7b3          	srl	a5,a5,a1
    4c28:	f21ff06f          	j	4b48 <__adddf3+0x5d0>
    4c2c:	01276533          	or	a0,a4,s2
    4c30:	f8051ce3          	bnez	a0,4bc8 <__adddf3+0x650>
    4c34:	00000993          	li	s3,0
    4c38:	00000793          	li	a5,0
    4c3c:	00000a13          	li	s4,0
    4c40:	9e5ff06f          	j	4624 <__adddf3+0xac>
    4c44:	000a8513          	mv	a0,s5
    4c48:	07d010ef          	jal	64c4 <__clzsi2>
    4c4c:	01850613          	addi	a2,a0,24
    4c50:	01f00793          	li	a5,31
    4c54:	f8c7d2e3          	bge	a5,a2,4bd8 <__adddf3+0x660>
    4c58:	ff850793          	addi	a5,a0,-8
    4c5c:	00fa97b3          	sll	a5,s5,a5
    4c60:	f91ff06f          	j	4bf0 <__adddf3+0x678>
    4c64:	fe160613          	addi	a2,a2,-31
    4c68:	00c7d633          	srl	a2,a5,a2
    4c6c:	00000713          	li	a4,0
    4c70:	00d58863          	beq	a1,a3,4c80 <__adddf3+0x708>
    4c74:	04000713          	li	a4,64
    4c78:	40b70733          	sub	a4,a4,a1
    4c7c:	00e79733          	sll	a4,a5,a4
    4c80:	00e96733          	or	a4,s2,a4
    4c84:	00e03733          	snez	a4,a4
    4c88:	00e66633          	or	a2,a2,a4
    4c8c:	00000793          	li	a5,0
    4c90:	eb9ff06f          	j	4b48 <__adddf3+0x5d0>
    4c94:	ff800737          	lui	a4,0xff800
    4c98:	fff70713          	addi	a4,a4,-1 # ff7fffff <__stack_top+0xff7f369f>
    4c9c:	40ca0a33          	sub	s4,s4,a2
    4ca0:	00e7f7b3          	and	a5,a5,a4
    4ca4:	00090513          	mv	a0,s2
    4ca8:	c29ff06f          	j	48d0 <__adddf3+0x358>
    4cac:	00058793          	mv	a5,a1
    4cb0:	e99ff06f          	j	4b48 <__adddf3+0x5d0>
    4cb4:	00050613          	mv	a2,a0
    4cb8:	e91ff06f          	j	4b48 <__adddf3+0x5d0>
    4cbc:	00058793          	mv	a5,a1
    4cc0:	00060513          	mv	a0,a2
    4cc4:	00030a13          	mv	s4,t1
    4cc8:	95dff06f          	j	4624 <__adddf3+0xac>
    4ccc:	00070a13          	mv	s4,a4
    4cd0:	00000793          	li	a5,0
    4cd4:	bcdff06f          	j	48a0 <__adddf3+0x328>
    4cd8:	00068993          	mv	s3,a3
    4cdc:	00058793          	mv	a5,a1
    4ce0:	00060513          	mv	a0,a2
    4ce4:	00088a13          	mv	s4,a7
    4ce8:	93dff06f          	j	4624 <__adddf3+0xac>
    4cec:	00000993          	li	s3,0
    4cf0:	00000793          	li	a5,0
    4cf4:	931ff06f          	j	4624 <__adddf3+0xac>

00004cf8 <__divdf3>:
    4cf8:	fd010113          	addi	sp,sp,-48
    4cfc:	01812423          	sw	s8,8(sp)
    4d00:	0145dc13          	srli	s8,a1,0x14
    4d04:	02812423          	sw	s0,40(sp)
    4d08:	01412c23          	sw	s4,24(sp)
    4d0c:	01512a23          	sw	s5,20(sp)
    4d10:	01712623          	sw	s7,12(sp)
    4d14:	01912223          	sw	s9,4(sp)
    4d18:	00c59413          	slli	s0,a1,0xc
    4d1c:	02112623          	sw	ra,44(sp)
    4d20:	02912223          	sw	s1,36(sp)
    4d24:	03212023          	sw	s2,32(sp)
    4d28:	01312e23          	sw	s3,28(sp)
    4d2c:	01612823          	sw	s6,16(sp)
    4d30:	7ffc7713          	andi	a4,s8,2047
    4d34:	00050b93          	mv	s7,a0
    4d38:	00060c93          	mv	s9,a2
    4d3c:	00068a93          	mv	s5,a3
    4d40:	00c45413          	srli	s0,s0,0xc
    4d44:	01f5da13          	srli	s4,a1,0x1f
    4d48:	0a070063          	beqz	a4,4de8 <__divdf3+0xf0>
    4d4c:	7ff00793          	li	a5,2047
    4d50:	10f70063          	beq	a4,a5,4e50 <__divdf3+0x158>
    4d54:	01d55b13          	srli	s6,a0,0x1d
    4d58:	00341413          	slli	s0,s0,0x3
    4d5c:	008b6b33          	or	s6,s6,s0
    4d60:	008007b7          	lui	a5,0x800
    4d64:	00fb6b33          	or	s6,s6,a5
    4d68:	00351493          	slli	s1,a0,0x3
    4d6c:	c0170c13          	addi	s8,a4,-1023
    4d70:	00000b93          	li	s7,0
    4d74:	014ad693          	srli	a3,s5,0x14
    4d78:	00ca9413          	slli	s0,s5,0xc
    4d7c:	7ff6f693          	andi	a3,a3,2047
    4d80:	00c45413          	srli	s0,s0,0xc
    4d84:	01fada93          	srli	s5,s5,0x1f
    4d88:	10068263          	beqz	a3,4e8c <__divdf3+0x194>
    4d8c:	7ff00793          	li	a5,2047
    4d90:	16f68663          	beq	a3,a5,4efc <__divdf3+0x204>
    4d94:	00341413          	slli	s0,s0,0x3
    4d98:	01dcd793          	srli	a5,s9,0x1d
    4d9c:	0087e7b3          	or	a5,a5,s0
    4da0:	00800437          	lui	s0,0x800
    4da4:	0087e433          	or	s0,a5,s0
    4da8:	003c9f13          	slli	t5,s9,0x3
    4dac:	c0168693          	addi	a3,a3,-1023
    4db0:	00000593          	li	a1,0
    4db4:	002b9793          	slli	a5,s7,0x2
    4db8:	00b7e7b3          	or	a5,a5,a1
    4dbc:	40dc0733          	sub	a4,s8,a3
    4dc0:	fff78793          	addi	a5,a5,-1 # 7fffff <__stack_top+0x7f369f>
    4dc4:	00e00693          	li	a3,14
    4dc8:	015a4633          	xor	a2,s4,s5
    4dcc:	16f6e063          	bltu	a3,a5,4f2c <__divdf3+0x234>
    4dd0:	000086b7          	lui	a3,0x8
    4dd4:	00279793          	slli	a5,a5,0x2
    4dd8:	7a468693          	addi	a3,a3,1956 # 87a4 <errpat+0x13c>
    4ddc:	00d787b3          	add	a5,a5,a3
    4de0:	0007a783          	lw	a5,0(a5)
    4de4:	00078067          	jr	a5
    4de8:	00a46b33          	or	s6,s0,a0
    4dec:	060b0e63          	beqz	s6,4e68 <__divdf3+0x170>
    4df0:	02040e63          	beqz	s0,4e2c <__divdf3+0x134>
    4df4:	00040513          	mv	a0,s0
    4df8:	6cc010ef          	jal	64c4 <__clzsi2>
    4dfc:	ff550793          	addi	a5,a0,-11
    4e00:	01d00b13          	li	s6,29
    4e04:	ff850713          	addi	a4,a0,-8
    4e08:	40fb0b33          	sub	s6,s6,a5
    4e0c:	00e41433          	sll	s0,s0,a4
    4e10:	016bdb33          	srl	s6,s7,s6
    4e14:	008b6b33          	or	s6,s6,s0
    4e18:	00eb9433          	sll	s0,s7,a4
    4e1c:	c0d00713          	li	a4,-1011
    4e20:	40a70c33          	sub	s8,a4,a0
    4e24:	00040493          	mv	s1,s0
    4e28:	f49ff06f          	j	4d70 <__divdf3+0x78>
    4e2c:	698010ef          	jal	64c4 <__clzsi2>
    4e30:	00050b13          	mv	s6,a0
    4e34:	015b0793          	addi	a5,s6,21
    4e38:	01c00713          	li	a4,28
    4e3c:	02050513          	addi	a0,a0,32
    4e40:	fcf750e3          	bge	a4,a5,4e00 <__divdf3+0x108>
    4e44:	ff8b0b13          	addi	s6,s6,-8
    4e48:	016b9b33          	sll	s6,s7,s6
    4e4c:	fd1ff06f          	j	4e1c <__divdf3+0x124>
    4e50:	00a46b33          	or	s6,s0,a0
    4e54:	020b1263          	bnez	s6,4e78 <__divdf3+0x180>
    4e58:	00000493          	li	s1,0
    4e5c:	00070c13          	mv	s8,a4
    4e60:	00200b93          	li	s7,2
    4e64:	f11ff06f          	j	4d74 <__divdf3+0x7c>
    4e68:	00000493          	li	s1,0
    4e6c:	00000c13          	li	s8,0
    4e70:	00100b93          	li	s7,1
    4e74:	f01ff06f          	j	4d74 <__divdf3+0x7c>
    4e78:	00050493          	mv	s1,a0
    4e7c:	00040b13          	mv	s6,s0
    4e80:	00070c13          	mv	s8,a4
    4e84:	00300b93          	li	s7,3
    4e88:	eedff06f          	j	4d74 <__divdf3+0x7c>
    4e8c:	01946f33          	or	t5,s0,s9
    4e90:	080f0063          	beqz	t5,4f10 <__divdf3+0x218>
    4e94:	04040063          	beqz	s0,4ed4 <__divdf3+0x1dc>
    4e98:	00040513          	mv	a0,s0
    4e9c:	628010ef          	jal	64c4 <__clzsi2>
    4ea0:	ff550713          	addi	a4,a0,-11
    4ea4:	01d00793          	li	a5,29
    4ea8:	ff850693          	addi	a3,a0,-8
    4eac:	40e787b3          	sub	a5,a5,a4
    4eb0:	00d41433          	sll	s0,s0,a3
    4eb4:	00fcd7b3          	srl	a5,s9,a5
    4eb8:	0087e7b3          	or	a5,a5,s0
    4ebc:	00dc9433          	sll	s0,s9,a3
    4ec0:	c0d00693          	li	a3,-1011
    4ec4:	00040f13          	mv	t5,s0
    4ec8:	40a686b3          	sub	a3,a3,a0
    4ecc:	00078413          	mv	s0,a5
    4ed0:	ee1ff06f          	j	4db0 <__divdf3+0xb8>
    4ed4:	000c8513          	mv	a0,s9
    4ed8:	5ec010ef          	jal	64c4 <__clzsi2>
    4edc:	00050793          	mv	a5,a0
    4ee0:	01578713          	addi	a4,a5,21
    4ee4:	01c00693          	li	a3,28
    4ee8:	02050513          	addi	a0,a0,32
    4eec:	fae6dce3          	bge	a3,a4,4ea4 <__divdf3+0x1ac>
    4ef0:	ff878793          	addi	a5,a5,-8
    4ef4:	00fc97b3          	sll	a5,s9,a5
    4ef8:	fc9ff06f          	j	4ec0 <__divdf3+0x1c8>
    4efc:	01946f33          	or	t5,s0,s9
    4f00:	020f1063          	bnez	t5,4f20 <__divdf3+0x228>
    4f04:	00000413          	li	s0,0
    4f08:	00200593          	li	a1,2
    4f0c:	ea9ff06f          	j	4db4 <__divdf3+0xbc>
    4f10:	00000413          	li	s0,0
    4f14:	00000693          	li	a3,0
    4f18:	00100593          	li	a1,1
    4f1c:	e99ff06f          	j	4db4 <__divdf3+0xbc>
    4f20:	000c8f13          	mv	t5,s9
    4f24:	00300593          	li	a1,3
    4f28:	e8dff06f          	j	4db4 <__divdf3+0xbc>
    4f2c:	01646663          	bltu	s0,s6,4f38 <__divdf3+0x240>
    4f30:	348b1a63          	bne	s6,s0,5284 <__divdf3+0x58c>
    4f34:	35e4e863          	bltu	s1,t5,5284 <__divdf3+0x58c>
    4f38:	01fb1693          	slli	a3,s6,0x1f
    4f3c:	0014d793          	srli	a5,s1,0x1
    4f40:	01f49313          	slli	t1,s1,0x1f
    4f44:	001b5b13          	srli	s6,s6,0x1
    4f48:	00f6e4b3          	or	s1,a3,a5
    4f4c:	00841813          	slli	a6,s0,0x8
    4f50:	018f5693          	srli	a3,t5,0x18
    4f54:	0106e6b3          	or	a3,a3,a6
    4f58:	01085813          	srli	a6,a6,0x10
    4f5c:	030b5eb3          	divu	t4,s6,a6
    4f60:	01069893          	slli	a7,a3,0x10
    4f64:	0108d893          	srli	a7,a7,0x10
    4f68:	0104d793          	srli	a5,s1,0x10
    4f6c:	008f1593          	slli	a1,t5,0x8
    4f70:	030b7b33          	remu	s6,s6,a6
    4f74:	000e8513          	mv	a0,t4
    4f78:	03d88e33          	mul	t3,a7,t4
    4f7c:	010b1b13          	slli	s6,s6,0x10
    4f80:	0167e7b3          	or	a5,a5,s6
    4f84:	01c7fe63          	bgeu	a5,t3,4fa0 <__divdf3+0x2a8>
    4f88:	00f687b3          	add	a5,a3,a5
    4f8c:	fffe8513          	addi	a0,t4,-1
    4f90:	00d7e863          	bltu	a5,a3,4fa0 <__divdf3+0x2a8>
    4f94:	01c7f663          	bgeu	a5,t3,4fa0 <__divdf3+0x2a8>
    4f98:	ffee8513          	addi	a0,t4,-2
    4f9c:	00d787b3          	add	a5,a5,a3
    4fa0:	41c787b3          	sub	a5,a5,t3
    4fa4:	0307deb3          	divu	t4,a5,a6
    4fa8:	01049493          	slli	s1,s1,0x10
    4fac:	0104d493          	srli	s1,s1,0x10
    4fb0:	0307f7b3          	remu	a5,a5,a6
    4fb4:	03d88e33          	mul	t3,a7,t4
    4fb8:	01079793          	slli	a5,a5,0x10
    4fbc:	00f4e4b3          	or	s1,s1,a5
    4fc0:	000e8793          	mv	a5,t4
    4fc4:	01c4fe63          	bgeu	s1,t3,4fe0 <__divdf3+0x2e8>
    4fc8:	009684b3          	add	s1,a3,s1
    4fcc:	fffe8793          	addi	a5,t4,-1
    4fd0:	00d4e863          	bltu	s1,a3,4fe0 <__divdf3+0x2e8>
    4fd4:	01c4f663          	bgeu	s1,t3,4fe0 <__divdf3+0x2e8>
    4fd8:	ffee8793          	addi	a5,t4,-2
    4fdc:	00d484b3          	add	s1,s1,a3
    4fe0:	01051513          	slli	a0,a0,0x10
    4fe4:	00f56533          	or	a0,a0,a5
    4fe8:	01051793          	slli	a5,a0,0x10
    4fec:	01059e93          	slli	t4,a1,0x10
    4ff0:	01055f93          	srli	t6,a0,0x10
    4ff4:	0107d793          	srli	a5,a5,0x10
    4ff8:	010ede93          	srli	t4,t4,0x10
    4ffc:	41c484b3          	sub	s1,s1,t3
    5000:	0105de13          	srli	t3,a1,0x10
    5004:	03d782b3          	mul	t0,a5,t4
    5008:	03df83b3          	mul	t2,t6,t4
    500c:	02fe07b3          	mul	a5,t3,a5
    5010:	00778f33          	add	t5,a5,t2
    5014:	0102d793          	srli	a5,t0,0x10
    5018:	01e787b3          	add	a5,a5,t5
    501c:	03cf8fb3          	mul	t6,t6,t3
    5020:	0077f663          	bgeu	a5,t2,502c <__divdf3+0x334>
    5024:	00010f37          	lui	t5,0x10
    5028:	01ef8fb3          	add	t6,t6,t5
    502c:	0107df13          	srli	t5,a5,0x10
    5030:	01029293          	slli	t0,t0,0x10
    5034:	01079793          	slli	a5,a5,0x10
    5038:	0102d293          	srli	t0,t0,0x10
    503c:	01ff0f33          	add	t5,t5,t6
    5040:	005787b3          	add	a5,a5,t0
    5044:	01e4e863          	bltu	s1,t5,5054 <__divdf3+0x35c>
    5048:	00050413          	mv	s0,a0
    504c:	05e49863          	bne	s1,t5,509c <__divdf3+0x3a4>
    5050:	04f37663          	bgeu	t1,a5,509c <__divdf3+0x3a4>
    5054:	00b30fb3          	add	t6,t1,a1
    5058:	006fb2b3          	sltu	t0,t6,t1
    505c:	00d283b3          	add	t2,t0,a3
    5060:	007484b3          	add	s1,s1,t2
    5064:	fff50413          	addi	s0,a0,-1
    5068:	000f8313          	mv	t1,t6
    506c:	0096e663          	bltu	a3,s1,5078 <__divdf3+0x380>
    5070:	02969663          	bne	a3,s1,509c <__divdf3+0x3a4>
    5074:	02029463          	bnez	t0,509c <__divdf3+0x3a4>
    5078:	01e4e663          	bltu	s1,t5,5084 <__divdf3+0x38c>
    507c:	029f1063          	bne	t5,s1,509c <__divdf3+0x3a4>
    5080:	00fffe63          	bgeu	t6,a5,509c <__divdf3+0x3a4>
    5084:	01f58fb3          	add	t6,a1,t6
    5088:	ffe50413          	addi	s0,a0,-2
    508c:	00bfb533          	sltu	a0,t6,a1
    5090:	00d50533          	add	a0,a0,a3
    5094:	000f8313          	mv	t1,t6
    5098:	00a484b3          	add	s1,s1,a0
    509c:	40f30533          	sub	a0,t1,a5
    50a0:	41e484b3          	sub	s1,s1,t5
    50a4:	00a33333          	sltu	t1,t1,a0
    50a8:	406484b3          	sub	s1,s1,t1
    50ac:	fff00f13          	li	t5,-1
    50b0:	12968263          	beq	a3,s1,51d4 <__divdf3+0x4dc>
    50b4:	0304dfb3          	divu	t6,s1,a6
    50b8:	01055793          	srli	a5,a0,0x10
    50bc:	0304f4b3          	remu	s1,s1,a6
    50c0:	000f8313          	mv	t1,t6
    50c4:	03f88f33          	mul	t5,a7,t6
    50c8:	01049493          	slli	s1,s1,0x10
    50cc:	0097e7b3          	or	a5,a5,s1
    50d0:	01e7fe63          	bgeu	a5,t5,50ec <__divdf3+0x3f4>
    50d4:	00f687b3          	add	a5,a3,a5
    50d8:	ffff8313          	addi	t1,t6,-1
    50dc:	00d7e863          	bltu	a5,a3,50ec <__divdf3+0x3f4>
    50e0:	01e7f663          	bgeu	a5,t5,50ec <__divdf3+0x3f4>
    50e4:	ffef8313          	addi	t1,t6,-2
    50e8:	00d787b3          	add	a5,a5,a3
    50ec:	41e787b3          	sub	a5,a5,t5
    50f0:	0307df33          	divu	t5,a5,a6
    50f4:	01051513          	slli	a0,a0,0x10
    50f8:	01055513          	srli	a0,a0,0x10
    50fc:	0307f7b3          	remu	a5,a5,a6
    5100:	000f0813          	mv	a6,t5
    5104:	03e888b3          	mul	a7,a7,t5
    5108:	01079793          	slli	a5,a5,0x10
    510c:	00f567b3          	or	a5,a0,a5
    5110:	0117fe63          	bgeu	a5,a7,512c <__divdf3+0x434>
    5114:	00f687b3          	add	a5,a3,a5
    5118:	ffff0813          	addi	a6,t5,-1 # ffff <__stack_top+0x369f>
    511c:	00d7e863          	bltu	a5,a3,512c <__divdf3+0x434>
    5120:	0117f663          	bgeu	a5,a7,512c <__divdf3+0x434>
    5124:	ffef0813          	addi	a6,t5,-2
    5128:	00d787b3          	add	a5,a5,a3
    512c:	01031513          	slli	a0,t1,0x10
    5130:	01056533          	or	a0,a0,a6
    5134:	01051813          	slli	a6,a0,0x10
    5138:	01085813          	srli	a6,a6,0x10
    513c:	01055313          	srli	t1,a0,0x10
    5140:	030e8f33          	mul	t5,t4,a6
    5144:	411787b3          	sub	a5,a5,a7
    5148:	03d30eb3          	mul	t4,t1,t4
    514c:	026e0333          	mul	t1,t3,t1
    5150:	030e0e33          	mul	t3,t3,a6
    5154:	010f5813          	srli	a6,t5,0x10
    5158:	01de0e33          	add	t3,t3,t4
    515c:	01c80833          	add	a6,a6,t3
    5160:	01d87663          	bgeu	a6,t4,516c <__divdf3+0x474>
    5164:	000108b7          	lui	a7,0x10
    5168:	01130333          	add	t1,t1,a7
    516c:	01085893          	srli	a7,a6,0x10
    5170:	010f1f13          	slli	t5,t5,0x10
    5174:	01081813          	slli	a6,a6,0x10
    5178:	010f5f13          	srli	t5,t5,0x10
    517c:	006888b3          	add	a7,a7,t1
    5180:	01e80833          	add	a6,a6,t5
    5184:	0117e863          	bltu	a5,a7,5194 <__divdf3+0x49c>
    5188:	00050f13          	mv	t5,a0
    518c:	05179263          	bne	a5,a7,51d0 <__divdf3+0x4d8>
    5190:	04080263          	beqz	a6,51d4 <__divdf3+0x4dc>
    5194:	00f687b3          	add	a5,a3,a5
    5198:	fff50f13          	addi	t5,a0,-1
    519c:	00078313          	mv	t1,a5
    51a0:	02d7e463          	bltu	a5,a3,51c8 <__divdf3+0x4d0>
    51a4:	0117e663          	bltu	a5,a7,51b0 <__divdf3+0x4b8>
    51a8:	03179463          	bne	a5,a7,51d0 <__divdf3+0x4d8>
    51ac:	0305f063          	bgeu	a1,a6,51cc <__divdf3+0x4d4>
    51b0:	ffe50f13          	addi	t5,a0,-2
    51b4:	00159513          	slli	a0,a1,0x1
    51b8:	00b53333          	sltu	t1,a0,a1
    51bc:	00d30333          	add	t1,t1,a3
    51c0:	00678333          	add	t1,a5,t1
    51c4:	00050593          	mv	a1,a0
    51c8:	01131463          	bne	t1,a7,51d0 <__divdf3+0x4d8>
    51cc:	00b80463          	beq	a6,a1,51d4 <__divdf3+0x4dc>
    51d0:	001f6f13          	ori	t5,t5,1
    51d4:	3ff70793          	addi	a5,a4,1023
    51d8:	0ef05a63          	blez	a5,52cc <__divdf3+0x5d4>
    51dc:	007f7693          	andi	a3,t5,7
    51e0:	02068063          	beqz	a3,5200 <__divdf3+0x508>
    51e4:	00ff7693          	andi	a3,t5,15
    51e8:	00400593          	li	a1,4
    51ec:	00b68a63          	beq	a3,a1,5200 <__divdf3+0x508>
    51f0:	00bf06b3          	add	a3,t5,a1
    51f4:	01e6b5b3          	sltu	a1,a3,t5
    51f8:	00b40433          	add	s0,s0,a1
    51fc:	00068f13          	mv	t5,a3
    5200:	00741693          	slli	a3,s0,0x7
    5204:	0006da63          	bgez	a3,5218 <__divdf3+0x520>
    5208:	ff0007b7          	lui	a5,0xff000
    520c:	fff78793          	addi	a5,a5,-1 # feffffff <__stack_top+0xfeff369f>
    5210:	00f47433          	and	s0,s0,a5
    5214:	40070793          	addi	a5,a4,1024
    5218:	7fe00713          	li	a4,2046
    521c:	16f74c63          	blt	a4,a5,5394 <__divdf3+0x69c>
    5220:	01d41713          	slli	a4,s0,0x1d
    5224:	003f5f13          	srli	t5,t5,0x3
    5228:	01e76733          	or	a4,a4,t5
    522c:	00345413          	srli	s0,s0,0x3
    5230:	00c41413          	slli	s0,s0,0xc
    5234:	00c45413          	srli	s0,s0,0xc
    5238:	01479793          	slli	a5,a5,0x14
    523c:	02c12083          	lw	ra,44(sp)
    5240:	0087e7b3          	or	a5,a5,s0
    5244:	02812403          	lw	s0,40(sp)
    5248:	01f61613          	slli	a2,a2,0x1f
    524c:	00c7e6b3          	or	a3,a5,a2
    5250:	02412483          	lw	s1,36(sp)
    5254:	02012903          	lw	s2,32(sp)
    5258:	01c12983          	lw	s3,28(sp)
    525c:	01812a03          	lw	s4,24(sp)
    5260:	01412a83          	lw	s5,20(sp)
    5264:	01012b03          	lw	s6,16(sp)
    5268:	00c12b83          	lw	s7,12(sp)
    526c:	00812c03          	lw	s8,8(sp)
    5270:	00412c83          	lw	s9,4(sp)
    5274:	00070513          	mv	a0,a4
    5278:	00068593          	mv	a1,a3
    527c:	03010113          	addi	sp,sp,48
    5280:	00008067          	ret
    5284:	fff70713          	addi	a4,a4,-1
    5288:	00000313          	li	t1,0
    528c:	cc1ff06f          	j	4f4c <__divdf3+0x254>
    5290:	000a8613          	mv	a2,s5
    5294:	00058b93          	mv	s7,a1
    5298:	00200793          	li	a5,2
    529c:	0efb8c63          	beq	s7,a5,5394 <__divdf3+0x69c>
    52a0:	00300793          	li	a5,3
    52a4:	0cfb8e63          	beq	s7,a5,5380 <__divdf3+0x688>
    52a8:	00100793          	li	a5,1
    52ac:	f2fb94e3          	bne	s7,a5,51d4 <__divdf3+0x4dc>
    52b0:	00000413          	li	s0,0
    52b4:	00000713          	li	a4,0
    52b8:	08c0006f          	j	5344 <__divdf3+0x64c>
    52bc:	000a0613          	mv	a2,s4
    52c0:	000b0413          	mv	s0,s6
    52c4:	00048f13          	mv	t5,s1
    52c8:	fd1ff06f          	j	5298 <__divdf3+0x5a0>
    52cc:	00100593          	li	a1,1
    52d0:	00078c63          	beqz	a5,52e8 <__divdf3+0x5f0>
    52d4:	40f585b3          	sub	a1,a1,a5
    52d8:	03800693          	li	a3,56
    52dc:	fcb6cae3          	blt	a3,a1,52b0 <__divdf3+0x5b8>
    52e0:	01f00693          	li	a3,31
    52e4:	06b6c463          	blt	a3,a1,534c <__divdf3+0x654>
    52e8:	41e70713          	addi	a4,a4,1054
    52ec:	00bf57b3          	srl	a5,t5,a1
    52f0:	00ef1f33          	sll	t5,t5,a4
    52f4:	01e03f33          	snez	t5,t5
    52f8:	00e41733          	sll	a4,s0,a4
    52fc:	00ef6f33          	or	t5,t5,a4
    5300:	01e7e7b3          	or	a5,a5,t5
    5304:	00b45433          	srl	s0,s0,a1
    5308:	0077f713          	andi	a4,a5,7
    530c:	02070063          	beqz	a4,532c <__divdf3+0x634>
    5310:	00f7f713          	andi	a4,a5,15
    5314:	00400693          	li	a3,4
    5318:	00d70a63          	beq	a4,a3,532c <__divdf3+0x634>
    531c:	00d78733          	add	a4,a5,a3
    5320:	00f736b3          	sltu	a3,a4,a5
    5324:	00d40433          	add	s0,s0,a3
    5328:	00070793          	mv	a5,a4
    532c:	00841713          	slli	a4,s0,0x8
    5330:	06074a63          	bltz	a4,53a4 <__divdf3+0x6ac>
    5334:	01d41713          	slli	a4,s0,0x1d
    5338:	0037d793          	srli	a5,a5,0x3
    533c:	00f76733          	or	a4,a4,a5
    5340:	00345413          	srli	s0,s0,0x3
    5344:	00000793          	li	a5,0
    5348:	ee9ff06f          	j	5230 <__divdf3+0x538>
    534c:	fe100693          	li	a3,-31
    5350:	40f687b3          	sub	a5,a3,a5
    5354:	02000513          	li	a0,32
    5358:	00f457b3          	srl	a5,s0,a5
    535c:	00000693          	li	a3,0
    5360:	00a58663          	beq	a1,a0,536c <__divdf3+0x674>
    5364:	43e70713          	addi	a4,a4,1086
    5368:	00e416b3          	sll	a3,s0,a4
    536c:	01e6e6b3          	or	a3,a3,t5
    5370:	00d036b3          	snez	a3,a3
    5374:	00d7e7b3          	or	a5,a5,a3
    5378:	00000413          	li	s0,0
    537c:	f8dff06f          	j	5308 <__divdf3+0x610>
    5380:	00080437          	lui	s0,0x80
    5384:	00000713          	li	a4,0
    5388:	7ff00793          	li	a5,2047
    538c:	00000613          	li	a2,0
    5390:	ea1ff06f          	j	5230 <__divdf3+0x538>
    5394:	00000413          	li	s0,0
    5398:	00000713          	li	a4,0
    539c:	7ff00793          	li	a5,2047
    53a0:	e91ff06f          	j	5230 <__divdf3+0x538>
    53a4:	00000413          	li	s0,0
    53a8:	00000713          	li	a4,0
    53ac:	00100793          	li	a5,1
    53b0:	e81ff06f          	j	5230 <__divdf3+0x538>

000053b4 <__gedf2>:
    53b4:	0146d793          	srli	a5,a3,0x14
    53b8:	0145d893          	srli	a7,a1,0x14
    53bc:	00100737          	lui	a4,0x100
    53c0:	fff70713          	addi	a4,a4,-1 # fffff <__stack_top+0xf369f>
    53c4:	00050813          	mv	a6,a0
    53c8:	00050e13          	mv	t3,a0
    53cc:	7ff8f893          	andi	a7,a7,2047
    53d0:	7ff7f513          	andi	a0,a5,2047
    53d4:	7ff00793          	li	a5,2047
    53d8:	00b77333          	and	t1,a4,a1
    53dc:	00060e93          	mv	t4,a2
    53e0:	00d77733          	and	a4,a4,a3
    53e4:	01f5d593          	srli	a1,a1,0x1f
    53e8:	01f6d693          	srli	a3,a3,0x1f
    53ec:	00f89663          	bne	a7,a5,53f8 <__gedf2+0x44>
    53f0:	01036f33          	or	t5,t1,a6
    53f4:	060f1663          	bnez	t5,5460 <__gedf2+0xac>
    53f8:	00f51663          	bne	a0,a5,5404 <__gedf2+0x50>
    53fc:	00c767b3          	or	a5,a4,a2
    5400:	06079063          	bnez	a5,5460 <__gedf2+0xac>
    5404:	00000793          	li	a5,0
    5408:	00089663          	bnez	a7,5414 <__gedf2+0x60>
    540c:	01036833          	or	a6,t1,a6
    5410:	00183793          	seqz	a5,a6
    5414:	04051a63          	bnez	a0,5468 <__gedf2+0xb4>
    5418:	00c76633          	or	a2,a4,a2
    541c:	00078a63          	beqz	a5,5430 <__gedf2+0x7c>
    5420:	06060063          	beqz	a2,5480 <__gedf2+0xcc>
    5424:	00169513          	slli	a0,a3,0x1
    5428:	fff50513          	addi	a0,a0,-1
    542c:	00008067          	ret
    5430:	02061e63          	bnez	a2,546c <__gedf2+0xb8>
    5434:	40b005b3          	neg	a1,a1
    5438:	0015e513          	ori	a0,a1,1
    543c:	00008067          	ret
    5440:	fea8c2e3          	blt	a7,a0,5424 <__gedf2+0x70>
    5444:	fe6768e3          	bltu	a4,t1,5434 <__gedf2+0x80>
    5448:	00e31863          	bne	t1,a4,5458 <__gedf2+0xa4>
    544c:	ffcee4e3          	bltu	t4,t3,5434 <__gedf2+0x80>
    5450:	00000513          	li	a0,0
    5454:	03de7663          	bgeu	t3,t4,5480 <__gedf2+0xcc>
    5458:	00159513          	slli	a0,a1,0x1
    545c:	fcdff06f          	j	5428 <__gedf2+0x74>
    5460:	ffe00513          	li	a0,-2
    5464:	00008067          	ret
    5468:	fa079ee3          	bnez	a5,5424 <__gedf2+0x70>
    546c:	fcb694e3          	bne	a3,a1,5434 <__gedf2+0x80>
    5470:	fd1558e3          	bge	a0,a7,5440 <__gedf2+0x8c>
    5474:	40d006b3          	neg	a3,a3
    5478:	0016e513          	ori	a0,a3,1
    547c:	00008067          	ret
    5480:	00008067          	ret

00005484 <__ledf2>:
    5484:	0146d793          	srli	a5,a3,0x14
    5488:	0145d893          	srli	a7,a1,0x14
    548c:	00100737          	lui	a4,0x100
    5490:	fff70713          	addi	a4,a4,-1 # fffff <__stack_top+0xf369f>
    5494:	00050813          	mv	a6,a0
    5498:	00050e13          	mv	t3,a0
    549c:	7ff8f893          	andi	a7,a7,2047
    54a0:	7ff7f513          	andi	a0,a5,2047
    54a4:	7ff00793          	li	a5,2047
    54a8:	00b77333          	and	t1,a4,a1
    54ac:	00060e93          	mv	t4,a2
    54b0:	00d77733          	and	a4,a4,a3
    54b4:	01f5d593          	srli	a1,a1,0x1f
    54b8:	01f6d693          	srli	a3,a3,0x1f
    54bc:	00f89663          	bne	a7,a5,54c8 <__ledf2+0x44>
    54c0:	01036f33          	or	t5,t1,a6
    54c4:	060f1663          	bnez	t5,5530 <__ledf2+0xac>
    54c8:	00f51663          	bne	a0,a5,54d4 <__ledf2+0x50>
    54cc:	00c767b3          	or	a5,a4,a2
    54d0:	06079063          	bnez	a5,5530 <__ledf2+0xac>
    54d4:	00000793          	li	a5,0
    54d8:	00089663          	bnez	a7,54e4 <__ledf2+0x60>
    54dc:	01036833          	or	a6,t1,a6
    54e0:	00183793          	seqz	a5,a6
    54e4:	04051a63          	bnez	a0,5538 <__ledf2+0xb4>
    54e8:	00c76633          	or	a2,a4,a2
    54ec:	00078a63          	beqz	a5,5500 <__ledf2+0x7c>
    54f0:	06060063          	beqz	a2,5550 <__ledf2+0xcc>
    54f4:	00169513          	slli	a0,a3,0x1
    54f8:	fff50513          	addi	a0,a0,-1
    54fc:	00008067          	ret
    5500:	02061e63          	bnez	a2,553c <__ledf2+0xb8>
    5504:	40b005b3          	neg	a1,a1
    5508:	0015e513          	ori	a0,a1,1
    550c:	00008067          	ret
    5510:	fea8c2e3          	blt	a7,a0,54f4 <__ledf2+0x70>
    5514:	fe6768e3          	bltu	a4,t1,5504 <__ledf2+0x80>
    5518:	00e31863          	bne	t1,a4,5528 <__ledf2+0xa4>
    551c:	ffcee4e3          	bltu	t4,t3,5504 <__ledf2+0x80>
    5520:	00000513          	li	a0,0
    5524:	03de7663          	bgeu	t3,t4,5550 <__ledf2+0xcc>
    5528:	00159513          	slli	a0,a1,0x1
    552c:	fcdff06f          	j	54f8 <__ledf2+0x74>
    5530:	00200513          	li	a0,2
    5534:	00008067          	ret
    5538:	fa079ee3          	bnez	a5,54f4 <__ledf2+0x70>
    553c:	fcb694e3          	bne	a3,a1,5504 <__ledf2+0x80>
    5540:	fd1558e3          	bge	a0,a7,5510 <__ledf2+0x8c>
    5544:	40d006b3          	neg	a3,a3
    5548:	0016e513          	ori	a0,a3,1
    554c:	00008067          	ret
    5550:	00008067          	ret

00005554 <__muldf3>:
    5554:	fd010113          	addi	sp,sp,-48
    5558:	01712623          	sw	s7,12(sp)
    555c:	0145db93          	srli	s7,a1,0x14
    5560:	02812423          	sw	s0,40(sp)
    5564:	02912223          	sw	s1,36(sp)
    5568:	01512a23          	sw	s5,20(sp)
    556c:	01612823          	sw	s6,16(sp)
    5570:	01812423          	sw	s8,8(sp)
    5574:	00c59493          	slli	s1,a1,0xc
    5578:	02112623          	sw	ra,44(sp)
    557c:	03212023          	sw	s2,32(sp)
    5580:	01312e23          	sw	s3,28(sp)
    5584:	01412c23          	sw	s4,24(sp)
    5588:	01912223          	sw	s9,4(sp)
    558c:	7ffbfb93          	andi	s7,s7,2047
    5590:	00050413          	mv	s0,a0
    5594:	00060c13          	mv	s8,a2
    5598:	00068a93          	mv	s5,a3
    559c:	00c4d493          	srli	s1,s1,0xc
    55a0:	01f5db13          	srli	s6,a1,0x1f
    55a4:	0c0b8263          	beqz	s7,5668 <__muldf3+0x114>
    55a8:	7ff00793          	li	a5,2047
    55ac:	12fb8463          	beq	s7,a5,56d4 <__muldf3+0x180>
    55b0:	00349493          	slli	s1,s1,0x3
    55b4:	01d55793          	srli	a5,a0,0x1d
    55b8:	0097e7b3          	or	a5,a5,s1
    55bc:	008004b7          	lui	s1,0x800
    55c0:	0097e4b3          	or	s1,a5,s1
    55c4:	00351a13          	slli	s4,a0,0x3
    55c8:	c01b8b93          	addi	s7,s7,-1023
    55cc:	00000c93          	li	s9,0
    55d0:	014ad693          	srli	a3,s5,0x14
    55d4:	00ca9413          	slli	s0,s5,0xc
    55d8:	7ff6f693          	andi	a3,a3,2047
    55dc:	00c45413          	srli	s0,s0,0xc
    55e0:	01fada93          	srli	s5,s5,0x1f
    55e4:	12068063          	beqz	a3,5704 <__muldf3+0x1b0>
    55e8:	7ff00793          	li	a5,2047
    55ec:	18f68463          	beq	a3,a5,5774 <__muldf3+0x220>
    55f0:	00341413          	slli	s0,s0,0x3
    55f4:	01dc5793          	srli	a5,s8,0x1d
    55f8:	0087e7b3          	or	a5,a5,s0
    55fc:	00800437          	lui	s0,0x800
    5600:	0087e433          	or	s0,a5,s0
    5604:	c0168693          	addi	a3,a3,-1023
    5608:	003c1793          	slli	a5,s8,0x3
    560c:	00000513          	li	a0,0
    5610:	002c9713          	slli	a4,s9,0x2
    5614:	00db8bb3          	add	s7,s7,a3
    5618:	00a76733          	or	a4,a4,a0
    561c:	00a00693          	li	a3,10
    5620:	001b8593          	addi	a1,s7,1
    5624:	1ae6c263          	blt	a3,a4,57c8 <__muldf3+0x274>
    5628:	00200813          	li	a6,2
    562c:	015b4633          	xor	a2,s6,s5
    5630:	00100693          	li	a3,1
    5634:	16e84863          	blt	a6,a4,57a4 <__muldf3+0x250>
    5638:	fff70713          	addi	a4,a4,-1
    563c:	1ae6e663          	bltu	a3,a4,57e8 <__muldf3+0x294>
    5640:	00050c93          	mv	s9,a0
    5644:	00200713          	li	a4,2
    5648:	4eec8063          	beq	s9,a4,5b28 <__muldf3+0x5d4>
    564c:	00300713          	li	a4,3
    5650:	4cec8663          	beq	s9,a4,5b1c <__muldf3+0x5c8>
    5654:	00100713          	li	a4,1
    5658:	34ec9463          	bne	s9,a4,59a0 <__muldf3+0x44c>
    565c:	00000413          	li	s0,0
    5660:	00000693          	li	a3,0
    5664:	46c0006f          	j	5ad0 <__muldf3+0x57c>
    5668:	00a4ea33          	or	s4,s1,a0
    566c:	060a0e63          	beqz	s4,56e8 <__muldf3+0x194>
    5670:	04048063          	beqz	s1,56b0 <__muldf3+0x15c>
    5674:	00048513          	mv	a0,s1
    5678:	64d000ef          	jal	64c4 <__clzsi2>
    567c:	ff550713          	addi	a4,a0,-11
    5680:	01d00793          	li	a5,29
    5684:	ff850693          	addi	a3,a0,-8
    5688:	40e787b3          	sub	a5,a5,a4
    568c:	00d494b3          	sll	s1,s1,a3
    5690:	00f457b3          	srl	a5,s0,a5
    5694:	0097e7b3          	or	a5,a5,s1
    5698:	00d414b3          	sll	s1,s0,a3
    569c:	c0d00b93          	li	s7,-1011
    56a0:	00048a13          	mv	s4,s1
    56a4:	40ab8bb3          	sub	s7,s7,a0
    56a8:	00078493          	mv	s1,a5
    56ac:	f21ff06f          	j	55cc <__muldf3+0x78>
    56b0:	615000ef          	jal	64c4 <__clzsi2>
    56b4:	00050793          	mv	a5,a0
    56b8:	01578713          	addi	a4,a5,21
    56bc:	01c00693          	li	a3,28
    56c0:	02050513          	addi	a0,a0,32
    56c4:	fae6dee3          	bge	a3,a4,5680 <__muldf3+0x12c>
    56c8:	ff878793          	addi	a5,a5,-8
    56cc:	00f417b3          	sll	a5,s0,a5
    56d0:	fcdff06f          	j	569c <__muldf3+0x148>
    56d4:	00a4ea33          	or	s4,s1,a0
    56d8:	020a1063          	bnez	s4,56f8 <__muldf3+0x1a4>
    56dc:	00000493          	li	s1,0
    56e0:	00200c93          	li	s9,2
    56e4:	eedff06f          	j	55d0 <__muldf3+0x7c>
    56e8:	00000493          	li	s1,0
    56ec:	00000b93          	li	s7,0
    56f0:	00100c93          	li	s9,1
    56f4:	eddff06f          	j	55d0 <__muldf3+0x7c>
    56f8:	00050a13          	mv	s4,a0
    56fc:	00300c93          	li	s9,3
    5700:	ed1ff06f          	j	55d0 <__muldf3+0x7c>
    5704:	018467b3          	or	a5,s0,s8
    5708:	08078063          	beqz	a5,5788 <__muldf3+0x234>
    570c:	04040063          	beqz	s0,574c <__muldf3+0x1f8>
    5710:	00040513          	mv	a0,s0
    5714:	5b1000ef          	jal	64c4 <__clzsi2>
    5718:	ff550693          	addi	a3,a0,-11
    571c:	01d00713          	li	a4,29
    5720:	ff850793          	addi	a5,a0,-8
    5724:	40d70733          	sub	a4,a4,a3
    5728:	00f41433          	sll	s0,s0,a5
    572c:	00ec5733          	srl	a4,s8,a4
    5730:	00876733          	or	a4,a4,s0
    5734:	00fc1433          	sll	s0,s8,a5
    5738:	c0d00693          	li	a3,-1011
    573c:	00040793          	mv	a5,s0
    5740:	40a686b3          	sub	a3,a3,a0
    5744:	00070413          	mv	s0,a4
    5748:	ec5ff06f          	j	560c <__muldf3+0xb8>
    574c:	000c0513          	mv	a0,s8
    5750:	575000ef          	jal	64c4 <__clzsi2>
    5754:	00050793          	mv	a5,a0
    5758:	01578693          	addi	a3,a5,21
    575c:	01c00713          	li	a4,28
    5760:	02050513          	addi	a0,a0,32
    5764:	fad75ce3          	bge	a4,a3,571c <__muldf3+0x1c8>
    5768:	ff878793          	addi	a5,a5,-8
    576c:	00fc1733          	sll	a4,s8,a5
    5770:	fc9ff06f          	j	5738 <__muldf3+0x1e4>
    5774:	018467b3          	or	a5,s0,s8
    5778:	02079063          	bnez	a5,5798 <__muldf3+0x244>
    577c:	00000413          	li	s0,0
    5780:	00200513          	li	a0,2
    5784:	e8dff06f          	j	5610 <__muldf3+0xbc>
    5788:	00000413          	li	s0,0
    578c:	00000693          	li	a3,0
    5790:	00100513          	li	a0,1
    5794:	e7dff06f          	j	5610 <__muldf3+0xbc>
    5798:	000c0793          	mv	a5,s8
    579c:	00300513          	li	a0,3
    57a0:	e71ff06f          	j	5610 <__muldf3+0xbc>
    57a4:	00e69733          	sll	a4,a3,a4
    57a8:	53077693          	andi	a3,a4,1328
    57ac:	02069863          	bnez	a3,57dc <__muldf3+0x288>
    57b0:	24077813          	andi	a6,a4,576
    57b4:	34081c63          	bnez	a6,5b0c <__muldf3+0x5b8>
    57b8:	08877713          	andi	a4,a4,136
    57bc:	02070663          	beqz	a4,57e8 <__muldf3+0x294>
    57c0:	000a8613          	mv	a2,s5
    57c4:	e7dff06f          	j	5640 <__muldf3+0xec>
    57c8:	00f00693          	li	a3,15
    57cc:	34d70863          	beq	a4,a3,5b1c <__muldf3+0x5c8>
    57d0:	00b00693          	li	a3,11
    57d4:	000b0613          	mv	a2,s6
    57d8:	fed704e3          	beq	a4,a3,57c0 <__muldf3+0x26c>
    57dc:	00048413          	mv	s0,s1
    57e0:	000a0793          	mv	a5,s4
    57e4:	e61ff06f          	j	5644 <__muldf3+0xf0>
    57e8:	010a5693          	srli	a3,s4,0x10
    57ec:	0107d893          	srli	a7,a5,0x10
    57f0:	010a1a13          	slli	s4,s4,0x10
    57f4:	01079793          	slli	a5,a5,0x10
    57f8:	010a5a13          	srli	s4,s4,0x10
    57fc:	0107d793          	srli	a5,a5,0x10
    5800:	02fa0533          	mul	a0,s4,a5
    5804:	02f68e33          	mul	t3,a3,a5
    5808:	01055813          	srli	a6,a0,0x10
    580c:	03488333          	mul	t1,a7,s4
    5810:	01c30333          	add	t1,t1,t3
    5814:	00680833          	add	a6,a6,t1
    5818:	03168733          	mul	a4,a3,a7
    581c:	01c87663          	bgeu	a6,t3,5828 <__muldf3+0x2d4>
    5820:	00010337          	lui	t1,0x10
    5824:	00670733          	add	a4,a4,t1
    5828:	01051513          	slli	a0,a0,0x10
    582c:	01055513          	srli	a0,a0,0x10
    5830:	01085f93          	srli	t6,a6,0x10
    5834:	01081813          	slli	a6,a6,0x10
    5838:	00a80833          	add	a6,a6,a0
    583c:	01045513          	srli	a0,s0,0x10
    5840:	01041413          	slli	s0,s0,0x10
    5844:	01045413          	srli	s0,s0,0x10
    5848:	028a0e33          	mul	t3,s4,s0
    584c:	02868eb3          	mul	t4,a3,s0
    5850:	010e5313          	srli	t1,t3,0x10
    5854:	03450a33          	mul	s4,a0,s4
    5858:	01da0a33          	add	s4,s4,t4
    585c:	01430333          	add	t1,t1,s4
    5860:	02a686b3          	mul	a3,a3,a0
    5864:	01d37663          	bgeu	t1,t4,5870 <__muldf3+0x31c>
    5868:	00010eb7          	lui	t4,0x10
    586c:	01d686b3          	add	a3,a3,t4
    5870:	01035f13          	srli	t5,t1,0x10
    5874:	00df0f33          	add	t5,t5,a3
    5878:	01031693          	slli	a3,t1,0x10
    587c:	0104d313          	srli	t1,s1,0x10
    5880:	01049493          	slli	s1,s1,0x10
    5884:	0104d493          	srli	s1,s1,0x10
    5888:	02f48eb3          	mul	t4,s1,a5
    588c:	010e1e13          	slli	t3,t3,0x10
    5890:	010e5e13          	srli	t3,t3,0x10
    5894:	01c686b3          	add	a3,a3,t3
    5898:	00df8fb3          	add	t6,t6,a3
    589c:	02f307b3          	mul	a5,t1,a5
    58a0:	010ede13          	srli	t3,t4,0x10
    58a4:	026882b3          	mul	t0,a7,t1
    58a8:	029888b3          	mul	a7,a7,s1
    58ac:	00f888b3          	add	a7,a7,a5
    58b0:	011e08b3          	add	a7,t3,a7
    58b4:	00f8f663          	bgeu	a7,a5,58c0 <__muldf3+0x36c>
    58b8:	000107b7          	lui	a5,0x10
    58bc:	00f282b3          	add	t0,t0,a5
    58c0:	028487b3          	mul	a5,s1,s0
    58c4:	010e9e93          	slli	t4,t4,0x10
    58c8:	0108de13          	srli	t3,a7,0x10
    58cc:	010ede93          	srli	t4,t4,0x10
    58d0:	01089893          	slli	a7,a7,0x10
    58d4:	01d888b3          	add	a7,a7,t4
    58d8:	005e0e33          	add	t3,t3,t0
    58dc:	02830433          	mul	s0,t1,s0
    58e0:	0107de93          	srli	t4,a5,0x10
    58e4:	02650333          	mul	t1,a0,t1
    58e8:	02950533          	mul	a0,a0,s1
    58ec:	00850533          	add	a0,a0,s0
    58f0:	00ae8eb3          	add	t4,t4,a0
    58f4:	008ef663          	bgeu	t4,s0,5900 <__muldf3+0x3ac>
    58f8:	00010537          	lui	a0,0x10
    58fc:	00a30333          	add	t1,t1,a0
    5900:	01079793          	slli	a5,a5,0x10
    5904:	010e9513          	slli	a0,t4,0x10
    5908:	0107d793          	srli	a5,a5,0x10
    590c:	01f70733          	add	a4,a4,t6
    5910:	00f50533          	add	a0,a0,a5
    5914:	01e50f33          	add	t5,a0,t5
    5918:	00d737b3          	sltu	a5,a4,a3
    591c:	00ff07b3          	add	a5,t5,a5
    5920:	011708b3          	add	a7,a4,a7
    5924:	01c78e33          	add	t3,a5,t3
    5928:	00e8b6b3          	sltu	a3,a7,a4
    592c:	00de06b3          	add	a3,t3,a3
    5930:	00af3533          	sltu	a0,t5,a0
    5934:	01e7bf33          	sltu	t5,a5,t5
    5938:	00fe3733          	sltu	a4,t3,a5
    593c:	01e56533          	or	a0,a0,t5
    5940:	01c6be33          	sltu	t3,a3,t3
    5944:	010ede93          	srli	t4,t4,0x10
    5948:	00989793          	slli	a5,a7,0x9
    594c:	01d50533          	add	a0,a0,t4
    5950:	01c76733          	or	a4,a4,t3
    5954:	00a70733          	add	a4,a4,a0
    5958:	0107e7b3          	or	a5,a5,a6
    595c:	00670733          	add	a4,a4,t1
    5960:	00f037b3          	snez	a5,a5
    5964:	0178d893          	srli	a7,a7,0x17
    5968:	00971713          	slli	a4,a4,0x9
    596c:	0176d413          	srli	s0,a3,0x17
    5970:	0117e7b3          	or	a5,a5,a7
    5974:	00969693          	slli	a3,a3,0x9
    5978:	00d7e7b3          	or	a5,a5,a3
    597c:	00771693          	slli	a3,a4,0x7
    5980:	00876433          	or	s0,a4,s0
    5984:	0c06d663          	bgez	a3,5a50 <__muldf3+0x4fc>
    5988:	0017d713          	srli	a4,a5,0x1
    598c:	0017f793          	andi	a5,a5,1
    5990:	00f76733          	or	a4,a4,a5
    5994:	01f41793          	slli	a5,s0,0x1f
    5998:	00f767b3          	or	a5,a4,a5
    599c:	00145413          	srli	s0,s0,0x1
    59a0:	3ff58713          	addi	a4,a1,1023
    59a4:	0ae05a63          	blez	a4,5a58 <__muldf3+0x504>
    59a8:	0077f693          	andi	a3,a5,7
    59ac:	02068063          	beqz	a3,59cc <__muldf3+0x478>
    59b0:	00f7f693          	andi	a3,a5,15
    59b4:	00400513          	li	a0,4
    59b8:	00a68a63          	beq	a3,a0,59cc <__muldf3+0x478>
    59bc:	00a786b3          	add	a3,a5,a0
    59c0:	00f6b533          	sltu	a0,a3,a5
    59c4:	00a40433          	add	s0,s0,a0
    59c8:	00068793          	mv	a5,a3
    59cc:	00741693          	slli	a3,s0,0x7
    59d0:	0006da63          	bgez	a3,59e4 <__muldf3+0x490>
    59d4:	ff000737          	lui	a4,0xff000
    59d8:	fff70713          	addi	a4,a4,-1 # feffffff <__stack_top+0xfeff369f>
    59dc:	00e47433          	and	s0,s0,a4
    59e0:	40058713          	addi	a4,a1,1024
    59e4:	7fe00693          	li	a3,2046
    59e8:	14e6c063          	blt	a3,a4,5b28 <__muldf3+0x5d4>
    59ec:	01d41693          	slli	a3,s0,0x1d
    59f0:	0037d793          	srli	a5,a5,0x3
    59f4:	00f6e6b3          	or	a3,a3,a5
    59f8:	00345413          	srli	s0,s0,0x3
    59fc:	00c41413          	slli	s0,s0,0xc
    5a00:	00c45413          	srli	s0,s0,0xc
    5a04:	01471713          	slli	a4,a4,0x14
    5a08:	02c12083          	lw	ra,44(sp)
    5a0c:	00876733          	or	a4,a4,s0
    5a10:	02812403          	lw	s0,40(sp)
    5a14:	01f61613          	slli	a2,a2,0x1f
    5a18:	00c767b3          	or	a5,a4,a2
    5a1c:	02412483          	lw	s1,36(sp)
    5a20:	02012903          	lw	s2,32(sp)
    5a24:	01c12983          	lw	s3,28(sp)
    5a28:	01812a03          	lw	s4,24(sp)
    5a2c:	01412a83          	lw	s5,20(sp)
    5a30:	01012b03          	lw	s6,16(sp)
    5a34:	00c12b83          	lw	s7,12(sp)
    5a38:	00812c03          	lw	s8,8(sp)
    5a3c:	00412c83          	lw	s9,4(sp)
    5a40:	00068513          	mv	a0,a3
    5a44:	00078593          	mv	a1,a5
    5a48:	03010113          	addi	sp,sp,48
    5a4c:	00008067          	ret
    5a50:	000b8593          	mv	a1,s7
    5a54:	f4dff06f          	j	59a0 <__muldf3+0x44c>
    5a58:	00100513          	li	a0,1
    5a5c:	00070c63          	beqz	a4,5a74 <__muldf3+0x520>
    5a60:	40e50533          	sub	a0,a0,a4
    5a64:	03800693          	li	a3,56
    5a68:	bea6cae3          	blt	a3,a0,565c <__muldf3+0x108>
    5a6c:	01f00693          	li	a3,31
    5a70:	06a6c463          	blt	a3,a0,5ad8 <__muldf3+0x584>
    5a74:	41e58593          	addi	a1,a1,1054
    5a78:	00a7d733          	srl	a4,a5,a0
    5a7c:	00b797b3          	sll	a5,a5,a1
    5a80:	00f037b3          	snez	a5,a5
    5a84:	00b415b3          	sll	a1,s0,a1
    5a88:	00b7e7b3          	or	a5,a5,a1
    5a8c:	00f767b3          	or	a5,a4,a5
    5a90:	00a45433          	srl	s0,s0,a0
    5a94:	0077f713          	andi	a4,a5,7
    5a98:	02070063          	beqz	a4,5ab8 <__muldf3+0x564>
    5a9c:	00f7f713          	andi	a4,a5,15
    5aa0:	00400693          	li	a3,4
    5aa4:	00d70a63          	beq	a4,a3,5ab8 <__muldf3+0x564>
    5aa8:	00d78733          	add	a4,a5,a3
    5aac:	00f736b3          	sltu	a3,a4,a5
    5ab0:	00d40433          	add	s0,s0,a3
    5ab4:	00070793          	mv	a5,a4
    5ab8:	00841713          	slli	a4,s0,0x8
    5abc:	06074e63          	bltz	a4,5b38 <__muldf3+0x5e4>
    5ac0:	01d41693          	slli	a3,s0,0x1d
    5ac4:	0037d793          	srli	a5,a5,0x3
    5ac8:	00f6e6b3          	or	a3,a3,a5
    5acc:	00345413          	srli	s0,s0,0x3
    5ad0:	00000713          	li	a4,0
    5ad4:	f29ff06f          	j	59fc <__muldf3+0x4a8>
    5ad8:	fe100693          	li	a3,-31
    5adc:	40e68733          	sub	a4,a3,a4
    5ae0:	02000813          	li	a6,32
    5ae4:	00e45733          	srl	a4,s0,a4
    5ae8:	00000693          	li	a3,0
    5aec:	01050663          	beq	a0,a6,5af8 <__muldf3+0x5a4>
    5af0:	43e58593          	addi	a1,a1,1086
    5af4:	00b416b3          	sll	a3,s0,a1
    5af8:	00f6e6b3          	or	a3,a3,a5
    5afc:	00d036b3          	snez	a3,a3
    5b00:	00d767b3          	or	a5,a4,a3
    5b04:	00000413          	li	s0,0
    5b08:	f8dff06f          	j	5a94 <__muldf3+0x540>
    5b0c:	00080437          	lui	s0,0x80
    5b10:	7ff00713          	li	a4,2047
    5b14:	00000613          	li	a2,0
    5b18:	ee5ff06f          	j	59fc <__muldf3+0x4a8>
    5b1c:	00080437          	lui	s0,0x80
    5b20:	00000693          	li	a3,0
    5b24:	fedff06f          	j	5b10 <__muldf3+0x5bc>
    5b28:	00000413          	li	s0,0
    5b2c:	00000693          	li	a3,0
    5b30:	7ff00713          	li	a4,2047
    5b34:	ec9ff06f          	j	59fc <__muldf3+0x4a8>
    5b38:	00000413          	li	s0,0
    5b3c:	00000693          	li	a3,0
    5b40:	00100713          	li	a4,1
    5b44:	eb9ff06f          	j	59fc <__muldf3+0x4a8>

00005b48 <__subdf3>:
    5b48:	00100837          	lui	a6,0x100
    5b4c:	fff80813          	addi	a6,a6,-1 # fffff <__stack_top+0xf369f>
    5b50:	fe010113          	addi	sp,sp,-32
    5b54:	00b878b3          	and	a7,a6,a1
    5b58:	0145d713          	srli	a4,a1,0x14
    5b5c:	01d55793          	srli	a5,a0,0x1d
    5b60:	00d87833          	and	a6,a6,a3
    5b64:	01412423          	sw	s4,8(sp)
    5b68:	7ff77a13          	andi	s4,a4,2047
    5b6c:	00389713          	slli	a4,a7,0x3
    5b70:	0146d893          	srli	a7,a3,0x14
    5b74:	01312623          	sw	s3,12(sp)
    5b78:	00e7e7b3          	or	a5,a5,a4
    5b7c:	01f5d993          	srli	s3,a1,0x1f
    5b80:	00381813          	slli	a6,a6,0x3
    5b84:	01d65593          	srli	a1,a2,0x1d
    5b88:	00112e23          	sw	ra,28(sp)
    5b8c:	00812c23          	sw	s0,24(sp)
    5b90:	00912a23          	sw	s1,20(sp)
    5b94:	01212823          	sw	s2,16(sp)
    5b98:	01512223          	sw	s5,4(sp)
    5b9c:	7ff8f893          	andi	a7,a7,2047
    5ba0:	7ff00713          	li	a4,2047
    5ba4:	00351513          	slli	a0,a0,0x3
    5ba8:	01f6d693          	srli	a3,a3,0x1f
    5bac:	0105e5b3          	or	a1,a1,a6
    5bb0:	00361613          	slli	a2,a2,0x3
    5bb4:	00e89663          	bne	a7,a4,5bc0 <__subdf3+0x78>
    5bb8:	00c5e733          	or	a4,a1,a2
    5bbc:	00071463          	bnez	a4,5bc4 <__subdf3+0x7c>
    5bc0:	0016c693          	xori	a3,a3,1
    5bc4:	411a0833          	sub	a6,s4,a7
    5bc8:	7ff00313          	li	t1,2047
    5bcc:	33369663          	bne	a3,s3,5ef8 <__subdf3+0x3b0>
    5bd0:	17005e63          	blez	a6,5d4c <__subdf3+0x204>
    5bd4:	0a089863          	bnez	a7,5c84 <__subdf3+0x13c>
    5bd8:	00c5e733          	or	a4,a1,a2
    5bdc:	02070663          	beqz	a4,5c08 <__subdf3+0xc0>
    5be0:	fffa0813          	addi	a6,s4,-1
    5be4:	02081063          	bnez	a6,5c04 <__subdf3+0xbc>
    5be8:	00c50633          	add	a2,a0,a2
    5bec:	00a63733          	sltu	a4,a2,a0
    5bf0:	00b786b3          	add	a3,a5,a1
    5bf4:	00060513          	mv	a0,a2
    5bf8:	00e687b3          	add	a5,a3,a4
    5bfc:	00100a13          	li	s4,1
    5c00:	0d40006f          	j	5cd4 <__subdf3+0x18c>
    5c04:	086a1663          	bne	s4,t1,5c90 <__subdf3+0x148>
    5c08:	01d79693          	slli	a3,a5,0x1d
    5c0c:	00355513          	srli	a0,a0,0x3
    5c10:	7ff00713          	li	a4,2047
    5c14:	00a6e6b3          	or	a3,a3,a0
    5c18:	0037d793          	srli	a5,a5,0x3
    5c1c:	00ea1e63          	bne	s4,a4,5c38 <__subdf3+0xf0>
    5c20:	00f6e6b3          	or	a3,a3,a5
    5c24:	00000793          	li	a5,0
    5c28:	00068863          	beqz	a3,5c38 <__subdf3+0xf0>
    5c2c:	000807b7          	lui	a5,0x80
    5c30:	00000693          	li	a3,0
    5c34:	00000993          	li	s3,0
    5c38:	014a1713          	slli	a4,s4,0x14
    5c3c:	7ff00637          	lui	a2,0x7ff00
    5c40:	00c79793          	slli	a5,a5,0xc
    5c44:	00c77733          	and	a4,a4,a2
    5c48:	01c12083          	lw	ra,28(sp)
    5c4c:	01812403          	lw	s0,24(sp)
    5c50:	00c7d793          	srli	a5,a5,0xc
    5c54:	00f767b3          	or	a5,a4,a5
    5c58:	01f99713          	slli	a4,s3,0x1f
    5c5c:	00e7e633          	or	a2,a5,a4
    5c60:	01412483          	lw	s1,20(sp)
    5c64:	01012903          	lw	s2,16(sp)
    5c68:	00c12983          	lw	s3,12(sp)
    5c6c:	00812a03          	lw	s4,8(sp)
    5c70:	00412a83          	lw	s5,4(sp)
    5c74:	00068513          	mv	a0,a3
    5c78:	00060593          	mv	a1,a2
    5c7c:	02010113          	addi	sp,sp,32
    5c80:	00008067          	ret
    5c84:	f86a02e3          	beq	s4,t1,5c08 <__subdf3+0xc0>
    5c88:	00800737          	lui	a4,0x800
    5c8c:	00e5e5b3          	or	a1,a1,a4
    5c90:	03800713          	li	a4,56
    5c94:	0b074663          	blt	a4,a6,5d40 <__subdf3+0x1f8>
    5c98:	01f00713          	li	a4,31
    5c9c:	02000893          	li	a7,32
    5ca0:	07074863          	blt	a4,a6,5d10 <__subdf3+0x1c8>
    5ca4:	410888b3          	sub	a7,a7,a6
    5ca8:	01159733          	sll	a4,a1,a7
    5cac:	010656b3          	srl	a3,a2,a6
    5cb0:	011618b3          	sll	a7,a2,a7
    5cb4:	00d76733          	or	a4,a4,a3
    5cb8:	011038b3          	snez	a7,a7
    5cbc:	01176733          	or	a4,a4,a7
    5cc0:	0105d833          	srl	a6,a1,a6
    5cc4:	00a70533          	add	a0,a4,a0
    5cc8:	00f80833          	add	a6,a6,a5
    5ccc:	00e53733          	sltu	a4,a0,a4
    5cd0:	00e807b3          	add	a5,a6,a4
    5cd4:	00879713          	slli	a4,a5,0x8
    5cd8:	1c075c63          	bgez	a4,5eb0 <__subdf3+0x368>
    5cdc:	001a0a13          	addi	s4,s4,1
    5ce0:	7ff00713          	li	a4,2047
    5ce4:	5cea0263          	beq	s4,a4,62a8 <__subdf3+0x760>
    5ce8:	ff800737          	lui	a4,0xff800
    5cec:	fff70713          	addi	a4,a4,-1 # ff7fffff <__stack_top+0xff7f369f>
    5cf0:	00e7f7b3          	and	a5,a5,a4
    5cf4:	00155713          	srli	a4,a0,0x1
    5cf8:	00157513          	andi	a0,a0,1
    5cfc:	00a76733          	or	a4,a4,a0
    5d00:	01f79513          	slli	a0,a5,0x1f
    5d04:	00e56533          	or	a0,a0,a4
    5d08:	0017d793          	srli	a5,a5,0x1
    5d0c:	1a40006f          	j	5eb0 <__subdf3+0x368>
    5d10:	fe080713          	addi	a4,a6,-32
    5d14:	00e5d733          	srl	a4,a1,a4
    5d18:	00000693          	li	a3,0
    5d1c:	01180863          	beq	a6,a7,5d2c <__subdf3+0x1e4>
    5d20:	04000693          	li	a3,64
    5d24:	410686b3          	sub	a3,a3,a6
    5d28:	00d596b3          	sll	a3,a1,a3
    5d2c:	00c6e6b3          	or	a3,a3,a2
    5d30:	00d036b3          	snez	a3,a3
    5d34:	00d76733          	or	a4,a4,a3
    5d38:	00000813          	li	a6,0
    5d3c:	f89ff06f          	j	5cc4 <__subdf3+0x17c>
    5d40:	00c5e733          	or	a4,a1,a2
    5d44:	00e03733          	snez	a4,a4
    5d48:	ff1ff06f          	j	5d38 <__subdf3+0x1f0>
    5d4c:	0c080663          	beqz	a6,5e18 <__subdf3+0x2d0>
    5d50:	41488733          	sub	a4,a7,s4
    5d54:	020a1463          	bnez	s4,5d7c <__subdf3+0x234>
    5d58:	00a7e6b3          	or	a3,a5,a0
    5d5c:	00068863          	beqz	a3,5d6c <__subdf3+0x224>
    5d60:	fff70693          	addi	a3,a4,-1
    5d64:	e80682e3          	beqz	a3,5be8 <__subdf3+0xa0>
    5d68:	02671263          	bne	a4,t1,5d8c <__subdf3+0x244>
    5d6c:	00058793          	mv	a5,a1
    5d70:	00060513          	mv	a0,a2
    5d74:	00070a13          	mv	s4,a4
    5d78:	e91ff06f          	j	5c08 <__subdf3+0xc0>
    5d7c:	52688c63          	beq	a7,t1,62b4 <__subdf3+0x76c>
    5d80:	008006b7          	lui	a3,0x800
    5d84:	00d7e7b3          	or	a5,a5,a3
    5d88:	00070693          	mv	a3,a4
    5d8c:	03800713          	li	a4,56
    5d90:	06d74e63          	blt	a4,a3,5e0c <__subdf3+0x2c4>
    5d94:	01f00713          	li	a4,31
    5d98:	02000313          	li	t1,32
    5d9c:	04d74063          	blt	a4,a3,5ddc <__subdf3+0x294>
    5da0:	40d30333          	sub	t1,t1,a3
    5da4:	00679733          	sll	a4,a5,t1
    5da8:	00d55833          	srl	a6,a0,a3
    5dac:	00651333          	sll	t1,a0,t1
    5db0:	01076733          	or	a4,a4,a6
    5db4:	00603333          	snez	t1,t1
    5db8:	00676733          	or	a4,a4,t1
    5dbc:	00d7d6b3          	srl	a3,a5,a3
    5dc0:	00c70633          	add	a2,a4,a2
    5dc4:	00b686b3          	add	a3,a3,a1
    5dc8:	00e63733          	sltu	a4,a2,a4
    5dcc:	00060513          	mv	a0,a2
    5dd0:	00e687b3          	add	a5,a3,a4
    5dd4:	00088a13          	mv	s4,a7
    5dd8:	efdff06f          	j	5cd4 <__subdf3+0x18c>
    5ddc:	fe068713          	addi	a4,a3,-32 # 7fffe0 <__stack_top+0x7f3680>
    5de0:	00e7d733          	srl	a4,a5,a4
    5de4:	00000813          	li	a6,0
    5de8:	00668863          	beq	a3,t1,5df8 <__subdf3+0x2b0>
    5dec:	04000813          	li	a6,64
    5df0:	40d80833          	sub	a6,a6,a3
    5df4:	01079833          	sll	a6,a5,a6
    5df8:	00a86833          	or	a6,a6,a0
    5dfc:	01003833          	snez	a6,a6
    5e00:	01076733          	or	a4,a4,a6
    5e04:	00000693          	li	a3,0
    5e08:	fb9ff06f          	j	5dc0 <__subdf3+0x278>
    5e0c:	00a7e733          	or	a4,a5,a0
    5e10:	00e03733          	snez	a4,a4
    5e14:	ff1ff06f          	j	5e04 <__subdf3+0x2bc>
    5e18:	001a0713          	addi	a4,s4,1
    5e1c:	7fe77693          	andi	a3,a4,2046
    5e20:	06069463          	bnez	a3,5e88 <__subdf3+0x340>
    5e24:	00a7e733          	or	a4,a5,a0
    5e28:	040a1063          	bnez	s4,5e68 <__subdf3+0x320>
    5e2c:	2c070063          	beqz	a4,60ec <__subdf3+0x5a4>
    5e30:	00c5e733          	or	a4,a1,a2
    5e34:	44070a63          	beqz	a4,6288 <__subdf3+0x740>
    5e38:	00c50633          	add	a2,a0,a2
    5e3c:	00b786b3          	add	a3,a5,a1
    5e40:	00a63533          	sltu	a0,a2,a0
    5e44:	00a685b3          	add	a1,a3,a0
    5e48:	00859793          	slli	a5,a1,0x8
    5e4c:	2a07d063          	bgez	a5,60ec <__subdf3+0x5a4>
    5e50:	ff8007b7          	lui	a5,0xff800
    5e54:	fff78793          	addi	a5,a5,-1 # ff7fffff <__stack_top+0xff7f369f>
    5e58:	00f5f7b3          	and	a5,a1,a5
    5e5c:	00060513          	mv	a0,a2
    5e60:	00100a13          	li	s4,1
    5e64:	da5ff06f          	j	5c08 <__subdf3+0xc0>
    5e68:	42070663          	beqz	a4,6294 <__subdf3+0x74c>
    5e6c:	00c5e633          	or	a2,a1,a2
    5e70:	00030a13          	mv	s4,t1
    5e74:	d8060ae3          	beqz	a2,5c08 <__subdf3+0xc0>
    5e78:	00000993          	li	s3,0
    5e7c:	004007b7          	lui	a5,0x400
    5e80:	00000513          	li	a0,0
    5e84:	d85ff06f          	j	5c08 <__subdf3+0xc0>
    5e88:	40670e63          	beq	a4,t1,62a4 <__subdf3+0x75c>
    5e8c:	00c50633          	add	a2,a0,a2
    5e90:	00a63533          	sltu	a0,a2,a0
    5e94:	00b786b3          	add	a3,a5,a1
    5e98:	00a686b3          	add	a3,a3,a0
    5e9c:	01f69513          	slli	a0,a3,0x1f
    5ea0:	00165613          	srli	a2,a2,0x1
    5ea4:	00c56533          	or	a0,a0,a2
    5ea8:	0016d793          	srli	a5,a3,0x1
    5eac:	00070a13          	mv	s4,a4
    5eb0:	00757713          	andi	a4,a0,7
    5eb4:	02070063          	beqz	a4,5ed4 <__subdf3+0x38c>
    5eb8:	00f57713          	andi	a4,a0,15
    5ebc:	00400693          	li	a3,4
    5ec0:	00d70a63          	beq	a4,a3,5ed4 <__subdf3+0x38c>
    5ec4:	00d50733          	add	a4,a0,a3
    5ec8:	00a736b3          	sltu	a3,a4,a0
    5ecc:	00d787b3          	add	a5,a5,a3
    5ed0:	00070513          	mv	a0,a4
    5ed4:	00879713          	slli	a4,a5,0x8
    5ed8:	d20758e3          	bgez	a4,5c08 <__subdf3+0xc0>
    5edc:	001a0a13          	addi	s4,s4,1
    5ee0:	7ff00713          	li	a4,2047
    5ee4:	3cea0263          	beq	s4,a4,62a8 <__subdf3+0x760>
    5ee8:	ff800737          	lui	a4,0xff800
    5eec:	fff70713          	addi	a4,a4,-1 # ff7fffff <__stack_top+0xff7f369f>
    5ef0:	00e7f7b3          	and	a5,a5,a4
    5ef4:	d15ff06f          	j	5c08 <__subdf3+0xc0>
    5ef8:	0f005463          	blez	a6,5fe0 <__subdf3+0x498>
    5efc:	08089c63          	bnez	a7,5f94 <__subdf3+0x44c>
    5f00:	00c5e733          	or	a4,a1,a2
    5f04:	d00702e3          	beqz	a4,5c08 <__subdf3+0xc0>
    5f08:	fffa0813          	addi	a6,s4,-1
    5f0c:	02081063          	bnez	a6,5f2c <__subdf3+0x3e4>
    5f10:	40c50633          	sub	a2,a0,a2
    5f14:	00c53733          	sltu	a4,a0,a2
    5f18:	40b786b3          	sub	a3,a5,a1
    5f1c:	00060513          	mv	a0,a2
    5f20:	40e687b3          	sub	a5,a3,a4
    5f24:	00100a13          	li	s4,1
    5f28:	0500006f          	j	5f78 <__subdf3+0x430>
    5f2c:	cc6a0ee3          	beq	s4,t1,5c08 <__subdf3+0xc0>
    5f30:	03800713          	li	a4,56
    5f34:	0b074063          	blt	a4,a6,5fd4 <__subdf3+0x48c>
    5f38:	01f00713          	li	a4,31
    5f3c:	02000893          	li	a7,32
    5f40:	07074263          	blt	a4,a6,5fa4 <__subdf3+0x45c>
    5f44:	410888b3          	sub	a7,a7,a6
    5f48:	01159733          	sll	a4,a1,a7
    5f4c:	010656b3          	srl	a3,a2,a6
    5f50:	011618b3          	sll	a7,a2,a7
    5f54:	00d76733          	or	a4,a4,a3
    5f58:	011038b3          	snez	a7,a7
    5f5c:	01176733          	or	a4,a4,a7
    5f60:	0105d833          	srl	a6,a1,a6
    5f64:	40e50733          	sub	a4,a0,a4
    5f68:	00e536b3          	sltu	a3,a0,a4
    5f6c:	41078833          	sub	a6,a5,a6
    5f70:	00070513          	mv	a0,a4
    5f74:	40d807b3          	sub	a5,a6,a3
    5f78:	00879713          	slli	a4,a5,0x8
    5f7c:	f2075ae3          	bgez	a4,5eb0 <__subdf3+0x368>
    5f80:	00800937          	lui	s2,0x800
    5f84:	fff90913          	addi	s2,s2,-1 # 7fffff <__stack_top+0x7f369f>
    5f88:	0127f933          	and	s2,a5,s2
    5f8c:	00050a93          	mv	s5,a0
    5f90:	2140006f          	j	61a4 <__subdf3+0x65c>
    5f94:	c66a0ae3          	beq	s4,t1,5c08 <__subdf3+0xc0>
    5f98:	00800737          	lui	a4,0x800
    5f9c:	00e5e5b3          	or	a1,a1,a4
    5fa0:	f91ff06f          	j	5f30 <__subdf3+0x3e8>
    5fa4:	fe080713          	addi	a4,a6,-32
    5fa8:	00e5d733          	srl	a4,a1,a4
    5fac:	00000693          	li	a3,0
    5fb0:	01180863          	beq	a6,a7,5fc0 <__subdf3+0x478>
    5fb4:	04000693          	li	a3,64
    5fb8:	410686b3          	sub	a3,a3,a6
    5fbc:	00d596b3          	sll	a3,a1,a3
    5fc0:	00c6e6b3          	or	a3,a3,a2
    5fc4:	00d036b3          	snez	a3,a3
    5fc8:	00d76733          	or	a4,a4,a3
    5fcc:	00000813          	li	a6,0
    5fd0:	f95ff06f          	j	5f64 <__subdf3+0x41c>
    5fd4:	00c5e733          	or	a4,a1,a2
    5fd8:	00e03733          	snez	a4,a4
    5fdc:	ff1ff06f          	j	5fcc <__subdf3+0x484>
    5fe0:	0e080463          	beqz	a6,60c8 <__subdf3+0x580>
    5fe4:	41488833          	sub	a6,a7,s4
    5fe8:	040a1263          	bnez	s4,602c <__subdf3+0x4e4>
    5fec:	00a7e733          	or	a4,a5,a0
    5ff0:	02070463          	beqz	a4,6018 <__subdf3+0x4d0>
    5ff4:	fff80713          	addi	a4,a6,-1
    5ff8:	00071e63          	bnez	a4,6014 <__subdf3+0x4cc>
    5ffc:	40a60533          	sub	a0,a2,a0
    6000:	40f585b3          	sub	a1,a1,a5
    6004:	00a63633          	sltu	a2,a2,a0
    6008:	40c587b3          	sub	a5,a1,a2
    600c:	00068993          	mv	s3,a3
    6010:	f15ff06f          	j	5f24 <__subdf3+0x3dc>
    6014:	02681463          	bne	a6,t1,603c <__subdf3+0x4f4>
    6018:	00068993          	mv	s3,a3
    601c:	00058793          	mv	a5,a1
    6020:	00060513          	mv	a0,a2
    6024:	00080a13          	mv	s4,a6
    6028:	be1ff06f          	j	5c08 <__subdf3+0xc0>
    602c:	28688263          	beq	a7,t1,62b0 <__subdf3+0x768>
    6030:	00800737          	lui	a4,0x800
    6034:	00e7e7b3          	or	a5,a5,a4
    6038:	00080713          	mv	a4,a6
    603c:	03800813          	li	a6,56
    6040:	06e84e63          	blt	a6,a4,60bc <__subdf3+0x574>
    6044:	01f00813          	li	a6,31
    6048:	02000e13          	li	t3,32
    604c:	04e84063          	blt	a6,a4,608c <__subdf3+0x544>
    6050:	40ee0e33          	sub	t3,t3,a4
    6054:	00e55333          	srl	t1,a0,a4
    6058:	01c79833          	sll	a6,a5,t3
    605c:	01c51e33          	sll	t3,a0,t3
    6060:	00686833          	or	a6,a6,t1
    6064:	01c03e33          	snez	t3,t3
    6068:	01c86533          	or	a0,a6,t3
    606c:	00e7d733          	srl	a4,a5,a4
    6070:	40a60533          	sub	a0,a2,a0
    6074:	40e58733          	sub	a4,a1,a4
    6078:	00a63633          	sltu	a2,a2,a0
    607c:	40c707b3          	sub	a5,a4,a2
    6080:	00088a13          	mv	s4,a7
    6084:	00068993          	mv	s3,a3
    6088:	ef1ff06f          	j	5f78 <__subdf3+0x430>
    608c:	fe070813          	addi	a6,a4,-32 # 7fffe0 <__stack_top+0x7f3680>
    6090:	0107d833          	srl	a6,a5,a6
    6094:	00000313          	li	t1,0
    6098:	01c70863          	beq	a4,t3,60a8 <__subdf3+0x560>
    609c:	04000313          	li	t1,64
    60a0:	40e30333          	sub	t1,t1,a4
    60a4:	00679333          	sll	t1,a5,t1
    60a8:	00a36333          	or	t1,t1,a0
    60ac:	00603333          	snez	t1,t1
    60b0:	00686533          	or	a0,a6,t1
    60b4:	00000713          	li	a4,0
    60b8:	fb9ff06f          	j	6070 <__subdf3+0x528>
    60bc:	00a7e533          	or	a0,a5,a0
    60c0:	00a03533          	snez	a0,a0
    60c4:	ff1ff06f          	j	60b4 <__subdf3+0x56c>
    60c8:	001a0713          	addi	a4,s4,1
    60cc:	7fe77713          	andi	a4,a4,2046
    60d0:	0a071263          	bnez	a4,6174 <__subdf3+0x62c>
    60d4:	00c5e733          	or	a4,a1,a2
    60d8:	00a7e833          	or	a6,a5,a0
    60dc:	060a1863          	bnez	s4,614c <__subdf3+0x604>
    60e0:	02081263          	bnez	a6,6104 <__subdf3+0x5bc>
    60e4:	1e070063          	beqz	a4,62c4 <__subdf3+0x77c>
    60e8:	00068993          	mv	s3,a3
    60ec:	00b66533          	or	a0,a2,a1
    60f0:	12050263          	beqz	a0,6214 <__subdf3+0x6cc>
    60f4:	00058793          	mv	a5,a1
    60f8:	00060513          	mv	a0,a2
    60fc:	00000a13          	li	s4,0
    6100:	db1ff06f          	j	5eb0 <__subdf3+0x368>
    6104:	18070263          	beqz	a4,6288 <__subdf3+0x740>
    6108:	40c50833          	sub	a6,a0,a2
    610c:	010538b3          	sltu	a7,a0,a6
    6110:	40b78733          	sub	a4,a5,a1
    6114:	41170733          	sub	a4,a4,a7
    6118:	00871893          	slli	a7,a4,0x8
    611c:	0008de63          	bgez	a7,6138 <__subdf3+0x5f0>
    6120:	40a60533          	sub	a0,a2,a0
    6124:	00a63733          	sltu	a4,a2,a0
    6128:	40f585b3          	sub	a1,a1,a5
    612c:	00050613          	mv	a2,a0
    6130:	40e585b3          	sub	a1,a1,a4
    6134:	fb5ff06f          	j	60e8 <__subdf3+0x5a0>
    6138:	00e86533          	or	a0,a6,a4
    613c:	18050863          	beqz	a0,62cc <__subdf3+0x784>
    6140:	00070593          	mv	a1,a4
    6144:	00080613          	mv	a2,a6
    6148:	fa5ff06f          	j	60ec <__subdf3+0x5a4>
    614c:	00081e63          	bnez	a6,6168 <__subdf3+0x620>
    6150:	00068993          	mv	s3,a3
    6154:	14071063          	bnez	a4,6294 <__subdf3+0x74c>
    6158:	00000993          	li	s3,0
    615c:	004007b7          	lui	a5,0x400
    6160:	00000513          	li	a0,0
    6164:	1380006f          	j	629c <__subdf3+0x754>
    6168:	00030a13          	mv	s4,t1
    616c:	a8070ee3          	beqz	a4,5c08 <__subdf3+0xc0>
    6170:	d09ff06f          	j	5e78 <__subdf3+0x330>
    6174:	40c50733          	sub	a4,a0,a2
    6178:	00e53833          	sltu	a6,a0,a4
    617c:	40b78933          	sub	s2,a5,a1
    6180:	41090933          	sub	s2,s2,a6
    6184:	00891813          	slli	a6,s2,0x8
    6188:	00070a93          	mv	s5,a4
    618c:	06085e63          	bgez	a6,6208 <__subdf3+0x6c0>
    6190:	40a60ab3          	sub	s5,a2,a0
    6194:	40f58933          	sub	s2,a1,a5
    6198:	01563633          	sltu	a2,a2,s5
    619c:	40c90933          	sub	s2,s2,a2
    61a0:	00068993          	mv	s3,a3
    61a4:	06090e63          	beqz	s2,6220 <__subdf3+0x6d8>
    61a8:	00090513          	mv	a0,s2
    61ac:	318000ef          	jal	64c4 <__clzsi2>
    61b0:	ff850613          	addi	a2,a0,-8 # fff8 <__stack_top+0x3698>
    61b4:	02000693          	li	a3,32
    61b8:	40c686b3          	sub	a3,a3,a2
    61bc:	00c91933          	sll	s2,s2,a2
    61c0:	00dad6b3          	srl	a3,s5,a3
    61c4:	0126e6b3          	or	a3,a3,s2
    61c8:	00ca9933          	sll	s2,s5,a2
    61cc:	0b464263          	blt	a2,s4,6270 <__subdf3+0x728>
    61d0:	41460633          	sub	a2,a2,s4
    61d4:	00160593          	addi	a1,a2,1 # 7ff00001 <__stack_top+0x7fef36a1>
    61d8:	01f00793          	li	a5,31
    61dc:	02000713          	li	a4,32
    61e0:	06b7c063          	blt	a5,a1,6240 <__subdf3+0x6f8>
    61e4:	40b70733          	sub	a4,a4,a1
    61e8:	00e69633          	sll	a2,a3,a4
    61ec:	00b957b3          	srl	a5,s2,a1
    61f0:	00e91733          	sll	a4,s2,a4
    61f4:	00f66633          	or	a2,a2,a5
    61f8:	00e03733          	snez	a4,a4
    61fc:	00e66633          	or	a2,a2,a4
    6200:	00b6d5b3          	srl	a1,a3,a1
    6204:	ee9ff06f          	j	60ec <__subdf3+0x5a4>
    6208:	01276533          	or	a0,a4,s2
    620c:	f8051ce3          	bnez	a0,61a4 <__subdf3+0x65c>
    6210:	00000993          	li	s3,0
    6214:	00000793          	li	a5,0
    6218:	00000a13          	li	s4,0
    621c:	9edff06f          	j	5c08 <__subdf3+0xc0>
    6220:	000a8513          	mv	a0,s5
    6224:	2a0000ef          	jal	64c4 <__clzsi2>
    6228:	01850613          	addi	a2,a0,24
    622c:	01f00793          	li	a5,31
    6230:	f8c7d2e3          	bge	a5,a2,61b4 <__subdf3+0x66c>
    6234:	ff850693          	addi	a3,a0,-8
    6238:	00da96b3          	sll	a3,s5,a3
    623c:	f91ff06f          	j	61cc <__subdf3+0x684>
    6240:	fe160613          	addi	a2,a2,-31
    6244:	00c6d633          	srl	a2,a3,a2
    6248:	00000793          	li	a5,0
    624c:	00e58863          	beq	a1,a4,625c <__subdf3+0x714>
    6250:	04000793          	li	a5,64
    6254:	40b787b3          	sub	a5,a5,a1
    6258:	00f697b3          	sll	a5,a3,a5
    625c:	00f967b3          	or	a5,s2,a5
    6260:	00f037b3          	snez	a5,a5
    6264:	00f66633          	or	a2,a2,a5
    6268:	00000593          	li	a1,0
    626c:	e81ff06f          	j	60ec <__subdf3+0x5a4>
    6270:	ff8007b7          	lui	a5,0xff800
    6274:	fff78793          	addi	a5,a5,-1 # ff7fffff <__stack_top+0xff7f369f>
    6278:	40ca0a33          	sub	s4,s4,a2
    627c:	00f6f7b3          	and	a5,a3,a5
    6280:	00090513          	mv	a0,s2
    6284:	c2dff06f          	j	5eb0 <__subdf3+0x368>
    6288:	00078593          	mv	a1,a5
    628c:	00050613          	mv	a2,a0
    6290:	e5dff06f          	j	60ec <__subdf3+0x5a4>
    6294:	00058793          	mv	a5,a1
    6298:	00060513          	mv	a0,a2
    629c:	00030a13          	mv	s4,t1
    62a0:	969ff06f          	j	5c08 <__subdf3+0xc0>
    62a4:	00070a13          	mv	s4,a4
    62a8:	00000793          	li	a5,0
    62ac:	bd5ff06f          	j	5e80 <__subdf3+0x338>
    62b0:	00068993          	mv	s3,a3
    62b4:	00058793          	mv	a5,a1
    62b8:	00060513          	mv	a0,a2
    62bc:	00088a13          	mv	s4,a7
    62c0:	949ff06f          	j	5c08 <__subdf3+0xc0>
    62c4:	00000993          	li	s3,0
    62c8:	fe1ff06f          	j	62a8 <__subdf3+0x760>
    62cc:	00000993          	li	s3,0
    62d0:	00000793          	li	a5,0
    62d4:	935ff06f          	j	5c08 <__subdf3+0xc0>

000062d8 <__fixunsdfsi>:
    62d8:	0145d713          	srli	a4,a1,0x14
    62dc:	00100837          	lui	a6,0x100
    62e0:	fff80793          	addi	a5,a6,-1 # fffff <__stack_top+0xf369f>
    62e4:	7ff77713          	andi	a4,a4,2047
    62e8:	3fe00613          	li	a2,1022
    62ec:	00b7f7b3          	and	a5,a5,a1
    62f0:	00050693          	mv	a3,a0
    62f4:	01f5d593          	srli	a1,a1,0x1f
    62f8:	04e65a63          	bge	a2,a4,634c <__fixunsdfsi+0x74>
    62fc:	41f00613          	li	a2,1055
    6300:	40b60633          	sub	a2,a2,a1
    6304:	fff58513          	addi	a0,a1,-1
    6308:	04c75463          	bge	a4,a2,6350 <__fixunsdfsi+0x78>
    630c:	00000513          	li	a0,0
    6310:	04059063          	bnez	a1,6350 <__fixunsdfsi+0x78>
    6314:	43300613          	li	a2,1075
    6318:	40e60633          	sub	a2,a2,a4
    631c:	01f00593          	li	a1,31
    6320:	0107e7b3          	or	a5,a5,a6
    6324:	00c5cc63          	blt	a1,a2,633c <__fixunsdfsi+0x64>
    6328:	bed70713          	addi	a4,a4,-1043
    632c:	00e797b3          	sll	a5,a5,a4
    6330:	00c6d533          	srl	a0,a3,a2
    6334:	00a7e533          	or	a0,a5,a0
    6338:	00008067          	ret
    633c:	41300693          	li	a3,1043
    6340:	40e68733          	sub	a4,a3,a4
    6344:	00e7d533          	srl	a0,a5,a4
    6348:	00008067          	ret
    634c:	00000513          	li	a0,0
    6350:	00008067          	ret

00006354 <__floatunsidf>:
    6354:	ff010113          	addi	sp,sp,-16
    6358:	01212023          	sw	s2,0(sp)
    635c:	00112623          	sw	ra,12(sp)
    6360:	00812423          	sw	s0,8(sp)
    6364:	00912223          	sw	s1,4(sp)
    6368:	00050913          	mv	s2,a0
    636c:	06050663          	beqz	a0,63d8 <__floatunsidf+0x84>
    6370:	154000ef          	jal	64c4 <__clzsi2>
    6374:	41e00713          	li	a4,1054
    6378:	00a00793          	li	a5,10
    637c:	40a70733          	sub	a4,a4,a0
    6380:	04a7c463          	blt	a5,a0,63c8 <__floatunsidf+0x74>
    6384:	00b00793          	li	a5,11
    6388:	40a787b3          	sub	a5,a5,a0
    638c:	01550513          	addi	a0,a0,21
    6390:	00f957b3          	srl	a5,s2,a5
    6394:	00a91933          	sll	s2,s2,a0
    6398:	00c12083          	lw	ra,12(sp)
    639c:	00812403          	lw	s0,8(sp)
    63a0:	00c79793          	slli	a5,a5,0xc
    63a4:	01471713          	slli	a4,a4,0x14
    63a8:	00c7d793          	srli	a5,a5,0xc
    63ac:	00f766b3          	or	a3,a4,a5
    63b0:	00412483          	lw	s1,4(sp)
    63b4:	00090513          	mv	a0,s2
    63b8:	00068593          	mv	a1,a3
    63bc:	00012903          	lw	s2,0(sp)
    63c0:	01010113          	addi	sp,sp,16
    63c4:	00008067          	ret
    63c8:	ff550513          	addi	a0,a0,-11
    63cc:	00a917b3          	sll	a5,s2,a0
    63d0:	00000913          	li	s2,0
    63d4:	fc5ff06f          	j	6398 <__floatunsidf+0x44>
    63d8:	00000793          	li	a5,0
    63dc:	00000713          	li	a4,0
    63e0:	fb9ff06f          	j	6398 <__floatunsidf+0x44>

000063e4 <__fixunsdfdi>:
    63e4:	001006b7          	lui	a3,0x100
    63e8:	0145d613          	srli	a2,a1,0x14
    63ec:	fff68793          	addi	a5,a3,-1 # fffff <__stack_top+0xf369f>
    63f0:	7ff67613          	andi	a2,a2,2047
    63f4:	3fe00713          	li	a4,1022
    63f8:	00b7f7b3          	and	a5,a5,a1
    63fc:	08c75463          	bge	a4,a2,6484 <__fixunsdfdi+0xa0>
    6400:	01f5d593          	srli	a1,a1,0x1f
    6404:	43f00713          	li	a4,1087
    6408:	40b70733          	sub	a4,a4,a1
    640c:	02e65863          	bge	a2,a4,643c <__fixunsdfdi+0x58>
    6410:	06059a63          	bnez	a1,6484 <__fixunsdfdi+0xa0>
    6414:	00d7e5b3          	or	a1,a5,a3
    6418:	43200793          	li	a5,1074
    641c:	02c7d663          	bge	a5,a2,6448 <__fixunsdfdi+0x64>
    6420:	ff010113          	addi	sp,sp,-16
    6424:	bcd60613          	addi	a2,a2,-1075
    6428:	00112623          	sw	ra,12(sp)
    642c:	060000ef          	jal	648c <__ashldi3>
    6430:	00c12083          	lw	ra,12(sp)
    6434:	01010113          	addi	sp,sp,16
    6438:	00008067          	ret
    643c:	fff58513          	addi	a0,a1,-1
    6440:	00050593          	mv	a1,a0
    6444:	00008067          	ret
    6448:	43300793          	li	a5,1075
    644c:	40c787b3          	sub	a5,a5,a2
    6450:	01f00713          	li	a4,31
    6454:	00f74e63          	blt	a4,a5,6470 <__fixunsdfdi+0x8c>
    6458:	bed60613          	addi	a2,a2,-1043
    645c:	00c59633          	sll	a2,a1,a2
    6460:	00f55533          	srl	a0,a0,a5
    6464:	00a66533          	or	a0,a2,a0
    6468:	00f5d5b3          	srl	a1,a1,a5
    646c:	00008067          	ret
    6470:	41300513          	li	a0,1043
    6474:	40c50533          	sub	a0,a0,a2
    6478:	00a5d533          	srl	a0,a1,a0
    647c:	00000593          	li	a1,0
    6480:	00008067          	ret
    6484:	00000513          	li	a0,0
    6488:	ff5ff06f          	j	647c <__fixunsdfdi+0x98>

0000648c <__ashldi3>:
    648c:	02060063          	beqz	a2,64ac <__ashldi3+0x20>
    6490:	02000793          	li	a5,32
    6494:	40c787b3          	sub	a5,a5,a2
    6498:	00f04c63          	bgtz	a5,64b0 <__ashldi3+0x24>
    649c:	fe060613          	addi	a2,a2,-32
    64a0:	00c515b3          	sll	a1,a0,a2
    64a4:	00000713          	li	a4,0
    64a8:	00070513          	mv	a0,a4
    64ac:	00008067          	ret
    64b0:	00c51733          	sll	a4,a0,a2
    64b4:	00c595b3          	sll	a1,a1,a2
    64b8:	00f55533          	srl	a0,a0,a5
    64bc:	00a5e5b3          	or	a1,a1,a0
    64c0:	fe9ff06f          	j	64a8 <__ashldi3+0x1c>

000064c4 <__clzsi2>:
    64c4:	000107b7          	lui	a5,0x10
    64c8:	02f57a63          	bgeu	a0,a5,64fc <__clzsi2+0x38>
    64cc:	10053793          	sltiu	a5,a0,256
    64d0:	0017b793          	seqz	a5,a5
    64d4:	00379793          	slli	a5,a5,0x3
    64d8:	00008737          	lui	a4,0x8
    64dc:	02000693          	li	a3,32
    64e0:	40f686b3          	sub	a3,a3,a5
    64e4:	00f55533          	srl	a0,a0,a5
    64e8:	7e070793          	addi	a5,a4,2016 # 87e0 <__clz_tab>
    64ec:	00a787b3          	add	a5,a5,a0
    64f0:	0007c503          	lbu	a0,0(a5) # 10000 <__stack_top+0x36a0>
    64f4:	40a68533          	sub	a0,a3,a0
    64f8:	00008067          	ret
    64fc:	01000737          	lui	a4,0x1000
    6500:	01800793          	li	a5,24
    6504:	fce57ae3          	bgeu	a0,a4,64d8 <__clzsi2+0x14>
    6508:	01000793          	li	a5,16
    650c:	fcdff06f          	j	64d8 <__clzsi2+0x14>
