
pi.elf:     file format elf32-littleriscv


Disassembly of section .text:

80001000 <outp>:
80001000:	fd010113          	addi	sp,sp,-48
80001004:	00052583          	lw	a1,0(a0)
80001008:	02812423          	sw	s0,40(sp)
8000100c:	00050413          	mv	s0,a0
80001010:	80008537          	lui	a0,0x80008
80001014:	00050513          	mv	a0,a0
80001018:	02912223          	sw	s1,36(sp)
8000101c:	03212023          	sw	s2,32(sp)
80001020:	01312e23          	sw	s3,28(sp)
80001024:	01412c23          	sw	s4,24(sp)
80001028:	01512a23          	sw	s5,20(sp)
8000102c:	01612823          	sw	s6,16(sp)
80001030:	01712623          	sw	s7,12(sp)
80001034:	01812423          	sw	s8,8(sp)
80001038:	02112623          	sw	ra,44(sp)
8000103c:	00440413          	addi	s0,s0,4
80001040:	1b4010ef          	jal	800021f4 <printf>
80001044:	00100c13          	li	s8,1
80001048:	00900913          	li	s2,9
8000104c:	800084b7          	lui	s1,0x80008
80001050:	06300993          	li	s3,99
80001054:	3e700a13          	li	s4,999
80001058:	80008bb7          	lui	s7,0x80008
8000105c:	80008b37          	lui	s6,0x80008
80001060:	80008ab7          	lui	s5,0x80008
80001064:	0140006f          	j	80001078 <outp+0x78>
80001068:	001c0c13          	addi	s8,s8,1
8000106c:	4e300793          	li	a5,1251
80001070:	00440413          	addi	s0,s0,4
80001074:	04fc0a63          	beq	s8,a5,800010c8 <outp+0xc8>
80001078:	00042583          	lw	a1,0(s0)
8000107c:	08058263          	beqz	a1,80001100 <outp+0x100>
80001080:	08b95863          	bge	s2,a1,80001110 <outp+0x110>
80001084:	08b9de63          	bge	s3,a1,80001120 <outp+0x120>
80001088:	0aba5463          	bge	s4,a1,80001130 <outp+0x130>
8000108c:	01848513          	addi	a0,s1,24 # 80008018 <heap_top+0x2974>
80001090:	164010ef          	jal	800021f4 <printf>
80001094:	eeeef7b7          	lui	a5,0xeeeef
80001098:	eef78793          	addi	a5,a5,-273 # eeeeeeef <__stack_top+0x6eed8b1f>
8000109c:	02fc07b3          	mul	a5,s8,a5
800010a0:	11111737          	lui	a4,0x11111
800010a4:	11170713          	addi	a4,a4,273 # 11111111 <__heap_size+0x11104111>
800010a8:	fcf760e3          	bltu	a4,a5,80001068 <outp+0x68>
800010ac:	80008537          	lui	a0,0x80008
800010b0:	01c50513          	addi	a0,a0,28 # 8000801c <heap_top+0x2978>
800010b4:	140010ef          	jal	800021f4 <printf>
800010b8:	001c0c13          	addi	s8,s8,1
800010bc:	4e300793          	li	a5,1251
800010c0:	00440413          	addi	s0,s0,4
800010c4:	fafc1ae3          	bne	s8,a5,80001078 <outp+0x78>
800010c8:	02812403          	lw	s0,40(sp)
800010cc:	02c12083          	lw	ra,44(sp)
800010d0:	02412483          	lw	s1,36(sp)
800010d4:	02012903          	lw	s2,32(sp)
800010d8:	01c12983          	lw	s3,28(sp)
800010dc:	01812a03          	lw	s4,24(sp)
800010e0:	01412a83          	lw	s5,20(sp)
800010e4:	01012b03          	lw	s6,16(sp)
800010e8:	00c12b83          	lw	s7,12(sp)
800010ec:	00812c03          	lw	s8,8(sp)
800010f0:	80008537          	lui	a0,0x80008
800010f4:	02050513          	addi	a0,a0,32 # 80008020 <heap_top+0x297c>
800010f8:	03010113          	addi	sp,sp,48
800010fc:	0f80106f          	j	800021f4 <printf>
80001100:	80008537          	lui	a0,0x80008
80001104:	00450513          	addi	a0,a0,4 # 80008004 <heap_top+0x2960>
80001108:	0ec010ef          	jal	800021f4 <printf>
8000110c:	f89ff06f          	j	80001094 <outp+0x94>
80001110:	00ca8513          	addi	a0,s5,12 # 8000800c <heap_top+0x2968>
80001114:	0e0010ef          	jal	800021f4 <printf>
80001118:	00042583          	lw	a1,0(s0)
8000111c:	f71ff06f          	j	8000108c <outp+0x8c>
80001120:	010b0513          	addi	a0,s6,16 # 80008010 <heap_top+0x296c>
80001124:	0d0010ef          	jal	800021f4 <printf>
80001128:	00042583          	lw	a1,0(s0)
8000112c:	f61ff06f          	j	8000108c <outp+0x8c>
80001130:	014b8513          	addi	a0,s7,20 # 80008014 <heap_top+0x2970>
80001134:	0c0010ef          	jal	800021f4 <printf>
80001138:	00042583          	lw	a1,0(s0)
8000113c:	f51ff06f          	j	8000108c <outp+0x8c>

80001140 <add>:
80001140:	000018b7          	lui	a7,0x1
80001144:	39088893          	addi	a7,a7,912 # 1390 <__stack_size+0x390>
80001148:	00000793          	li	a5,0
8000114c:	00f586b3          	add	a3,a1,a5
80001150:	00f50733          	add	a4,a0,a5
80001154:	0006a803          	lw	a6,0(a3)
80001158:	00072703          	lw	a4,0(a4)
8000115c:	00f606b3          	add	a3,a2,a5
80001160:	00478793          	addi	a5,a5,4
80001164:	01070733          	add	a4,a4,a6
80001168:	00e6a023          	sw	a4,0(a3)
8000116c:	ff1790e3          	bne	a5,a7,8000114c <add+0xc>
80001170:	000017b7          	lui	a5,0x1
80001174:	38878793          	addi	a5,a5,904 # 1388 <__stack_size+0x388>
80001178:	00002837          	lui	a6,0x2
8000117c:	ffffe537          	lui	a0,0xffffe
80001180:	00f607b3          	add	a5,a2,a5
80001184:	70f80813          	addi	a6,a6,1807 # 270f <__stack_size+0x170f>
80001188:	8f050513          	addi	a0,a0,-1808 # ffffd8f0 <__stack_top+0x7ffe7520>
8000118c:	0047a703          	lw	a4,4(a5)
80001190:	ffc78693          	addi	a3,a5,-4
80001194:	00a705b3          	add	a1,a4,a0
80001198:	00e85a63          	bge	a6,a4,800011ac <add+0x6c>
8000119c:	0007a703          	lw	a4,0(a5)
800011a0:	00b7a223          	sw	a1,4(a5)
800011a4:	00170713          	addi	a4,a4,1
800011a8:	00e7a023          	sw	a4,0(a5)
800011ac:	00f60663          	beq	a2,a5,800011b8 <add+0x78>
800011b0:	00068793          	mv	a5,a3
800011b4:	fd9ff06f          	j	8000118c <add+0x4c>
800011b8:	00008067          	ret

800011bc <sub>:
800011bc:	000018b7          	lui	a7,0x1
800011c0:	39088893          	addi	a7,a7,912 # 1390 <__stack_size+0x390>
800011c4:	00000793          	li	a5,0
800011c8:	00f586b3          	add	a3,a1,a5
800011cc:	00f50733          	add	a4,a0,a5
800011d0:	0006a803          	lw	a6,0(a3)
800011d4:	00072703          	lw	a4,0(a4)
800011d8:	00f606b3          	add	a3,a2,a5
800011dc:	00478793          	addi	a5,a5,4
800011e0:	41070733          	sub	a4,a4,a6
800011e4:	00e6a023          	sw	a4,0(a3)
800011e8:	ff1790e3          	bne	a5,a7,800011c8 <sub+0xc>
800011ec:	000017b7          	lui	a5,0x1
800011f0:	38878793          	addi	a5,a5,904 # 1388 <__stack_size+0x388>
800011f4:	00f607b3          	add	a5,a2,a5
800011f8:	0047a703          	lw	a4,4(a5)
800011fc:	00002537          	lui	a0,0x2
80001200:	71050513          	addi	a0,a0,1808 # 2710 <__stack_size+0x1710>
80001204:	ffc78693          	addi	a3,a5,-4
80001208:	00a705b3          	add	a1,a4,a0
8000120c:	00074e63          	bltz	a4,80001228 <sub+0x6c>
80001210:	02f60663          	beq	a2,a5,8000123c <sub+0x80>
80001214:	00068793          	mv	a5,a3
80001218:	0047a703          	lw	a4,4(a5)
8000121c:	ffc78693          	addi	a3,a5,-4
80001220:	00a705b3          	add	a1,a4,a0
80001224:	fe0756e3          	bgez	a4,80001210 <sub+0x54>
80001228:	0007a703          	lw	a4,0(a5)
8000122c:	00b7a223          	sw	a1,4(a5)
80001230:	fff70713          	addi	a4,a4,-1
80001234:	00e7a023          	sw	a4,0(a5)
80001238:	fcf61ee3          	bne	a2,a5,80001214 <sub+0x58>
8000123c:	00008067          	ret

80001240 <mul>:
80001240:	000018b7          	lui	a7,0x1
80001244:	38c88893          	addi	a7,a7,908 # 138c <__stack_size+0x38c>
80001248:	68db9e37          	lui	t3,0x68db9
8000124c:	ffffe337          	lui	t1,0xffffe
80001250:	011506b3          	add	a3,a0,a7
80001254:	bade0e13          	addi	t3,t3,-1107 # 68db8bad <__heap_size+0x68dabbad>
80001258:	011608b3          	add	a7,a2,a7
8000125c:	8f030313          	addi	t1,t1,-1808 # ffffd8f0 <__stack_top+0x7ffe7520>
80001260:	00000713          	li	a4,0
80001264:	0006a783          	lw	a5,0(a3)
80001268:	ffc68693          	addi	a3,a3,-4
8000126c:	ffc88893          	addi	a7,a7,-4
80001270:	02f587b3          	mul	a5,a1,a5
80001274:	00e787b3          	add	a5,a5,a4
80001278:	03c79733          	mulh	a4,a5,t3
8000127c:	41f7d813          	srai	a6,a5,0x1f
80001280:	40c75713          	srai	a4,a4,0xc
80001284:	41070733          	sub	a4,a4,a6
80001288:	02670833          	mul	a6,a4,t1
8000128c:	00f807b3          	add	a5,a6,a5
80001290:	00f8a223          	sw	a5,4(a7)
80001294:	fcd518e3          	bne	a0,a3,80001264 <mul+0x24>
80001298:	00052783          	lw	a5,0(a0)
8000129c:	00e787b3          	add	a5,a5,a4
800012a0:	00f62023          	sw	a5,0(a2)
800012a4:	00008067          	ret

800012a8 <divl>:
800012a8:	00001737          	lui	a4,0x1
800012ac:	38c70813          	addi	a6,a4,908 # 138c <__stack_size+0x38c>
800012b0:	000028b7          	lui	a7,0x2
800012b4:	00052783          	lw	a5,0(a0)
800012b8:	00060713          	mv	a4,a2
800012bc:	00450513          	addi	a0,a0,4
800012c0:	01060833          	add	a6,a2,a6
800012c4:	71088893          	addi	a7,a7,1808 # 2710 <__stack_size+0x1710>
800012c8:	02b7e6b3          	rem	a3,a5,a1
800012cc:	00470713          	addi	a4,a4,4
800012d0:	00450513          	addi	a0,a0,4
800012d4:	02b7c7b3          	div	a5,a5,a1
800012d8:	031686b3          	mul	a3,a3,a7
800012dc:	fef72e23          	sw	a5,-4(a4)
800012e0:	ffc52783          	lw	a5,-4(a0)
800012e4:	00f687b3          	add	a5,a3,a5
800012e8:	ff0710e3          	bne	a4,a6,800012c8 <divl+0x20>
800012ec:	02b7c7b3          	div	a5,a5,a1
800012f0:	00001737          	lui	a4,0x1
800012f4:	00e60633          	add	a2,a2,a4
800012f8:	38f62623          	sw	a5,908(a2)
800012fc:	00008067          	ret

80001300 <termno>:
80001300:	ff010113          	addi	sp,sp,-16
80001304:	00050793          	mv	a5,a0
80001308:	00112623          	sw	ra,12(sp)
8000130c:	00812423          	sw	s0,8(sp)
80001310:	00912223          	sw	s1,4(sp)
80001314:	00500713          	li	a4,5
80001318:	00058513          	mv	a0,a1
8000131c:	06e78063          	beq	a5,a4,8000137c <termno+0x7c>
80001320:	00a00713          	li	a4,10
80001324:	02e78063          	beq	a5,a4,80001344 <termno+0x44>
80001328:	0ef00713          	li	a4,239
8000132c:	06e78863          	beq	a5,a4,8000139c <termno+0x9c>
80001330:	20300713          	li	a4,515
80001334:	04e78c63          	beq	a5,a4,8000138c <termno+0x8c>
80001338:	80005437          	lui	s0,0x80005
8000133c:	68042483          	lw	s1,1664(s0) # 80005680 <__clzsi2+0x5c>
80001340:	0100006f          	j	80001350 <termno+0x50>
80001344:	800057b7          	lui	a5,0x80005
80001348:	6747a483          	lw	s1,1652(a5) # 80005674 <__clzsi2+0x50>
8000134c:	80005437          	lui	s0,0x80005
80001350:	18c040ef          	jal	800054dc <__floatsisf>
80001354:	00048593          	mv	a1,s1
80001358:	5f9030ef          	jal	80005150 <__mulsf3>
8000135c:	68042583          	lw	a1,1664(s0) # 80005680 <__clzsi2+0x5c>
80001360:	1c1030ef          	jal	80004d20 <__addsf3>
80001364:	108040ef          	jal	8000546c <__fixsfsi>
80001368:	00c12083          	lw	ra,12(sp)
8000136c:	00812403          	lw	s0,8(sp)
80001370:	00412483          	lw	s1,4(sp)
80001374:	01010113          	addi	sp,sp,16
80001378:	00008067          	ret
8000137c:	800057b7          	lui	a5,0x80005
80001380:	6707a483          	lw	s1,1648(a5) # 80005670 <__clzsi2+0x4c>
80001384:	80005437          	lui	s0,0x80005
80001388:	fc9ff06f          	j	80001350 <termno+0x50>
8000138c:	800057b7          	lui	a5,0x80005
80001390:	67c7a483          	lw	s1,1660(a5) # 8000567c <__clzsi2+0x58>
80001394:	80005437          	lui	s0,0x80005
80001398:	fb9ff06f          	j	80001350 <termno+0x50>
8000139c:	800057b7          	lui	a5,0x80005
800013a0:	6787a483          	lw	s1,1656(a5) # 80005678 <__clzsi2+0x54>
800013a4:	80005437          	lui	s0,0x80005
800013a8:	fa9ff06f          	j	80001350 <termno+0x50>

800013ac <arctan>:
800013ac:	800087b7          	lui	a5,0x80008
800013b0:	fb010113          	addi	sp,sp,-80
800013b4:	3b87a603          	lw	a2,952(a5) # 800083b8 <one>
800013b8:	800087b7          	lui	a5,0x80008
800013bc:	03a12023          	sw	s10,32(sp)
800013c0:	3ac7ad03          	lw	s10,940(a5) # 800083ac <pwr>
800013c4:	00001737          	lui	a4,0x1
800013c8:	38c70713          	addi	a4,a4,908 # 138c <__stack_size+0x38c>
800013cc:	000026b7          	lui	a3,0x2
800013d0:	00062783          	lw	a5,0(a2)
800013d4:	03412c23          	sw	s4,56(sp)
800013d8:	03812423          	sw	s8,40(sp)
800013dc:	00b12423          	sw	a1,8(sp)
800013e0:	00ed0c33          	add	s8,s10,a4
800013e4:	04112623          	sw	ra,76(sp)
800013e8:	04812423          	sw	s0,72(sp)
800013ec:	04912223          	sw	s1,68(sp)
800013f0:	05212023          	sw	s2,64(sp)
800013f4:	03312e23          	sw	s3,60(sp)
800013f8:	03512a23          	sw	s5,52(sp)
800013fc:	03612823          	sw	s6,48(sp)
80001400:	03712623          	sw	s7,44(sp)
80001404:	03912223          	sw	s9,36(sp)
80001408:	01b12e23          	sw	s11,28(sp)
8000140c:	00050a13          	mv	s4,a0
80001410:	00460613          	addi	a2,a2,4
80001414:	000d0713          	mv	a4,s10
80001418:	71068593          	addi	a1,a3,1808 # 2710 <__stack_size+0x1710>
8000141c:	0347e6b3          	rem	a3,a5,s4
80001420:	00470713          	addi	a4,a4,4
80001424:	00460613          	addi	a2,a2,4
80001428:	0347c7b3          	div	a5,a5,s4
8000142c:	02b686b3          	mul	a3,a3,a1
80001430:	fef72e23          	sw	a5,-4(a4)
80001434:	ffc62783          	lw	a5,-4(a2)
80001438:	00f687b3          	add	a5,a3,a5
8000143c:	ff8710e3          	bne	a4,s8,8000141c <arctan+0x70>
80001440:	0347c7b3          	div	a5,a5,s4
80001444:	000015b7          	lui	a1,0x1
80001448:	00058613          	mv	a2,a1
8000144c:	00812683          	lw	a3,8(sp)
80001450:	00bd05b3          	add	a1,s10,a1
80001454:	39060613          	addi	a2,a2,912
80001458:	00cd0633          	add	a2,s10,a2
8000145c:	000d0713          	mv	a4,s10
80001460:	38f5a623          	sw	a5,908(a1) # 138c <__stack_size+0x38c>
80001464:	00072783          	lw	a5,0(a4)
80001468:	00470713          	addi	a4,a4,4
8000146c:	00468693          	addi	a3,a3,4
80001470:	fef6ae23          	sw	a5,-4(a3)
80001474:	fec718e3          	bne	a4,a2,80001464 <arctan+0xb8>
80001478:	000014b7          	lui	s1,0x1
8000147c:	00500793          	li	a5,5
80001480:	dfc48493          	addi	s1,s1,-516 # dfc <__stack_size-0x204>
80001484:	02fa0863          	beq	s4,a5,800014b4 <arctan+0x108>
80001488:	000014b7          	lui	s1,0x1
8000148c:	00a00793          	li	a5,10
80001490:	9c648493          	addi	s1,s1,-1594 # 9c6 <__stack_size-0x63a>
80001494:	02fa0063          	beq	s4,a5,800014b4 <arctan+0x108>
80001498:	0ef00793          	li	a5,239
8000149c:	41c00493          	li	s1,1052
800014a0:	00fa0a63          	beq	s4,a5,800014b4 <arctan+0x108>
800014a4:	000014b7          	lui	s1,0x1
800014a8:	20300793          	li	a5,515
800014ac:	38d48493          	addi	s1,s1,909 # 138d <__stack_size+0x38d>
800014b0:	14fa0863          	beq	s4,a5,80001600 <arctan+0x254>
800014b4:	800087b7          	lui	a5,0x80008
800014b8:	3a87a403          	lw	s0,936(a5) # 800083a8 <trm>
800014bc:	00001bb7          	lui	s7,0x1
800014c0:	00001937          	lui	s2,0x1
800014c4:	38cb8b93          	addi	s7,s7,908 # 138c <__stack_size+0x38c>
800014c8:	00002ab7          	lui	s5,0x2
800014cc:	00440793          	addi	a5,s0,4 # 80005004 <__addsf3+0x2e4>
800014d0:	012409b3          	add	s3,s0,s2
800014d4:	00f12623          	sw	a5,12(sp)
800014d8:	01740bb3          	add	s7,s0,s7
800014dc:	012d0933          	add	s2,s10,s2
800014e0:	710a8a93          	addi	s5,s5,1808 # 2710 <__stack_size+0x1710>
800014e4:	00300b13          	li	s6,3
800014e8:	00100c93          	li	s9,1
800014ec:	004d0d93          	addi	s11,s10,4
800014f0:	000d2783          	lw	a5,0(s10)
800014f4:	00040693          	mv	a3,s0
800014f8:	000d8613          	mv	a2,s11
800014fc:	000d8893          	mv	a7,s11
80001500:	00040513          	mv	a0,s0
80001504:	0347e833          	rem	a6,a5,s4
80001508:	00450513          	addi	a0,a0,4
8000150c:	00488893          	addi	a7,a7,4
80001510:	0347c7b3          	div	a5,a5,s4
80001514:	03580833          	mul	a6,a6,s5
80001518:	fef52e23          	sw	a5,-4(a0)
8000151c:	ffc8a783          	lw	a5,-4(a7)
80001520:	00f807b3          	add	a5,a6,a5
80001524:	ff7510e3          	bne	a0,s7,80001504 <arctan+0x158>
80001528:	0347c7b3          	div	a5,a5,s4
8000152c:	00c12883          	lw	a7,12(sp)
80001530:	000d0513          	mv	a0,s10
80001534:	38f9a623          	sw	a5,908(s3)
80001538:	00042783          	lw	a5,0(s0)
8000153c:	0347e833          	rem	a6,a5,s4
80001540:	00450513          	addi	a0,a0,4
80001544:	00488893          	addi	a7,a7,4
80001548:	0347c7b3          	div	a5,a5,s4
8000154c:	03580833          	mul	a6,a6,s5
80001550:	fef52e23          	sw	a5,-4(a0)
80001554:	ffc8a783          	lw	a5,-4(a7)
80001558:	00f807b3          	add	a5,a6,a5
8000155c:	ff8510e3          	bne	a0,s8,8000153c <arctan+0x190>
80001560:	0347c7b3          	div	a5,a5,s4
80001564:	38f92623          	sw	a5,908(s2) # 138c <__stack_size+0x38c>
80001568:	000d2783          	lw	a5,0(s10)
8000156c:	0367e533          	rem	a0,a5,s6
80001570:	00468693          	addi	a3,a3,4
80001574:	00460613          	addi	a2,a2,4
80001578:	0367c7b3          	div	a5,a5,s6
8000157c:	03550533          	mul	a0,a0,s5
80001580:	fef6ae23          	sw	a5,-4(a3)
80001584:	ffc62783          	lw	a5,-4(a2)
80001588:	00f507b3          	add	a5,a0,a5
8000158c:	ff7690e3          	bne	a3,s7,8000156c <arctan+0x1c0>
80001590:	0367c7b3          	div	a5,a5,s6
80001594:	00812603          	lw	a2,8(sp)
80001598:	001cf693          	andi	a3,s9,1
8000159c:	00040593          	mv	a1,s0
800015a0:	00060513          	mv	a0,a2
800015a4:	38f9a623          	sw	a5,908(s3)
800015a8:	04068863          	beqz	a3,800015f8 <arctan+0x24c>
800015ac:	c11ff0ef          	jal	800011bc <sub>
800015b0:	001c8c93          	addi	s9,s9,1
800015b4:	002b0b13          	addi	s6,s6,2
800015b8:	f394dce3          	bge	s1,s9,800014f0 <arctan+0x144>
800015bc:	04c12083          	lw	ra,76(sp)
800015c0:	04812403          	lw	s0,72(sp)
800015c4:	04412483          	lw	s1,68(sp)
800015c8:	04012903          	lw	s2,64(sp)
800015cc:	03c12983          	lw	s3,60(sp)
800015d0:	03812a03          	lw	s4,56(sp)
800015d4:	03412a83          	lw	s5,52(sp)
800015d8:	03012b03          	lw	s6,48(sp)
800015dc:	02c12b83          	lw	s7,44(sp)
800015e0:	02812c03          	lw	s8,40(sp)
800015e4:	02412c83          	lw	s9,36(sp)
800015e8:	02012d03          	lw	s10,32(sp)
800015ec:	01c12d83          	lw	s11,28(sp)
800015f0:	05010113          	addi	sp,sp,80
800015f4:	00008067          	ret
800015f8:	b49ff0ef          	jal	80001140 <add>
800015fc:	fb5ff06f          	j	800015b0 <arctan+0x204>
80001600:	39b00493          	li	s1,923
80001604:	eb1ff06f          	j	800014b4 <arctan+0x108>

80001608 <main>:
80001608:	000015b7          	lui	a1,0x1
8000160c:	80008537          	lui	a0,0x80008
80001610:	fd010113          	addi	sp,sp,-48
80001614:	38858593          	addi	a1,a1,904 # 1388 <__stack_size+0x388>
80001618:	02450513          	addi	a0,a0,36 # 80008024 <heap_top+0x2980>
8000161c:	02112623          	sw	ra,44(sp)
80001620:	02912223          	sw	s1,36(sp)
80001624:	03212023          	sw	s2,32(sp)
80001628:	01312e23          	sw	s3,28(sp)
8000162c:	01412c23          	sw	s4,24(sp)
80001630:	01612823          	sw	s6,16(sp)
80001634:	02812423          	sw	s0,40(sp)
80001638:	01512a23          	sw	s5,20(sp)
8000163c:	01712623          	sw	s7,12(sp)
80001640:	3b5000ef          	jal	800021f4 <printf>
80001644:	00001537          	lui	a0,0x1
80001648:	39050513          	addi	a0,a0,912 # 1390 <__stack_size+0x390>
8000164c:	639000ef          	jal	80002484 <malloc>
80001650:	00050793          	mv	a5,a0
80001654:	00001537          	lui	a0,0x1
80001658:	800089b7          	lui	s3,0x80008
8000165c:	39050513          	addi	a0,a0,912 # 1390 <__stack_size+0x390>
80001660:	3af9ac23          	sw	a5,952(s3) # 800083b8 <one>
80001664:	621000ef          	jal	80002484 <malloc>
80001668:	00050793          	mv	a5,a0
8000166c:	00001537          	lui	a0,0x1
80001670:	80008937          	lui	s2,0x80008
80001674:	39050513          	addi	a0,a0,912 # 1390 <__stack_size+0x390>
80001678:	3af92a23          	sw	a5,948(s2) # 800083b4 <temp>
8000167c:	609000ef          	jal	80002484 <malloc>
80001680:	00050793          	mv	a5,a0
80001684:	00001537          	lui	a0,0x1
80001688:	800084b7          	lui	s1,0x80008
8000168c:	39050513          	addi	a0,a0,912 # 1390 <__stack_size+0x390>
80001690:	3af4a823          	sw	a5,944(s1) # 800083b0 <pi>
80001694:	5f1000ef          	jal	80002484 <malloc>
80001698:	00050793          	mv	a5,a0
8000169c:	00001537          	lui	a0,0x1
800016a0:	80008a37          	lui	s4,0x80008
800016a4:	39050513          	addi	a0,a0,912 # 1390 <__stack_size+0x390>
800016a8:	3afa2623          	sw	a5,940(s4) # 800083ac <pwr>
800016ac:	5d9000ef          	jal	80002484 <malloc>
800016b0:	3b89a783          	lw	a5,952(s3)
800016b4:	3b492603          	lw	a2,948(s2)
800016b8:	3b04a683          	lw	a3,944(s1)
800016bc:	3aca2703          	lw	a4,940(s4)
800016c0:	00c7f633          	and	a2,a5,a2
800016c4:	00c6f6b3          	and	a3,a3,a2
800016c8:	00d77733          	and	a4,a4,a3
800016cc:	80008b37          	lui	s6,0x80008
800016d0:	00e57733          	and	a4,a0,a4
800016d4:	3aab2423          	sw	a0,936(s6) # 800083a8 <trm>
800016d8:	10070e63          	beqz	a4,800017f4 <main+0x1ec>
800016dc:	00001737          	lui	a4,0x1
800016e0:	39070713          	addi	a4,a4,912 # 1390 <__stack_size+0x390>
800016e4:	00100693          	li	a3,1
800016e8:	00e78733          	add	a4,a5,a4
800016ec:	00d7a023          	sw	a3,0(a5)
800016f0:	00478793          	addi	a5,a5,4
800016f4:	0007a023          	sw	zero,0(a5)
800016f8:	00478793          	addi	a5,a5,4
800016fc:	fee79ce3          	bne	a5,a4,800016f4 <main+0xec>
80001700:	270010ef          	jal	80002970 <clock>
80001704:	3b492403          	lw	s0,948(s2)
80001708:	00050a93          	mv	s5,a0
8000170c:	00500513          	li	a0,5
80001710:	00040593          	mv	a1,s0
80001714:	c99ff0ef          	jal	800013ac <arctan>
80001718:	3b04ab83          	lw	s7,944(s1)
8000171c:	00040513          	mv	a0,s0
80001720:	01000593          	li	a1,16
80001724:	000b8613          	mv	a2,s7
80001728:	b19ff0ef          	jal	80001240 <mul>
8000172c:	00040593          	mv	a1,s0
80001730:	0ef00513          	li	a0,239
80001734:	c79ff0ef          	jal	800013ac <arctan>
80001738:	00040613          	mv	a2,s0
8000173c:	00040513          	mv	a0,s0
80001740:	00400593          	li	a1,4
80001744:	afdff0ef          	jal	80001240 <mul>
80001748:	000b8613          	mv	a2,s7
8000174c:	00040593          	mv	a1,s0
80001750:	000b8513          	mv	a0,s7
80001754:	a69ff0ef          	jal	800011bc <sub>
80001758:	218010ef          	jal	80002970 <clock>
8000175c:	00050793          	mv	a5,a0
80001760:	80008537          	lui	a0,0x80008
80001764:	05c50513          	addi	a0,a0,92 # 8000805c <heap_top+0x29b8>
80001768:	41578ab3          	sub	s5,a5,s5
8000176c:	289000ef          	jal	800021f4 <printf>
80001770:	3b04a503          	lw	a0,944(s1)
80001774:	88dff0ef          	jal	80001000 <outp>
80001778:	106257b7          	lui	a5,0x10625
8000177c:	dd378793          	addi	a5,a5,-557 # 10624dd3 <__heap_size+0x10617dd3>
80001780:	02fab5b3          	mulhu	a1,s5,a5
80001784:	00001637          	lui	a2,0x1
80001788:	80008537          	lui	a0,0x80008
8000178c:	38860613          	addi	a2,a2,904 # 1388 <__stack_size+0x388>
80001790:	06450513          	addi	a0,a0,100 # 80008064 <heap_top+0x29c0>
80001794:	0065d593          	srli	a1,a1,0x6
80001798:	25d000ef          	jal	800021f4 <printf>
8000179c:	3b89a503          	lw	a0,952(s3)
800017a0:	611000ef          	jal	800025b0 <free>
800017a4:	3b492503          	lw	a0,948(s2)
800017a8:	609000ef          	jal	800025b0 <free>
800017ac:	3b04a503          	lw	a0,944(s1)
800017b0:	601000ef          	jal	800025b0 <free>
800017b4:	3aca2503          	lw	a0,940(s4)
800017b8:	5f9000ef          	jal	800025b0 <free>
800017bc:	3a8b2503          	lw	a0,936(s6)
800017c0:	5f1000ef          	jal	800025b0 <free>
800017c4:	02c12083          	lw	ra,44(sp)
800017c8:	02812403          	lw	s0,40(sp)
800017cc:	02412483          	lw	s1,36(sp)
800017d0:	02012903          	lw	s2,32(sp)
800017d4:	01c12983          	lw	s3,28(sp)
800017d8:	01812a03          	lw	s4,24(sp)
800017dc:	01412a83          	lw	s5,20(sp)
800017e0:	01012b03          	lw	s6,16(sp)
800017e4:	00c12b83          	lw	s7,12(sp)
800017e8:	00000513          	li	a0,0
800017ec:	03010113          	addi	sp,sp,48
800017f0:	00008067          	ret
800017f4:	80008537          	lui	a0,0x80008
800017f8:	04450513          	addi	a0,a0,68 # 80008044 <heap_top+0x29a0>
800017fc:	1f9000ef          	jal	800021f4 <printf>
80001800:	00100513          	li	a0,1
80001804:	435000ef          	jal	80002438 <exit>
80001808:	3b89a783          	lw	a5,952(s3)
8000180c:	ed1ff06f          	j	800016dc <main+0xd4>

80001810 <crt0>:
80001810:	ff010113          	addi	sp,sp,-16
80001814:	00112623          	sw	ra,12(sp)
80001818:	800082b7          	lui	t0,0x80008
8000181c:	3a22ae23          	sw	sp,956(t0) # 800083bc <sp_store>
80001820:	800082b7          	lui	t0,0x80008
80001824:	37c2a103          	lw	sp,892(t0) # 8000837c <stack_top>
80001828:	de1ff0ef          	jal	80001608 <main>
8000182c:	800082b7          	lui	t0,0x80008
80001830:	3bc2a103          	lw	sp,956(t0) # 800083bc <sp_store>
80001834:	00c12083          	lw	ra,12(sp)
80001838:	01010113          	addi	sp,sp,16
8000183c:	00008067          	ret

80001840 <getchar>:
80001840:	ff010113          	addi	sp,sp,-16
80001844:	00112623          	sw	ra,12(sp)
80001848:	1f8010ef          	jal	80002a40 <inbyte>
8000184c:	00c12083          	lw	ra,12(sp)
80001850:	01010113          	addi	sp,sp,16
80001854:	00008067          	ret

80001858 <putchar>:
80001858:	ff010113          	addi	sp,sp,-16
8000185c:	00812423          	sw	s0,8(sp)
80001860:	00050413          	mv	s0,a0
80001864:	0ff57513          	zext.b	a0,a0
80001868:	00112623          	sw	ra,12(sp)
8000186c:	1f8010ef          	jal	80002a64 <outbyte>
80001870:	00c12083          	lw	ra,12(sp)
80001874:	00040513          	mv	a0,s0
80001878:	00812403          	lw	s0,8(sp)
8000187c:	01010113          	addi	sp,sp,16
80001880:	00008067          	ret

80001884 <fputs>:
80001884:	800087b7          	lui	a5,0x80008
80001888:	3847a783          	lw	a5,900(a5) # 80008384 <stdout>
8000188c:	ff010113          	addi	sp,sp,-16
80001890:	00112623          	sw	ra,12(sp)
80001894:	00812423          	sw	s0,8(sp)
80001898:	04b78263          	beq	a5,a1,800018dc <fputs+0x58>
8000189c:	80008437          	lui	s0,0x80008
800018a0:	09440413          	addi	s0,s0,148 # 80008094 <heap_top+0x29f0>
800018a4:	00a00513          	li	a0,10
800018a8:	00140413          	addi	s0,s0,1
800018ac:	1b8010ef          	jal	80002a64 <outbyte>
800018b0:	00044503          	lbu	a0,0(s0)
800018b4:	fe051ae3          	bnez	a0,800018a8 <fputs+0x24>
800018b8:	00a00513          	li	a0,10
800018bc:	1a8010ef          	jal	80002a64 <outbyte>
800018c0:	00a00513          	li	a0,10
800018c4:	1a0010ef          	jal	80002a64 <outbyte>
800018c8:	00c12083          	lw	ra,12(sp)
800018cc:	00812403          	lw	s0,8(sp)
800018d0:	00a00513          	li	a0,10
800018d4:	01010113          	addi	sp,sp,16
800018d8:	00008067          	ret
800018dc:	00050413          	mv	s0,a0
800018e0:	00054503          	lbu	a0,0(a0)
800018e4:	fc050ee3          	beqz	a0,800018c0 <fputs+0x3c>
800018e8:	00140413          	addi	s0,s0,1
800018ec:	178010ef          	jal	80002a64 <outbyte>
800018f0:	00044503          	lbu	a0,0(s0)
800018f4:	fe051ae3          	bnez	a0,800018e8 <fputs+0x64>
800018f8:	00a00513          	li	a0,10
800018fc:	168010ef          	jal	80002a64 <outbyte>
80001900:	00c12083          	lw	ra,12(sp)
80001904:	00812403          	lw	s0,8(sp)
80001908:	00a00513          	li	a0,10
8000190c:	01010113          	addi	sp,sp,16
80001910:	00008067          	ret

80001914 <fgets>:
80001914:	800087b7          	lui	a5,0x80008
80001918:	3887a783          	lw	a5,904(a5) # 80008388 <stdin>
8000191c:	fe010113          	addi	sp,sp,-32
80001920:	00112e23          	sw	ra,28(sp)
80001924:	00812c23          	sw	s0,24(sp)
80001928:	06c79e63          	bne	a5,a2,800019a4 <fgets+0x90>
8000192c:	00912a23          	sw	s1,20(sp)
80001930:	01212823          	sw	s2,16(sp)
80001934:	01312623          	sw	s3,12(sp)
80001938:	01412423          	sw	s4,8(sp)
8000193c:	00050493          	mv	s1,a0
80001940:	00050413          	mv	s0,a0
80001944:	00a00913          	li	s2,10
80001948:	00d00993          	li	s3,13
8000194c:	00b50a33          	add	s4,a0,a1
80001950:	00059c63          	bnez	a1,80001968 <fgets+0x54>
80001954:	0200006f          	j	80001974 <fgets+0x60>
80001958:	01350e63          	beq	a0,s3,80001974 <fgets+0x60>
8000195c:	00140413          	addi	s0,s0,1
80001960:	104010ef          	jal	80002a64 <outbyte>
80001964:	01440863          	beq	s0,s4,80001974 <fgets+0x60>
80001968:	0d8010ef          	jal	80002a40 <inbyte>
8000196c:	00a40023          	sb	a0,0(s0)
80001970:	ff2514e3          	bne	a0,s2,80001958 <fgets+0x44>
80001974:	00a00513          	li	a0,10
80001978:	0ec010ef          	jal	80002a64 <outbyte>
8000197c:	00040023          	sb	zero,0(s0)
80001980:	01c12083          	lw	ra,28(sp)
80001984:	01812403          	lw	s0,24(sp)
80001988:	01012903          	lw	s2,16(sp)
8000198c:	00c12983          	lw	s3,12(sp)
80001990:	00812a03          	lw	s4,8(sp)
80001994:	00048513          	mv	a0,s1
80001998:	01412483          	lw	s1,20(sp)
8000199c:	02010113          	addi	sp,sp,32
800019a0:	00008067          	ret
800019a4:	80008437          	lui	s0,0x80008
800019a8:	0c040413          	addi	s0,s0,192 # 800080c0 <heap_top+0x2a1c>
800019ac:	00a00513          	li	a0,10
800019b0:	00140413          	addi	s0,s0,1
800019b4:	0b0010ef          	jal	80002a64 <outbyte>
800019b8:	00044503          	lbu	a0,0(s0)
800019bc:	fe051ae3          	bnez	a0,800019b0 <fgets+0x9c>
800019c0:	00a00513          	li	a0,10
800019c4:	0a0010ef          	jal	80002a64 <outbyte>
800019c8:	01c12083          	lw	ra,28(sp)
800019cc:	01812403          	lw	s0,24(sp)
800019d0:	00000513          	li	a0,0
800019d4:	02010113          	addi	sp,sp,32
800019d8:	00008067          	ret

800019dc <putd>:
800019dc:	fd010113          	addi	sp,sp,-48
800019e0:	00d03733          	snez	a4,a3
800019e4:	3b9ad7b7          	lui	a5,0x3b9ad
800019e8:	ccccd8b7          	lui	a7,0xccccd
800019ec:	03212023          	sw	s2,32(sp)
800019f0:	02112623          	sw	ra,44(sp)
800019f4:	02812423          	sw	s0,40(sp)
800019f8:	02912223          	sw	s1,36(sp)
800019fc:	01312e23          	sw	s3,28(sp)
80001a00:	00068913          	mv	s2,a3
80001a04:	40e585b3          	sub	a1,a1,a4
80001a08:	a0078793          	addi	a5,a5,-1536 # 3b9aca00 <__heap_size+0x3b99fa00>
80001a0c:	ccd88893          	addi	a7,a7,-819 # cccccccd <__stack_top+0x4ccb68fd>
80001a10:	00a00813          	li	a6,10
80001a14:	0317b6b3          	mulhu	a3,a5,a7
80001a18:	00078713          	mv	a4,a5
80001a1c:	0036d793          	srli	a5,a3,0x3
80001a20:	04e56e63          	bltu	a0,a4,80001a7c <putd+0xa0>
80001a24:	ccccdf37          	lui	t5,0xccccd
80001a28:	ccdf0f13          	addi	t5,t5,-819 # cccccccd <__stack_top+0x4ccb68fd>
80001a2c:	00000413          	li	s0,0
80001a30:	00050e13          	mv	t3,a0
80001a34:	02e57533          	remu	a0,a0,a4
80001a38:	00070313          	mv	t1,a4
80001a3c:	00040893          	mv	a7,s0
80001a40:	00288eb3          	add	t4,a7,sp
80001a44:	00140413          	addi	s0,s0,1
80001a48:	fff80813          	addi	a6,a6,-1
80001a4c:	00078713          	mv	a4,a5
80001a50:	00040893          	mv	a7,s0
80001a54:	026e56b3          	divu	a3,t3,t1
80001a58:	00078313          	mv	t1,a5
80001a5c:	00050e13          	mv	t3,a0
80001a60:	03068693          	addi	a3,a3,48
80001a64:	00de8023          	sb	a3,0(t4)
80001a68:	08080663          	beqz	a6,80001af4 <putd+0x118>
80001a6c:	03e7b7b3          	mulhu	a5,a5,t5
80001a70:	0037d793          	srli	a5,a5,0x3
80001a74:	fae57ee3          	bgeu	a0,a4,80001a30 <putd+0x54>
80001a78:	fc9ff06f          	j	80001a40 <putd+0x64>
80001a7c:	fff80813          	addi	a6,a6,-1
80001a80:	f8081ae3          	bnez	a6,80001a14 <putd+0x38>
80001a84:	00100993          	li	s3,1
80001a88:	03000793          	li	a5,48
80001a8c:	00098413          	mv	s0,s3
80001a90:	00f10023          	sb	a5,0(sp)
80001a94:	002407b3          	add	a5,s0,sp
80001a98:	00078023          	sb	zero,0(a5)
80001a9c:	fff58493          	addi	s1,a1,-1
80001aa0:	06060863          	beqz	a2,80001b10 <putd+0x134>
80001aa4:	0a091263          	bnez	s2,80001b48 <putd+0x16c>
80001aa8:	fff40913          	addi	s2,s0,-1
80001aac:	0084ca63          	blt	s1,s0,80001ac0 <putd+0xe4>
80001ab0:	03000513          	li	a0,48
80001ab4:	fff48493          	addi	s1,s1,-1
80001ab8:	7ad000ef          	jal	80002a64 <outbyte>
80001abc:	fe991ae3          	bne	s2,s1,80001ab0 <putd+0xd4>
80001ac0:	00010413          	mv	s0,sp
80001ac4:	002989b3          	add	s3,s3,sp
80001ac8:	00044503          	lbu	a0,0(s0)
80001acc:	00140413          	addi	s0,s0,1
80001ad0:	795000ef          	jal	80002a64 <outbyte>
80001ad4:	ff341ae3          	bne	s0,s3,80001ac8 <putd+0xec>
80001ad8:	02c12083          	lw	ra,44(sp)
80001adc:	02812403          	lw	s0,40(sp)
80001ae0:	02412483          	lw	s1,36(sp)
80001ae4:	02012903          	lw	s2,32(sp)
80001ae8:	01c12983          	lw	s3,28(sp)
80001aec:	03010113          	addi	sp,sp,48
80001af0:	00008067          	ret
80001af4:	00014783          	lbu	a5,0(sp)
80001af8:	00040993          	mv	s3,s0
80001afc:	fff58493          	addi	s1,a1,-1
80001b00:	00f10023          	sb	a5,0(sp)
80001b04:	002407b3          	add	a5,s0,sp
80001b08:	00078023          	sb	zero,0(a5)
80001b0c:	f8061ce3          	bnez	a2,80001aa4 <putd+0xc8>
80001b10:	01412c23          	sw	s4,24(sp)
80001b14:	fff40a13          	addi	s4,s0,-1
80001b18:	0084ca63          	blt	s1,s0,80001b2c <putd+0x150>
80001b1c:	02000513          	li	a0,32
80001b20:	fff48493          	addi	s1,s1,-1
80001b24:	741000ef          	jal	80002a64 <outbyte>
80001b28:	ff449ae3          	bne	s1,s4,80001b1c <putd+0x140>
80001b2c:	00091663          	bnez	s2,80001b38 <putd+0x15c>
80001b30:	01812a03          	lw	s4,24(sp)
80001b34:	f8dff06f          	j	80001ac0 <putd+0xe4>
80001b38:	02d00513          	li	a0,45
80001b3c:	729000ef          	jal	80002a64 <outbyte>
80001b40:	01812a03          	lw	s4,24(sp)
80001b44:	f7dff06f          	j	80001ac0 <putd+0xe4>
80001b48:	02d00513          	li	a0,45
80001b4c:	719000ef          	jal	80002a64 <outbyte>
80001b50:	fff40913          	addi	s2,s0,-1
80001b54:	f484dee3          	bge	s1,s0,80001ab0 <putd+0xd4>
80001b58:	f69ff06f          	j	80001ac0 <putd+0xe4>

80001b5c <putx>:
80001b5c:	01f6d793          	srli	a5,a3,0x1f
80001b60:	00f688b3          	add	a7,a3,a5
80001b64:	0018f893          	andi	a7,a7,1
80001b68:	fd010113          	addi	sp,sp,-48
80001b6c:	40f888b3          	sub	a7,a7,a5
80001b70:	80008737          	lui	a4,0x80008
80001b74:	800087b7          	lui	a5,0x80008
80001b78:	10078793          	addi	a5,a5,256 # 80008100 <heap_top+0x2a5c>
80001b7c:	00289893          	slli	a7,a7,0x2
80001b80:	00c10693          	addi	a3,sp,12
80001b84:	0ec70713          	addi	a4,a4,236 # 800080ec <heap_top+0x2a48>
80001b88:	02812423          	sw	s0,40(sp)
80001b8c:	00f12823          	sw	a5,16(sp)
80001b90:	02112623          	sw	ra,44(sp)
80001b94:	02912223          	sw	s1,36(sp)
80001b98:	00d888b3          	add	a7,a7,a3
80001b9c:	00e12623          	sw	a4,12(sp)
80001ba0:	01c00793          	li	a5,28
80001ba4:	00000413          	li	s0,0
80001ba8:	00100313          	li	t1,1
80001bac:	02000e93          	li	t4,32
80001bb0:	ffc00e13          	li	t3,-4
80001bb4:	02c0006f          	j	80001be0 <putx+0x84>
80001bb8:	00040713          	mv	a4,s0
80001bbc:	0c031063          	bnez	t1,80001c7c <putx+0x120>
80001bc0:	0008a683          	lw	a3,0(a7)
80001bc4:	00270733          	add	a4,a4,sp
80001bc8:	ffc78793          	addi	a5,a5,-4
80001bcc:	010686b3          	add	a3,a3,a6
80001bd0:	0006c683          	lbu	a3,0(a3)
80001bd4:	00140413          	addi	s0,s0,1
80001bd8:	00d70a23          	sb	a3,20(a4)
80001bdc:	05c78063          	beq	a5,t3,80001c1c <putx+0xc0>
80001be0:	00f55833          	srl	a6,a0,a5
80001be4:	fc080ae3          	beqz	a6,80001bb8 <putx+0x5c>
80001be8:	40fe8733          	sub	a4,t4,a5
80001bec:	00e51533          	sll	a0,a0,a4
80001bf0:	00e55533          	srl	a0,a0,a4
80001bf4:	00000313          	li	t1,0
80001bf8:	00040713          	mv	a4,s0
80001bfc:	0008a683          	lw	a3,0(a7)
80001c00:	00270733          	add	a4,a4,sp
80001c04:	ffc78793          	addi	a5,a5,-4
80001c08:	010686b3          	add	a3,a3,a6
80001c0c:	0006c683          	lbu	a3,0(a3)
80001c10:	00140413          	addi	s0,s0,1
80001c14:	00d70a23          	sb	a3,20(a4)
80001c18:	fdc794e3          	bne	a5,t3,80001be0 <putx+0x84>
80001c1c:	002407b3          	add	a5,s0,sp
80001c20:	fff58493          	addi	s1,a1,-1
80001c24:	00078a23          	sb	zero,20(a5)
80001c28:	0284c463          	blt	s1,s0,80001c50 <putx+0xf4>
80001c2c:	03212023          	sw	s2,32(sp)
80001c30:	fff40913          	addi	s2,s0,-1
80001c34:	06060c63          	beqz	a2,80001cac <putx+0x150>
80001c38:	03000513          	li	a0,48
80001c3c:	fff48493          	addi	s1,s1,-1
80001c40:	625000ef          	jal	80002a64 <outbyte>
80001c44:	fe991ae3          	bne	s2,s1,80001c38 <putx+0xdc>
80001c48:	02012903          	lw	s2,32(sp)
80001c4c:	00040e63          	beqz	s0,80001c68 <putx+0x10c>
80001c50:	01410493          	addi	s1,sp,20
80001c54:	00940433          	add	s0,s0,s1
80001c58:	0004c503          	lbu	a0,0(s1)
80001c5c:	00148493          	addi	s1,s1,1
80001c60:	605000ef          	jal	80002a64 <outbyte>
80001c64:	fe941ae3          	bne	s0,s1,80001c58 <putx+0xfc>
80001c68:	02c12083          	lw	ra,44(sp)
80001c6c:	02812403          	lw	s0,40(sp)
80001c70:	02412483          	lw	s1,36(sp)
80001c74:	03010113          	addi	sp,sp,48
80001c78:	00008067          	ret
80001c7c:	f40612e3          	bnez	a2,80001bc0 <putx+0x64>
80001c80:	ffc00713          	li	a4,-4
80001c84:	ffc78793          	addi	a5,a5,-4
80001c88:	00f55833          	srl	a6,a0,a5
80001c8c:	04e78263          	beq	a5,a4,80001cd0 <putx+0x174>
80001c90:	fe080ae3          	beqz	a6,80001c84 <putx+0x128>
80001c94:	40fe8733          	sub	a4,t4,a5
80001c98:	00e51533          	sll	a0,a0,a4
80001c9c:	00e55533          	srl	a0,a0,a4
80001ca0:	00000313          	li	t1,0
80001ca4:	00040713          	mv	a4,s0
80001ca8:	f55ff06f          	j	80001bfc <putx+0xa0>
80001cac:	02000513          	li	a0,32
80001cb0:	fff48493          	addi	s1,s1,-1
80001cb4:	5b1000ef          	jal	80002a64 <outbyte>
80001cb8:	f89908e3          	beq	s2,s1,80001c48 <putx+0xec>
80001cbc:	02000513          	li	a0,32
80001cc0:	fff48493          	addi	s1,s1,-1
80001cc4:	5a1000ef          	jal	80002a64 <outbyte>
80001cc8:	fe9912e3          	bne	s2,s1,80001cac <putx+0x150>
80001ccc:	f7dff06f          	j	80001c48 <putx+0xec>
80001cd0:	002407b3          	add	a5,s0,sp
80001cd4:	fff58493          	addi	s1,a1,-1
80001cd8:	00078a23          	sb	zero,20(a5)
80001cdc:	f484d8e3          	bge	s1,s0,80001c2c <putx+0xd0>
80001ce0:	f6dff06f          	j	80001c4c <putx+0xf0>

80001ce4 <putld>:
80001ce4:	f9010113          	addi	sp,sp,-112
80001ce8:	05312e23          	sw	s3,92(sp)
80001cec:	05712623          	sw	s7,76(sp)
80001cf0:	06112623          	sw	ra,108(sp)
80001cf4:	06812423          	sw	s0,104(sp)
80001cf8:	06912223          	sw	s1,100(sp)
80001cfc:	07212023          	sw	s2,96(sp)
80001d00:	05412c23          	sw	s4,88(sp)
80001d04:	05512a23          	sw	s5,84(sp)
80001d08:	05612823          	sw	s6,80(sp)
80001d0c:	05812423          	sw	s8,72(sp)
80001d10:	05912223          	sw	s9,68(sp)
80001d14:	05a12023          	sw	s10,64(sp)
80001d18:	03b12e23          	sw	s11,60(sp)
80001d1c:	00e12223          	sw	a4,4(sp)
80001d20:	00c12423          	sw	a2,8(sp)
80001d24:	00d12623          	sw	a3,12(sp)
80001d28:	00050b93          	mv	s7,a0
80001d2c:	00058993          	mv	s3,a1
80001d30:	22071a63          	bnez	a4,80001f64 <putld+0x280>
80001d34:	2805c463          	bltz	a1,80001fbc <putld+0x2d8>
80001d38:	ccccdd37          	lui	s10,0xccccd
80001d3c:	000d0c93          	mv	s9,s10
80001d40:	016346b7          	lui	a3,0x1634
80001d44:	57868a13          	addi	s4,a3,1400 # 1634578 <__heap_size+0x1627578>
80001d48:	ccdd0d13          	addi	s10,s10,-819 # cccccccd <__stack_top+0x4ccb68fd>
80001d4c:	cccc8c93          	addi	s9,s9,-820
80001d50:	000b8493          	mv	s1,s7
80001d54:	00098913          	mv	s2,s3
80001d58:	01200a93          	li	s5,18
80001d5c:	5d8a0437          	lui	s0,0x5d8a0
80001d60:	00040613          	mv	a2,s0
80001d64:	000a0693          	mv	a3,s4
80001d68:	000b8513          	mv	a0,s7
80001d6c:	00098593          	mv	a1,s3
80001d70:	541000ef          	jal	80002ab0 <__udivdi3>
80001d74:	014407b3          	add	a5,s0,s4
80001d78:	0087b733          	sltu	a4,a5,s0
80001d7c:	00e787b3          	add	a5,a5,a4
80001d80:	03a7b733          	mulhu	a4,a5,s10
80001d84:	00040b13          	mv	s6,s0
80001d88:	000a0c13          	mv	s8,s4
80001d8c:	00050813          	mv	a6,a0
80001d90:	00275693          	srli	a3,a4,0x2
80001d94:	ffc77713          	andi	a4,a4,-4
80001d98:	00d70733          	add	a4,a4,a3
80001d9c:	40e787b3          	sub	a5,a5,a4
80001da0:	40f407b3          	sub	a5,s0,a5
80001da4:	00f436b3          	sltu	a3,s0,a5
80001da8:	40da06b3          	sub	a3,s4,a3
80001dac:	03978633          	mul	a2,a5,s9
80001db0:	03a686b3          	mul	a3,a3,s10
80001db4:	03a7b733          	mulhu	a4,a5,s10
80001db8:	00c686b3          	add	a3,a3,a2
80001dbc:	03a787b3          	mul	a5,a5,s10
80001dc0:	00e686b3          	add	a3,a3,a4
80001dc4:	01f69613          	slli	a2,a3,0x1f
80001dc8:	0016da13          	srli	s4,a3,0x1
80001dcc:	0017d793          	srli	a5,a5,0x1
80001dd0:	00f66433          	or	s0,a2,a5
80001dd4:	0e050663          	beqz	a0,80001ec0 <putld+0x1dc>
80001dd8:	ccccddb7          	lui	s11,0xccccd
80001ddc:	000d8993          	mv	s3,s11
80001de0:	ccc98993          	addi	s3,s3,-820
80001de4:	ccdd8d93          	addi	s11,s11,-819 # cccccccd <__stack_top+0x4ccb68fd>
80001de8:	00000d13          	li	s10,0
80001dec:	030c0bb3          	mul	s7,s8,a6
80001df0:	000d0313          	mv	t1,s10
80001df4:	000a0c13          	mv	s8,s4
80001df8:	036837b3          	mulhu	a5,a6,s6
80001dfc:	03680cb3          	mul	s9,a6,s6
80001e00:	00fb8bb3          	add	s7,s7,a5
80001e04:	41790bb3          	sub	s7,s2,s7
80001e08:	00040b13          	mv	s6,s0
80001e0c:	41948cb3          	sub	s9,s1,s9
80001e10:	0194b4b3          	sltu	s1,s1,s9
80001e14:	409b8bb3          	sub	s7,s7,s1
80001e18:	000b8913          	mv	s2,s7
80001e1c:	000c8493          	mv	s1,s9
80001e20:	00230333          	add	t1,t1,sp
80001e24:	03080813          	addi	a6,a6,48
80001e28:	01030c23          	sb	a6,24(t1)
80001e2c:	fffa8a93          	addi	s5,s5,-1
80001e30:	000b0613          	mv	a2,s6
80001e34:	000c0693          	mv	a3,s8
80001e38:	000c8513          	mv	a0,s9
80001e3c:	000b8593          	mv	a1,s7
80001e40:	001d0d13          	addi	s10,s10,1
80001e44:	120a8463          	beqz	s5,80001f6c <putld+0x288>
80001e48:	469000ef          	jal	80002ab0 <__udivdi3>
80001e4c:	018b07b3          	add	a5,s6,s8
80001e50:	0167b733          	sltu	a4,a5,s6
80001e54:	00e787b3          	add	a5,a5,a4
80001e58:	03b7b733          	mulhu	a4,a5,s11
80001e5c:	00050813          	mv	a6,a0
80001e60:	000d0313          	mv	t1,s10
80001e64:	00275693          	srli	a3,a4,0x2
80001e68:	ffc77713          	andi	a4,a4,-4
80001e6c:	00d70733          	add	a4,a4,a3
80001e70:	40e787b3          	sub	a5,a5,a4
80001e74:	40fb07b3          	sub	a5,s6,a5
80001e78:	00fb3733          	sltu	a4,s6,a5
80001e7c:	40ec0733          	sub	a4,s8,a4
80001e80:	03378633          	mul	a2,a5,s3
80001e84:	03b70733          	mul	a4,a4,s11
80001e88:	03b7b6b3          	mulhu	a3,a5,s11
80001e8c:	00c70733          	add	a4,a4,a2
80001e90:	03b787b3          	mul	a5,a5,s11
80001e94:	00d70733          	add	a4,a4,a3
80001e98:	01f71613          	slli	a2,a4,0x1f
80001e9c:	00175713          	srli	a4,a4,0x1
80001ea0:	00070a13          	mv	s4,a4
80001ea4:	0017d793          	srli	a5,a5,0x1
80001ea8:	00f667b3          	or	a5,a2,a5
80001eac:	00078413          	mv	s0,a5
80001eb0:	f2051ee3          	bnez	a0,80001dec <putld+0x108>
80001eb4:	00078b13          	mv	s6,a5
80001eb8:	00070c13          	mv	s8,a4
80001ebc:	f65ff06f          	j	80001e20 <putld+0x13c>
80001ec0:	fffa8a93          	addi	s5,s5,-1
80001ec4:	e80a9ee3          	bnez	s5,80001d60 <putld+0x7c>
80001ec8:	00100493          	li	s1,1
80001ecc:	03000793          	li	a5,48
80001ed0:	00048d13          	mv	s10,s1
80001ed4:	00f10c23          	sb	a5,24(sp)
80001ed8:	002d07b3          	add	a5,s10,sp
80001edc:	00078c23          	sb	zero,24(a5)
80001ee0:	00812783          	lw	a5,8(sp)
80001ee4:	fff78413          	addi	s0,a5,-1
80001ee8:	00c12783          	lw	a5,12(sp)
80001eec:	0a078263          	beqz	a5,80001f90 <putld+0x2ac>
80001ef0:	00412783          	lw	a5,4(sp)
80001ef4:	0e079663          	bnez	a5,80001fe0 <putld+0x2fc>
80001ef8:	fffd0913          	addi	s2,s10,-1
80001efc:	01a44a63          	blt	s0,s10,80001f10 <putld+0x22c>
80001f00:	03000513          	li	a0,48
80001f04:	fff40413          	addi	s0,s0,-1 # 5d89ffff <__heap_size+0x5d892fff>
80001f08:	35d000ef          	jal	80002a64 <outbyte>
80001f0c:	ff241ae3          	bne	s0,s2,80001f00 <putld+0x21c>
80001f10:	01810413          	addi	s0,sp,24
80001f14:	009404b3          	add	s1,s0,s1
80001f18:	00044503          	lbu	a0,0(s0)
80001f1c:	00140413          	addi	s0,s0,1
80001f20:	345000ef          	jal	80002a64 <outbyte>
80001f24:	fe941ae3          	bne	s0,s1,80001f18 <putld+0x234>
80001f28:	06c12083          	lw	ra,108(sp)
80001f2c:	06812403          	lw	s0,104(sp)
80001f30:	06412483          	lw	s1,100(sp)
80001f34:	06012903          	lw	s2,96(sp)
80001f38:	05c12983          	lw	s3,92(sp)
80001f3c:	05812a03          	lw	s4,88(sp)
80001f40:	05412a83          	lw	s5,84(sp)
80001f44:	05012b03          	lw	s6,80(sp)
80001f48:	04c12b83          	lw	s7,76(sp)
80001f4c:	04812c03          	lw	s8,72(sp)
80001f50:	04412c83          	lw	s9,68(sp)
80001f54:	04012d03          	lw	s10,64(sp)
80001f58:	03c12d83          	lw	s11,60(sp)
80001f5c:	07010113          	addi	sp,sp,112
80001f60:	00008067          	ret
80001f64:	00012223          	sw	zero,4(sp)
80001f68:	dd1ff06f          	j	80001d38 <putld+0x54>
80001f6c:	01814783          	lbu	a5,24(sp)
80001f70:	000d0493          	mv	s1,s10
80001f74:	00f10c23          	sb	a5,24(sp)
80001f78:	002d07b3          	add	a5,s10,sp
80001f7c:	00078c23          	sb	zero,24(a5)
80001f80:	00812783          	lw	a5,8(sp)
80001f84:	fff78413          	addi	s0,a5,-1
80001f88:	00c12783          	lw	a5,12(sp)
80001f8c:	f60792e3          	bnez	a5,80001ef0 <putld+0x20c>
80001f90:	fffd0913          	addi	s2,s10,-1
80001f94:	01a44a63          	blt	s0,s10,80001fa8 <putld+0x2c4>
80001f98:	02000513          	li	a0,32
80001f9c:	fff40413          	addi	s0,s0,-1
80001fa0:	2c5000ef          	jal	80002a64 <outbyte>
80001fa4:	ff241ae3          	bne	s0,s2,80001f98 <putld+0x2b4>
80001fa8:	00412783          	lw	a5,4(sp)
80001fac:	f60782e3          	beqz	a5,80001f10 <putld+0x22c>
80001fb0:	02d00513          	li	a0,45
80001fb4:	2b1000ef          	jal	80002a64 <outbyte>
80001fb8:	f59ff06f          	j	80001f10 <putld+0x22c>
80001fbc:	00a037b3          	snez	a5,a0
80001fc0:	40b009b3          	neg	s3,a1
80001fc4:	fff60713          	addi	a4,a2,-1
80001fc8:	40f989b3          	sub	s3,s3,a5
80001fcc:	00100793          	li	a5,1
80001fd0:	00e12423          	sw	a4,8(sp)
80001fd4:	40a00bb3          	neg	s7,a0
80001fd8:	00f12223          	sw	a5,4(sp)
80001fdc:	d5dff06f          	j	80001d38 <putld+0x54>
80001fe0:	02d00513          	li	a0,45
80001fe4:	281000ef          	jal	80002a64 <outbyte>
80001fe8:	fffd0913          	addi	s2,s10,-1
80001fec:	f1a45ae3          	bge	s0,s10,80001f00 <putld+0x21c>
80001ff0:	f21ff06f          	j	80001f10 <putld+0x22c>

80001ff4 <putf>:
80001ff4:	f8010113          	addi	sp,sp,-128
80001ff8:	05812c23          	sw	s8,88(sp)
80001ffc:	06112e23          	sw	ra,124(sp)
80002000:	00070c13          	mv	s8,a4
80002004:	06812c23          	sw	s0,120(sp)
80002008:	06912a23          	sw	s1,116(sp)
8000200c:	07212823          	sw	s2,112(sp)
80002010:	07312623          	sw	s3,108(sp)
80002014:	07412423          	sw	s4,104(sp)
80002018:	05912a23          	sw	s9,84(sp)
8000201c:	05a12823          	sw	s10,80(sp)
80002020:	02a12823          	sw	a0,48(sp)
80002024:	02c12a23          	sw	a2,52(sp)
80002028:	02d12c23          	sw	a3,56(sp)
8000202c:	00058713          	mv	a4,a1
80002030:	1b805463          	blez	s8,800021d8 <putf+0x1e4>
80002034:	800056b7          	lui	a3,0x80005
80002038:	800057b7          	lui	a5,0x80005
8000203c:	80005637          	lui	a2,0x80005
80002040:	07612023          	sw	s6,96(sp)
80002044:	05712e23          	sw	s7,92(sp)
80002048:	6886a483          	lw	s1,1672(a3) # 80005688 <__clzsi2+0x64>
8000204c:	68c6a403          	lw	s0,1676(a3)
80002050:	6907a983          	lw	s3,1680(a5) # 80005690 <__clzsi2+0x6c>
80002054:	6947a903          	lw	s2,1684(a5)
80002058:	69862b03          	lw	s6,1688(a2) # 80005698 <__clzsi2+0x74>
8000205c:	69c62b83          	lw	s7,1692(a2)
80002060:	07512223          	sw	s5,100(sp)
80002064:	05b12623          	sw	s11,76(sp)
80002068:	00000c93          	li	s9,0
8000206c:	02b12e23          	sw	a1,60(sp)
80002070:	00098513          	mv	a0,s3
80002074:	00090593          	mv	a1,s2
80002078:	000b0613          	mv	a2,s6
8000207c:	000b8693          	mv	a3,s7
80002080:	5dc010ef          	jal	8000365c <__divdf3>
80002084:	00050993          	mv	s3,a0
80002088:	00058913          	mv	s2,a1
8000208c:	00048513          	mv	a0,s1
80002090:	00040593          	mv	a1,s0
80002094:	000b0613          	mv	a2,s6
80002098:	000b8693          	mv	a3,s7
8000209c:	54d010ef          	jal	80003de8 <__muldf3>
800020a0:	001c8c93          	addi	s9,s9,1
800020a4:	00050493          	mv	s1,a0
800020a8:	00058413          	mv	s0,a1
800020ac:	fd9c12e3          	bne	s8,s9,80002070 <putf+0x7c>
800020b0:	03c12703          	lw	a4,60(sp)
800020b4:	06412a83          	lw	s5,100(sp)
800020b8:	06012b03          	lw	s6,96(sp)
800020bc:	05c12b83          	lw	s7,92(sp)
800020c0:	04c12d83          	lw	s11,76(sp)
800020c4:	03012783          	lw	a5,48(sp)
800020c8:	00e12623          	sw	a4,12(sp)
800020cc:	00c12583          	lw	a1,12(sp)
800020d0:	00f12423          	sw	a5,8(sp)
800020d4:	00812503          	lw	a0,8(sp)
800020d8:	00000613          	li	a2,0
800020dc:	00000693          	li	a3,0
800020e0:	02e12e23          	sw	a4,60(sp)
800020e4:	435010ef          	jal	80003d18 <__ledf2>
800020e8:	03c12703          	lw	a4,60(sp)
800020ec:	00000a13          	li	s4,0
800020f0:	00055863          	bgez	a0,80002100 <putf+0x10c>
800020f4:	800007b7          	lui	a5,0x80000
800020f8:	00f74733          	xor	a4,a4,a5
800020fc:	00100a13          	li	s4,1
80002100:	03012d03          	lw	s10,48(sp)
80002104:	00e12e23          	sw	a4,28(sp)
80002108:	01312823          	sw	s3,16(sp)
8000210c:	01a12c23          	sw	s10,24(sp)
80002110:	01212a23          	sw	s2,20(sp)
80002114:	01012603          	lw	a2,16(sp)
80002118:	01412683          	lw	a3,20(sp)
8000211c:	01812503          	lw	a0,24(sp)
80002120:	01c12583          	lw	a1,28(sp)
80002124:	5b9000ef          	jal	80002edc <__adddf3>
80002128:	00058913          	mv	s2,a1
8000212c:	00050993          	mv	s3,a0
80002130:	23d020ef          	jal	80004b6c <__fixunsdfsi>
80002134:	03412783          	lw	a5,52(sp)
80002138:	03812603          	lw	a2,56(sp)
8000213c:	000a0693          	mv	a3,s4
80002140:	41878cb3          	sub	s9,a5,s8
80002144:	419005b3          	neg	a1,s9
80002148:	41f5d593          	srai	a1,a1,0x1f
8000214c:	fffc8c93          	addi	s9,s9,-1
80002150:	00bcf5b3          	and	a1,s9,a1
80002154:	00050a13          	mv	s4,a0
80002158:	885ff0ef          	jal	800019dc <putd>
8000215c:	02e00513          	li	a0,46
80002160:	105000ef          	jal	80002a64 <outbyte>
80002164:	000a0513          	mv	a0,s4
80002168:	281020ef          	jal	80004be8 <__floatunsidf>
8000216c:	03312023          	sw	s3,32(sp)
80002170:	03212223          	sw	s2,36(sp)
80002174:	00050613          	mv	a2,a0
80002178:	00058693          	mv	a3,a1
8000217c:	02012503          	lw	a0,32(sp)
80002180:	02412583          	lw	a1,36(sp)
80002184:	258020ef          	jal	800043dc <__subdf3>
80002188:	02912423          	sw	s1,40(sp)
8000218c:	02812623          	sw	s0,44(sp)
80002190:	02812603          	lw	a2,40(sp)
80002194:	02c12683          	lw	a3,44(sp)
80002198:	451010ef          	jal	80003de8 <__muldf3>
8000219c:	2dd020ef          	jal	80004c78 <__fixunsdfdi>
800021a0:	07812403          	lw	s0,120(sp)
800021a4:	07c12083          	lw	ra,124(sp)
800021a8:	07412483          	lw	s1,116(sp)
800021ac:	07012903          	lw	s2,112(sp)
800021b0:	06c12983          	lw	s3,108(sp)
800021b4:	06812a03          	lw	s4,104(sp)
800021b8:	05412c83          	lw	s9,84(sp)
800021bc:	05012d03          	lw	s10,80(sp)
800021c0:	000c0613          	mv	a2,s8
800021c4:	05812c03          	lw	s8,88(sp)
800021c8:	00100713          	li	a4,1
800021cc:	00070693          	mv	a3,a4
800021d0:	08010113          	addi	sp,sp,128
800021d4:	b11ff06f          	j	80001ce4 <putld>
800021d8:	800056b7          	lui	a3,0x80005
800021dc:	800057b7          	lui	a5,0x80005
800021e0:	6886a483          	lw	s1,1672(a3) # 80005688 <__clzsi2+0x64>
800021e4:	68c6a403          	lw	s0,1676(a3)
800021e8:	6907a983          	lw	s3,1680(a5) # 80005690 <__clzsi2+0x6c>
800021ec:	6947a903          	lw	s2,1684(a5)
800021f0:	ed5ff06f          	j	800020c4 <putf+0xd0>

800021f4 <printf>:
800021f4:	fa010113          	addi	sp,sp,-96
800021f8:	02812c23          	sw	s0,56(sp)
800021fc:	04f12a23          	sw	a5,84(sp)
80002200:	02112e23          	sw	ra,60(sp)
80002204:	04b12223          	sw	a1,68(sp)
80002208:	04c12423          	sw	a2,72(sp)
8000220c:	04d12623          	sw	a3,76(sp)
80002210:	04e12823          	sw	a4,80(sp)
80002214:	05012c23          	sw	a6,88(sp)
80002218:	05112e23          	sw	a7,92(sp)
8000221c:	00050413          	mv	s0,a0
80002220:	00054503          	lbu	a0,0(a0)
80002224:	04410793          	addi	a5,sp,68
80002228:	00f12623          	sw	a5,12(sp)
8000222c:	06050063          	beqz	a0,8000228c <printf+0x98>
80002230:	02912a23          	sw	s1,52(sp)
80002234:	03212823          	sw	s2,48(sp)
80002238:	03312623          	sw	s3,44(sp)
8000223c:	03412423          	sw	s4,40(sp)
80002240:	03512223          	sw	s5,36(sp)
80002244:	03612023          	sw	s6,32(sp)
80002248:	00600493          	li	s1,6
8000224c:	02500913          	li	s2,37
80002250:	00900b13          	li	s6,9
80002254:	02e00a13          	li	s4,46
80002258:	02000993          	li	s3,32
8000225c:	80008ab7          	lui	s5,0x80008
80002260:	05250063          	beq	a0,s2,800022a0 <printf+0xac>
80002264:	001000ef          	jal	80002a64 <outbyte>
80002268:	00144503          	lbu	a0,1(s0)
8000226c:	00140413          	addi	s0,s0,1
80002270:	fe0518e3          	bnez	a0,80002260 <printf+0x6c>
80002274:	03412483          	lw	s1,52(sp)
80002278:	03012903          	lw	s2,48(sp)
8000227c:	02c12983          	lw	s3,44(sp)
80002280:	02812a03          	lw	s4,40(sp)
80002284:	02412a83          	lw	s5,36(sp)
80002288:	02012b03          	lw	s6,32(sp)
8000228c:	03c12083          	lw	ra,60(sp)
80002290:	03812403          	lw	s0,56(sp)
80002294:	00000513          	li	a0,0
80002298:	06010113          	addi	sp,sp,96
8000229c:	00008067          	ret
800022a0:	00144503          	lbu	a0,1(s0)
800022a4:	00000593          	li	a1,0
800022a8:	00140413          	addi	s0,s0,1
800022ac:	fd050713          	addi	a4,a0,-48
800022b0:	0ff77793          	zext.b	a5,a4
800022b4:	00173613          	seqz	a2,a4
800022b8:	02fb6463          	bltu	s6,a5,800022e0 <printf+0xec>
800022bc:	00259793          	slli	a5,a1,0x2
800022c0:	00144503          	lbu	a0,1(s0)
800022c4:	00b787b3          	add	a5,a5,a1
800022c8:	00179793          	slli	a5,a5,0x1
800022cc:	00f705b3          	add	a1,a4,a5
800022d0:	fd050713          	addi	a4,a0,-48
800022d4:	0ff77793          	zext.b	a5,a4
800022d8:	00140413          	addi	s0,s0,1
800022dc:	fefb70e3          	bgeu	s6,a5,800022bc <printf+0xc8>
800022e0:	f9450513          	addi	a0,a0,-108
800022e4:	00153513          	seqz	a0,a0
800022e8:	00a40433          	add	s0,s0,a0
800022ec:	00044503          	lbu	a0,0(s0)
800022f0:	11450263          	beq	a0,s4,800023f4 <printf+0x200>
800022f4:	fa850793          	addi	a5,a0,-88
800022f8:	0ff7f793          	zext.b	a5,a5
800022fc:	f6f9e4e3          	bltu	s3,a5,80002264 <printf+0x70>
80002300:	00279793          	slli	a5,a5,0x2
80002304:	114a8713          	addi	a4,s5,276 # 80008114 <heap_top+0x2a70>
80002308:	00e787b3          	add	a5,a5,a4
8000230c:	0007a783          	lw	a5,0(a5)
80002310:	00078067          	jr	a5
80002314:	00c12783          	lw	a5,12(sp)
80002318:	00000693          	li	a3,0
8000231c:	0007a503          	lw	a0,0(a5)
80002320:	00478793          	addi	a5,a5,4
80002324:	00f12623          	sw	a5,12(sp)
80002328:	835ff0ef          	jal	80001b5c <putx>
8000232c:	f3dff06f          	j	80002268 <printf+0x74>
80002330:	00c12783          	lw	a5,12(sp)
80002334:	00000693          	li	a3,0
80002338:	0007a503          	lw	a0,0(a5)
8000233c:	00478793          	addi	a5,a5,4
80002340:	00f12623          	sw	a5,12(sp)
80002344:	e98ff0ef          	jal	800019dc <putd>
80002348:	f21ff06f          	j	80002268 <printf+0x74>
8000234c:	00c12783          	lw	a5,12(sp)
80002350:	01712e23          	sw	s7,28(sp)
80002354:	0007ab83          	lw	s7,0(a5)
80002358:	00478793          	addi	a5,a5,4
8000235c:	00f12623          	sw	a5,12(sp)
80002360:	000bc503          	lbu	a0,0(s7)
80002364:	00050a63          	beqz	a0,80002378 <printf+0x184>
80002368:	001b8b93          	addi	s7,s7,1
8000236c:	6f8000ef          	jal	80002a64 <outbyte>
80002370:	000bc503          	lbu	a0,0(s7)
80002374:	fe051ae3          	bnez	a0,80002368 <printf+0x174>
80002378:	01c12b83          	lw	s7,28(sp)
8000237c:	eedff06f          	j	80002268 <printf+0x74>
80002380:	00c12783          	lw	a5,12(sp)
80002384:	00060693          	mv	a3,a2
80002388:	00058613          	mv	a2,a1
8000238c:	00778793          	addi	a5,a5,7
80002390:	ff87f793          	andi	a5,a5,-8
80002394:	0007a503          	lw	a0,0(a5)
80002398:	0047a583          	lw	a1,4(a5)
8000239c:	00048713          	mv	a4,s1
800023a0:	00878793          	addi	a5,a5,8
800023a4:	00f12623          	sw	a5,12(sp)
800023a8:	c4dff0ef          	jal	80001ff4 <putf>
800023ac:	ebdff06f          	j	80002268 <printf+0x74>
800023b0:	00c12783          	lw	a5,12(sp)
800023b4:	0007a683          	lw	a3,0(a5)
800023b8:	00478793          	addi	a5,a5,4
800023bc:	00f12623          	sw	a5,12(sp)
800023c0:	41f6d793          	srai	a5,a3,0x1f
800023c4:	00d7c533          	xor	a0,a5,a3
800023c8:	40f50533          	sub	a0,a0,a5
800023cc:	01f6d693          	srli	a3,a3,0x1f
800023d0:	e0cff0ef          	jal	800019dc <putd>
800023d4:	e95ff06f          	j	80002268 <printf+0x74>
800023d8:	00c12783          	lw	a5,12(sp)
800023dc:	00100693          	li	a3,1
800023e0:	0007a503          	lw	a0,0(a5)
800023e4:	00478793          	addi	a5,a5,4
800023e8:	00f12623          	sw	a5,12(sp)
800023ec:	f70ff0ef          	jal	80001b5c <putx>
800023f0:	e79ff06f          	j	80002268 <printf+0x74>
800023f4:	00144503          	lbu	a0,1(s0)
800023f8:	00900693          	li	a3,9
800023fc:	00140413          	addi	s0,s0,1
80002400:	fd050713          	addi	a4,a0,-48
80002404:	0ff77793          	zext.b	a5,a4
80002408:	00000493          	li	s1,0
8000240c:	eef6e4e3          	bltu	a3,a5,800022f4 <printf+0x100>
80002410:	00249793          	slli	a5,s1,0x2
80002414:	00144503          	lbu	a0,1(s0)
80002418:	009787b3          	add	a5,a5,s1
8000241c:	00179793          	slli	a5,a5,0x1
80002420:	00f704b3          	add	s1,a4,a5
80002424:	fd050713          	addi	a4,a0,-48
80002428:	0ff77793          	zext.b	a5,a4
8000242c:	00140413          	addi	s0,s0,1
80002430:	fef6f0e3          	bgeu	a3,a5,80002410 <printf+0x21c>
80002434:	ec1ff06f          	j	800022f4 <printf+0x100>

80002438 <exit>:
80002438:	fe010113          	addi	sp,sp,-32
8000243c:	00112e23          	sw	ra,28(sp)
80002440:	00812c23          	sw	s0,24(sp)
80002444:	02010413          	addi	s0,sp,32
80002448:	fea42623          	sw	a0,-20(s0)
8000244c:	800087b7          	lui	a5,0x80008
80002450:	19878513          	addi	a0,a5,408 # 80008198 <heap_top+0x2af4>
80002454:	da1ff0ef          	jal	800021f4 <printf>
80002458:	fec42583          	lw	a1,-20(s0)
8000245c:	800087b7          	lui	a5,0x80008
80002460:	1e478513          	addi	a0,a5,484 # 800081e4 <heap_top+0x2b40>
80002464:	d91ff0ef          	jal	800021f4 <printf>
80002468:	800087b7          	lui	a5,0x80008
8000246c:	20878513          	addi	a0,a5,520 # 80008208 <heap_top+0x2b64>
80002470:	d85ff0ef          	jal	800021f4 <printf>
80002474:	00300513          	li	a0,3
80002478:	be0ff0ef          	jal	80001858 <putchar>
8000247c:	00000013          	nop
80002480:	ffdff06f          	j	8000247c <exit+0x44>

80002484 <malloc>:
80002484:	800088b7          	lui	a7,0x80008
80002488:	80008737          	lui	a4,0x80008
8000248c:	3a48a783          	lw	a5,932(a7) # 800083a4 <curr_top>
80002490:	3a072583          	lw	a1,928(a4) # 800083a0 <heap_end>
80002494:	00050813          	mv	a6,a0
80002498:	08b78e63          	beq	a5,a1,80002534 <malloc+0xb0>
8000249c:	02b7f263          	bgeu	a5,a1,800024c0 <malloc+0x3c>
800024a0:	0007a703          	lw	a4,0(a5)
800024a4:	00177693          	andi	a3,a4,1
800024a8:	40f70633          	sub	a2,a4,a5
800024ac:	00069463          	bnez	a3,800024b4 <malloc+0x30>
800024b0:	04c86063          	bltu	a6,a2,800024f0 <malloc+0x6c>
800024b4:	ffe77793          	andi	a5,a4,-2
800024b8:	feb7e4e3          	bltu	a5,a1,800024a0 <malloc+0x1c>
800024bc:	3a48a783          	lw	a5,932(a7)
800024c0:	80005737          	lui	a4,0x80005
800024c4:	6a472703          	lw	a4,1700(a4) # 800056a4 <heap_top>
800024c8:	02f77063          	bgeu	a4,a5,800024e8 <malloc+0x64>
800024cc:	00072683          	lw	a3,0(a4)
800024d0:	0016f613          	andi	a2,a3,1
800024d4:	40e685b3          	sub	a1,a3,a4
800024d8:	00061463          	bnez	a2,800024e0 <malloc+0x5c>
800024dc:	08b86a63          	bltu	a6,a1,80002570 <malloc+0xec>
800024e0:	ffe6f713          	andi	a4,a3,-2
800024e4:	fef764e3          	bltu	a4,a5,800024cc <malloc+0x48>
800024e8:	00000513          	li	a0,0
800024ec:	00008067          	ret
800024f0:	ffe7f613          	andi	a2,a5,-2
800024f4:	00460613          	addi	a2,a2,4
800024f8:	00387693          	andi	a3,a6,3
800024fc:	00060513          	mv	a0,a2
80002500:	00000593          	li	a1,0
80002504:	06069063          	bnez	a3,80002564 <malloc+0xe0>
80002508:	00480693          	addi	a3,a6,4
8000250c:	00b686b3          	add	a3,a3,a1
80002510:	ffc6f693          	andi	a3,a3,-4
80002514:	00d786b3          	add	a3,a5,a3
80002518:	3ad8a223          	sw	a3,932(a7)
8000251c:	00e68463          	beq	a3,a4,80002524 <malloc+0xa0>
80002520:	00e6a023          	sw	a4,0(a3)
80002524:	0016e693          	ori	a3,a3,1
80002528:	00d7a023          	sw	a3,0(a5)
8000252c:	f80608e3          	beqz	a2,800024bc <malloc+0x38>
80002530:	00008067          	ret
80002534:	800057b7          	lui	a5,0x80005
80002538:	800056b7          	lui	a3,0x80005
8000253c:	6a47a783          	lw	a5,1700(a5) # 800056a4 <heap_top>
80002540:	6a06a583          	lw	a1,1696(a3) # 800056a0 <heap_size>
80002544:	3af8a223          	sw	a5,932(a7)
80002548:	00b785b3          	add	a1,a5,a1
8000254c:	ff05f593          	andi	a1,a1,-16
80002550:	3ab72023          	sw	a1,928(a4)
80002554:	00b7a023          	sw	a1,0(a5)
80002558:	f4b7e4e3          	bltu	a5,a1,800024a0 <malloc+0x1c>
8000255c:	00000513          	li	a0,0
80002560:	00008067          	ret
80002564:	00400593          	li	a1,4
80002568:	40d585b3          	sub	a1,a1,a3
8000256c:	f9dff06f          	j	80002508 <malloc+0x84>
80002570:	ffe77513          	andi	a0,a4,-2
80002574:	00387793          	andi	a5,a6,3
80002578:	00450513          	addi	a0,a0,4
8000257c:	00078663          	beqz	a5,80002588 <malloc+0x104>
80002580:	00400613          	li	a2,4
80002584:	40f60633          	sub	a2,a2,a5
80002588:	00480793          	addi	a5,a6,4
8000258c:	00c787b3          	add	a5,a5,a2
80002590:	ffc7f793          	andi	a5,a5,-4
80002594:	00f707b3          	add	a5,a4,a5
80002598:	3af8a223          	sw	a5,932(a7)
8000259c:	00d78463          	beq	a5,a3,800025a4 <malloc+0x120>
800025a0:	00d7a023          	sw	a3,0(a5)
800025a4:	0017e793          	ori	a5,a5,1
800025a8:	00f72023          	sw	a5,0(a4)
800025ac:	00008067          	ret

800025b0 <free>:
800025b0:	ffc52783          	lw	a5,-4(a0)
800025b4:	ffe7f793          	andi	a5,a5,-2
800025b8:	fef52e23          	sw	a5,-4(a0)
800025bc:	0007a783          	lw	a5,0(a5)
800025c0:	0017f713          	andi	a4,a5,1
800025c4:	00071a63          	bnez	a4,800025d8 <free+0x28>
800025c8:	ffc50693          	addi	a3,a0,-4
800025cc:	80008737          	lui	a4,0x80008
800025d0:	fef52e23          	sw	a5,-4(a0)
800025d4:	3ad72223          	sw	a3,932(a4) # 800083a4 <curr_top>
800025d8:	00008067          	ret

800025dc <calloc>:
800025dc:	ff010113          	addi	sp,sp,-16
800025e0:	00912423          	sw	s1,8(sp)
800025e4:	02b504b3          	mul	s1,a0,a1
800025e8:	00112623          	sw	ra,12(sp)
800025ec:	00048513          	mv	a0,s1
800025f0:	e95ff0ef          	jal	80002484 <malloc>
800025f4:	00048613          	mv	a2,s1
800025f8:	00000593          	li	a1,0
800025fc:	00050493          	mv	s1,a0
80002600:	17c000ef          	jal	8000277c <memset>
80002604:	00c12083          	lw	ra,12(sp)
80002608:	00048513          	mv	a0,s1
8000260c:	00812483          	lw	s1,8(sp)
80002610:	01010113          	addi	sp,sp,16
80002614:	00008067          	ret

80002618 <atoi>:
80002618:	00050793          	mv	a5,a0
8000261c:	02000693          	li	a3,32
80002620:	00900613          	li	a2,9
80002624:	0007c703          	lbu	a4,0(a5)
80002628:	00d70463          	beq	a4,a3,80002630 <atoi+0x18>
8000262c:	00c71663          	bne	a4,a2,80002638 <atoi+0x20>
80002630:	00178793          	addi	a5,a5,1
80002634:	ff1ff06f          	j	80002624 <atoi+0xc>
80002638:	02d00693          	li	a3,45
8000263c:	00100813          	li	a6,1
80002640:	00d71863          	bne	a4,a3,80002650 <atoi+0x38>
80002644:	0017c703          	lbu	a4,1(a5)
80002648:	fff00813          	li	a6,-1
8000264c:	00178793          	addi	a5,a5,1
80002650:	fd070713          	addi	a4,a4,-48
80002654:	0ff77613          	zext.b	a2,a4
80002658:	00900693          	li	a3,9
8000265c:	00000513          	li	a0,0
80002660:	04c6e263          	bltu	a3,a2,800026a4 <atoi+0x8c>
80002664:	0017c603          	lbu	a2,1(a5)
80002668:	00178793          	addi	a5,a5,1
8000266c:	02060e63          	beqz	a2,800026a8 <atoi+0x90>
80002670:	00068513          	mv	a0,a3
80002674:	0100006f          	j	80002684 <atoi+0x6c>
80002678:	0007c603          	lbu	a2,0(a5)
8000267c:	00e58733          	add	a4,a1,a4
80002680:	02060463          	beqz	a2,800026a8 <atoi+0x90>
80002684:	00271693          	slli	a3,a4,0x2
80002688:	fd060593          	addi	a1,a2,-48
8000268c:	00e68733          	add	a4,a3,a4
80002690:	0ff5f693          	zext.b	a3,a1
80002694:	00178793          	addi	a5,a5,1
80002698:	00171713          	slli	a4,a4,0x1
8000269c:	fcd57ee3          	bgeu	a0,a3,80002678 <atoi+0x60>
800026a0:	00000513          	li	a0,0
800026a4:	00008067          	ret
800026a8:	02e80533          	mul	a0,a6,a4
800026ac:	00008067          	ret

800026b0 <abs>:
800026b0:	41f55793          	srai	a5,a0,0x1f
800026b4:	00a7c533          	xor	a0,a5,a0
800026b8:	40f50533          	sub	a0,a0,a5
800026bc:	00008067          	ret

800026c0 <srand>:
800026c0:	800087b7          	lui	a5,0x80008
800026c4:	38a7ae23          	sw	a0,924(a5) # 8000839c <rand_seed>
800026c8:	00008067          	ret

800026cc <rand>:
800026cc:	800086b7          	lui	a3,0x80008
800026d0:	39c6a783          	lw	a5,924(a3) # 8000839c <rand_seed>
800026d4:	00034737          	lui	a4,0x34
800026d8:	3fd70713          	addi	a4,a4,1021 # 343fd <__heap_size+0x273fd>
800026dc:	02e787b3          	mul	a5,a5,a4
800026e0:	0026a737          	lui	a4,0x26a
800026e4:	ec370713          	addi	a4,a4,-317 # 269ec3 <__heap_size+0x25cec3>
800026e8:	00e787b3          	add	a5,a5,a4
800026ec:	00179513          	slli	a0,a5,0x1
800026f0:	38f6ae23          	sw	a5,924(a3)
800026f4:	01155513          	srli	a0,a0,0x11
800026f8:	00008067          	ret

800026fc <memcpy>:
800026fc:	02060063          	beqz	a2,8000271c <memcpy+0x20>
80002700:	00c50633          	add	a2,a0,a2
80002704:	00050793          	mv	a5,a0
80002708:	0005c703          	lbu	a4,0(a1)
8000270c:	00178793          	addi	a5,a5,1
80002710:	00158593          	addi	a1,a1,1
80002714:	fee78fa3          	sb	a4,-1(a5)
80002718:	fef618e3          	bne	a2,a5,80002708 <memcpy+0xc>
8000271c:	00008067          	ret

80002720 <memmove>:
80002720:	02b56a63          	bltu	a0,a1,80002754 <memmove+0x34>
80002724:	00c587b3          	add	a5,a1,a2
80002728:	02a7e663          	bltu	a5,a0,80002754 <memmove+0x34>
8000272c:	fff60793          	addi	a5,a2,-1
80002730:	0407c263          	bltz	a5,80002774 <memmove+0x54>
80002734:	fff00613          	li	a2,-1
80002738:	00f58733          	add	a4,a1,a5
8000273c:	00074683          	lbu	a3,0(a4)
80002740:	00f50733          	add	a4,a0,a5
80002744:	fff78793          	addi	a5,a5,-1
80002748:	00d70023          	sb	a3,0(a4)
8000274c:	fec796e3          	bne	a5,a2,80002738 <memmove+0x18>
80002750:	00008067          	ret
80002754:	00c506b3          	add	a3,a0,a2
80002758:	00050793          	mv	a5,a0
8000275c:	00060e63          	beqz	a2,80002778 <memmove+0x58>
80002760:	0005c703          	lbu	a4,0(a1)
80002764:	00178793          	addi	a5,a5,1
80002768:	00158593          	addi	a1,a1,1
8000276c:	fee78fa3          	sb	a4,-1(a5)
80002770:	fef698e3          	bne	a3,a5,80002760 <memmove+0x40>
80002774:	00008067          	ret
80002778:	00008067          	ret

8000277c <memset>:
8000277c:	0ff5f593          	zext.b	a1,a1
80002780:	00c50733          	add	a4,a0,a2
80002784:	00050793          	mv	a5,a0
80002788:	00060863          	beqz	a2,80002798 <memset+0x1c>
8000278c:	00178793          	addi	a5,a5,1
80002790:	feb78fa3          	sb	a1,-1(a5)
80002794:	fef71ce3          	bne	a4,a5,8000278c <memset+0x10>
80002798:	00008067          	ret

8000279c <strlen>:
8000279c:	00054783          	lbu	a5,0(a0)
800027a0:	00050713          	mv	a4,a0
800027a4:	00000513          	li	a0,0
800027a8:	00078c63          	beqz	a5,800027c0 <strlen+0x24>
800027ac:	00150513          	addi	a0,a0,1
800027b0:	00a707b3          	add	a5,a4,a0
800027b4:	0007c783          	lbu	a5,0(a5)
800027b8:	fe079ae3          	bnez	a5,800027ac <strlen+0x10>
800027bc:	00008067          	ret
800027c0:	00008067          	ret

800027c4 <strcpy>:
800027c4:	0005c783          	lbu	a5,0(a1)
800027c8:	00050713          	mv	a4,a0
800027cc:	00078c63          	beqz	a5,800027e4 <strcpy+0x20>
800027d0:	00158593          	addi	a1,a1,1
800027d4:	00f70023          	sb	a5,0(a4)
800027d8:	0005c783          	lbu	a5,0(a1)
800027dc:	00170713          	addi	a4,a4,1
800027e0:	fe0798e3          	bnez	a5,800027d0 <strcpy+0xc>
800027e4:	00070023          	sb	zero,0(a4)
800027e8:	00008067          	ret

800027ec <strncpy>:
800027ec:	0005c703          	lbu	a4,0(a1)
800027f0:	00050793          	mv	a5,a0
800027f4:	00071e63          	bnez	a4,80002810 <strncpy+0x24>
800027f8:	0480006f          	j	80002840 <strncpy+0x54>
800027fc:	fee78fa3          	sb	a4,-1(a5)
80002800:	0005c703          	lbu	a4,0(a1)
80002804:	fff60693          	addi	a3,a2,-1
80002808:	00070c63          	beqz	a4,80002820 <strncpy+0x34>
8000280c:	00068613          	mv	a2,a3
80002810:	00178793          	addi	a5,a5,1
80002814:	00158593          	addi	a1,a1,1
80002818:	fe0612e3          	bnez	a2,800027fc <strncpy+0x10>
8000281c:	00008067          	ret
80002820:	ffe60713          	addi	a4,a2,-2
80002824:	00170713          	addi	a4,a4,1
80002828:	00e78733          	add	a4,a5,a4
8000282c:	02068063          	beqz	a3,8000284c <strncpy+0x60>
80002830:	00178793          	addi	a5,a5,1
80002834:	fe078fa3          	sb	zero,-1(a5)
80002838:	fee79ce3          	bne	a5,a4,80002830 <strncpy+0x44>
8000283c:	00008067          	ret
80002840:	fff60713          	addi	a4,a2,-1
80002844:	00060693          	mv	a3,a2
80002848:	fddff06f          	j	80002824 <strncpy+0x38>
8000284c:	00008067          	ret

80002850 <strcat>:
80002850:	00054783          	lbu	a5,0(a0)
80002854:	02078c63          	beqz	a5,8000288c <strcat+0x3c>
80002858:	00050793          	mv	a5,a0
8000285c:	0017c703          	lbu	a4,1(a5)
80002860:	00178793          	addi	a5,a5,1
80002864:	fe071ce3          	bnez	a4,8000285c <strcat+0xc>
80002868:	0005c703          	lbu	a4,0(a1)
8000286c:	00070c63          	beqz	a4,80002884 <strcat+0x34>
80002870:	00178793          	addi	a5,a5,1
80002874:	00158593          	addi	a1,a1,1
80002878:	fee78fa3          	sb	a4,-1(a5)
8000287c:	0005c703          	lbu	a4,0(a1)
80002880:	fe0718e3          	bnez	a4,80002870 <strcat+0x20>
80002884:	00078023          	sb	zero,0(a5)
80002888:	00008067          	ret
8000288c:	00050793          	mv	a5,a0
80002890:	fedff06f          	j	8000287c <strcat+0x2c>

80002894 <strncat>:
80002894:	00054783          	lbu	a5,0(a0)
80002898:	04078863          	beqz	a5,800028e8 <strncat+0x54>
8000289c:	00050793          	mv	a5,a0
800028a0:	0017c703          	lbu	a4,1(a5)
800028a4:	00178793          	addi	a5,a5,1
800028a8:	fe071ce3          	bnez	a4,800028a0 <strncat+0xc>
800028ac:	0005c703          	lbu	a4,0(a1)
800028b0:	02070663          	beqz	a4,800028dc <strncat+0x48>
800028b4:	00c78633          	add	a2,a5,a2
800028b8:	0140006f          	j	800028cc <strncat+0x38>
800028bc:	00e78023          	sb	a4,0(a5)
800028c0:	0005c703          	lbu	a4,0(a1)
800028c4:	00178793          	addi	a5,a5,1
800028c8:	00070a63          	beqz	a4,800028dc <strncat+0x48>
800028cc:	00158593          	addi	a1,a1,1
800028d0:	fef616e3          	bne	a2,a5,800028bc <strncat+0x28>
800028d4:	00060023          	sb	zero,0(a2)
800028d8:	00008067          	ret
800028dc:	00078613          	mv	a2,a5
800028e0:	00060023          	sb	zero,0(a2)
800028e4:	00008067          	ret
800028e8:	00050793          	mv	a5,a0
800028ec:	fc1ff06f          	j	800028ac <strncat+0x18>

800028f0 <strcmp>:
800028f0:	fff50513          	addi	a0,a0,-1
800028f4:	fff58593          	addi	a1,a1,-1
800028f8:	0080006f          	j	80002900 <strcmp+0x10>
800028fc:	02078463          	beqz	a5,80002924 <strcmp+0x34>
80002900:	00154783          	lbu	a5,1(a0)
80002904:	0015c703          	lbu	a4,1(a1)
80002908:	00150513          	addi	a0,a0,1
8000290c:	00158593          	addi	a1,a1,1
80002910:	fee786e3          	beq	a5,a4,800028fc <strcmp+0xc>
80002914:	00100513          	li	a0,1
80002918:	00e7f463          	bgeu	a5,a4,80002920 <strcmp+0x30>
8000291c:	fff00513          	li	a0,-1
80002920:	00008067          	ret
80002924:	00000513          	li	a0,0
80002928:	00008067          	ret

8000292c <strncmp>:
8000292c:	fff60613          	addi	a2,a2,-1
80002930:	00c50633          	add	a2,a0,a2
80002934:	fff58593          	addi	a1,a1,-1
80002938:	0100006f          	j	80002948 <strncmp+0x1c>
8000293c:	02c50663          	beq	a0,a2,80002968 <strncmp+0x3c>
80002940:	00150513          	addi	a0,a0,1
80002944:	02078263          	beqz	a5,80002968 <strncmp+0x3c>
80002948:	00054783          	lbu	a5,0(a0)
8000294c:	0015c703          	lbu	a4,1(a1)
80002950:	00158593          	addi	a1,a1,1
80002954:	fee784e3          	beq	a5,a4,8000293c <strncmp+0x10>
80002958:	00100513          	li	a0,1
8000295c:	00e7f863          	bgeu	a5,a4,8000296c <strncmp+0x40>
80002960:	fff00513          	li	a0,-1
80002964:	00008067          	ret
80002968:	00000513          	li	a0,0
8000296c:	00008067          	ret

80002970 <clock>:
80002970:	b0002673          	csrr	a2,mcycle
80002974:	b80027f3          	csrr	a5,mcycleh
80002978:	00100737          	lui	a4,0x100
8000297c:	00c79593          	slli	a1,a5,0xc
80002980:	01465693          	srli	a3,a2,0x14
80002984:	fff70713          	addi	a4,a4,-1 # fffff <__heap_size+0xf2fff>
80002988:	00d5e6b3          	or	a3,a1,a3
8000298c:	00e6f6b3          	and	a3,a3,a4
80002990:	00e67533          	and	a0,a2,a4
80002994:	0087d593          	srli	a1,a5,0x8
80002998:	00e5f733          	and	a4,a1,a4
8000299c:	00d50533          	add	a0,a0,a3
800029a0:	00e50533          	add	a0,a0,a4
800029a4:	41f7d693          	srai	a3,a5,0x1f
800029a8:	01c7d713          	srli	a4,a5,0x1c
800029ac:	0216f593          	andi	a1,a3,33
800029b0:	00e50533          	add	a0,a0,a4
800029b4:	51eb8737          	lui	a4,0x51eb8
800029b8:	00b50533          	add	a0,a0,a1
800029bc:	51f70713          	addi	a4,a4,1311 # 51eb851f <__heap_size+0x51eab51f>
800029c0:	02e53733          	mulhu	a4,a0,a4
800029c4:	fe86f893          	andi	a7,a3,-24
800029c8:	c28f65b7          	lui	a1,0xc28f6
800029cc:	8f5c3837          	lui	a6,0x8f5c3
800029d0:	c2958593          	addi	a1,a1,-983 # c28f5c29 <__stack_top+0x428df859>
800029d4:	8f580813          	addi	a6,a6,-1803 # 8f5c28f5 <__stack_top+0xf5ac525>
800029d8:	00375713          	srli	a4,a4,0x3
800029dc:	00171693          	slli	a3,a4,0x1
800029e0:	00e686b3          	add	a3,a3,a4
800029e4:	00369693          	slli	a3,a3,0x3
800029e8:	00e68733          	add	a4,a3,a4
800029ec:	40e50533          	sub	a0,a0,a4
800029f0:	01150533          	add	a0,a0,a7
800029f4:	41f55713          	srai	a4,a0,0x1f
800029f8:	40a60533          	sub	a0,a2,a0
800029fc:	00a63633          	sltu	a2,a2,a0
80002a00:	40e78733          	sub	a4,a5,a4
80002a04:	40c70733          	sub	a4,a4,a2
80002a08:	030507b3          	mul	a5,a0,a6
80002a0c:	02b70733          	mul	a4,a4,a1
80002a10:	02b536b3          	mulhu	a3,a0,a1
80002a14:	00f70733          	add	a4,a4,a5
80002a18:	02b50533          	mul	a0,a0,a1
80002a1c:	00d70733          	add	a4,a4,a3
80002a20:	01f75693          	srli	a3,a4,0x1f
80002a24:	00a687b3          	add	a5,a3,a0
80002a28:	00d7b533          	sltu	a0,a5,a3
80002a2c:	00e50533          	add	a0,a0,a4
80002a30:	0017d793          	srli	a5,a5,0x1
80002a34:	01f51513          	slli	a0,a0,0x1f
80002a38:	00f56533          	or	a0,a0,a5
80002a3c:	00008067          	ret

80002a40 <inbyte>:
80002a40:	c0000737          	lui	a4,0xc0000
80002a44:	00870713          	addi	a4,a4,8 # c0000008 <__stack_top+0x3ffe9c38>
80002a48:	c00006b7          	lui	a3,0xc0000
80002a4c:	00072783          	lw	a5,0(a4)
80002a50:	0017f793          	andi	a5,a5,1
80002a54:	fe078ce3          	beqz	a5,80002a4c <inbyte+0xc>
80002a58:	0006a503          	lw	a0,0(a3) # c0000000 <__stack_top+0x3ffe9c30>
80002a5c:	0ff57513          	zext.b	a0,a0
80002a60:	00008067          	ret

80002a64 <outbyte>:
80002a64:	00a00793          	li	a5,10
80002a68:	02f50263          	beq	a0,a5,80002a8c <outbyte+0x28>
80002a6c:	c0000737          	lui	a4,0xc0000
80002a70:	00870713          	addi	a4,a4,8 # c0000008 <__stack_top+0x3ffe9c38>
80002a74:	00072783          	lw	a5,0(a4)
80002a78:	0087f793          	andi	a5,a5,8
80002a7c:	fe079ce3          	bnez	a5,80002a74 <outbyte+0x10>
80002a80:	c00007b7          	lui	a5,0xc0000
80002a84:	00a7a223          	sw	a0,4(a5) # c0000004 <__stack_top+0x3ffe9c34>
80002a88:	00008067          	ret
80002a8c:	c0000737          	lui	a4,0xc0000
80002a90:	00870713          	addi	a4,a4,8 # c0000008 <__stack_top+0x3ffe9c38>
80002a94:	00072783          	lw	a5,0(a4)
80002a98:	0087f793          	andi	a5,a5,8
80002a9c:	fe079ce3          	bnez	a5,80002a94 <outbyte+0x30>
80002aa0:	c00007b7          	lui	a5,0xc0000
80002aa4:	00d00713          	li	a4,13
80002aa8:	00e7a223          	sw	a4,4(a5) # c0000004 <__stack_top+0x3ffe9c34>
80002aac:	fc1ff06f          	j	80002a6c <outbyte+0x8>

80002ab0 <__udivdi3>:
80002ab0:	00050893          	mv	a7,a0
80002ab4:	00058313          	mv	t1,a1
80002ab8:	00060713          	mv	a4,a2
80002abc:	00050813          	mv	a6,a0
80002ac0:	00058793          	mv	a5,a1
80002ac4:	28069263          	bnez	a3,80002d48 <__udivdi3+0x298>
80002ac8:	800085b7          	lui	a1,0x80008
80002acc:	27c58593          	addi	a1,a1,636 # 8000827c <__clz_tab>
80002ad0:	0ec37663          	bgeu	t1,a2,80002bbc <__udivdi3+0x10c>
80002ad4:	000106b7          	lui	a3,0x10
80002ad8:	0cd67863          	bgeu	a2,a3,80002ba8 <__udivdi3+0xf8>
80002adc:	10063693          	sltiu	a3,a2,256
80002ae0:	0016b693          	seqz	a3,a3
80002ae4:	00369693          	slli	a3,a3,0x3
80002ae8:	00d65533          	srl	a0,a2,a3
80002aec:	00a585b3          	add	a1,a1,a0
80002af0:	0005c583          	lbu	a1,0(a1)
80002af4:	02000513          	li	a0,32
80002af8:	00d586b3          	add	a3,a1,a3
80002afc:	40d505b3          	sub	a1,a0,a3
80002b00:	00d50c63          	beq	a0,a3,80002b18 <__udivdi3+0x68>
80002b04:	00b317b3          	sll	a5,t1,a1
80002b08:	00d8d6b3          	srl	a3,a7,a3
80002b0c:	00b61733          	sll	a4,a2,a1
80002b10:	00f6e7b3          	or	a5,a3,a5
80002b14:	00b89833          	sll	a6,a7,a1
80002b18:	01075593          	srli	a1,a4,0x10
80002b1c:	02b7d333          	divu	t1,a5,a1
80002b20:	01071613          	slli	a2,a4,0x10
80002b24:	01065613          	srli	a2,a2,0x10
80002b28:	02b7f7b3          	remu	a5,a5,a1
80002b2c:	00030513          	mv	a0,t1
80002b30:	026608b3          	mul	a7,a2,t1
80002b34:	01079693          	slli	a3,a5,0x10
80002b38:	01085793          	srli	a5,a6,0x10
80002b3c:	00d7e7b3          	or	a5,a5,a3
80002b40:	0117fe63          	bgeu	a5,a7,80002b5c <__udivdi3+0xac>
80002b44:	00f707b3          	add	a5,a4,a5
80002b48:	fff30513          	addi	a0,t1,-1
80002b4c:	00e7e863          	bltu	a5,a4,80002b5c <__udivdi3+0xac>
80002b50:	0117f663          	bgeu	a5,a7,80002b5c <__udivdi3+0xac>
80002b54:	ffe30513          	addi	a0,t1,-2
80002b58:	00e787b3          	add	a5,a5,a4
80002b5c:	411787b3          	sub	a5,a5,a7
80002b60:	02b7d8b3          	divu	a7,a5,a1
80002b64:	01081813          	slli	a6,a6,0x10
80002b68:	01085813          	srli	a6,a6,0x10
80002b6c:	02b7f7b3          	remu	a5,a5,a1
80002b70:	031606b3          	mul	a3,a2,a7
80002b74:	01079793          	slli	a5,a5,0x10
80002b78:	00f86833          	or	a6,a6,a5
80002b7c:	00088793          	mv	a5,a7
80002b80:	00d87c63          	bgeu	a6,a3,80002b98 <__udivdi3+0xe8>
80002b84:	01070833          	add	a6,a4,a6
80002b88:	fff88793          	addi	a5,a7,-1
80002b8c:	00e86663          	bltu	a6,a4,80002b98 <__udivdi3+0xe8>
80002b90:	00d87463          	bgeu	a6,a3,80002b98 <__udivdi3+0xe8>
80002b94:	ffe88793          	addi	a5,a7,-2
80002b98:	01051513          	slli	a0,a0,0x10
80002b9c:	00f56533          	or	a0,a0,a5
80002ba0:	00000593          	li	a1,0
80002ba4:	00008067          	ret
80002ba8:	01000537          	lui	a0,0x1000
80002bac:	01800693          	li	a3,24
80002bb0:	f2a67ce3          	bgeu	a2,a0,80002ae8 <__udivdi3+0x38>
80002bb4:	01000693          	li	a3,16
80002bb8:	f31ff06f          	j	80002ae8 <__udivdi3+0x38>
80002bbc:	00000693          	li	a3,0
80002bc0:	00060c63          	beqz	a2,80002bd8 <__udivdi3+0x128>
80002bc4:	000107b7          	lui	a5,0x10
80002bc8:	0cf67063          	bgeu	a2,a5,80002c88 <__udivdi3+0x1d8>
80002bcc:	10063693          	sltiu	a3,a2,256
80002bd0:	0016b693          	seqz	a3,a3
80002bd4:	00369693          	slli	a3,a3,0x3
80002bd8:	00d657b3          	srl	a5,a2,a3
80002bdc:	00f585b3          	add	a1,a1,a5
80002be0:	0005c783          	lbu	a5,0(a1)
80002be4:	00d787b3          	add	a5,a5,a3
80002be8:	02000693          	li	a3,32
80002bec:	40f685b3          	sub	a1,a3,a5
80002bf0:	0af69663          	bne	a3,a5,80002c9c <__udivdi3+0x1ec>
80002bf4:	40c307b3          	sub	a5,t1,a2
80002bf8:	00100593          	li	a1,1
80002bfc:	01075893          	srli	a7,a4,0x10
80002c00:	0317de33          	divu	t3,a5,a7
80002c04:	01071613          	slli	a2,a4,0x10
80002c08:	01065613          	srli	a2,a2,0x10
80002c0c:	01085693          	srli	a3,a6,0x10
80002c10:	0317f7b3          	remu	a5,a5,a7
80002c14:	000e0513          	mv	a0,t3
80002c18:	03c60333          	mul	t1,a2,t3
80002c1c:	01079793          	slli	a5,a5,0x10
80002c20:	00f6e7b3          	or	a5,a3,a5
80002c24:	0067fe63          	bgeu	a5,t1,80002c40 <__udivdi3+0x190>
80002c28:	00f707b3          	add	a5,a4,a5
80002c2c:	fffe0513          	addi	a0,t3,-1
80002c30:	00e7e863          	bltu	a5,a4,80002c40 <__udivdi3+0x190>
80002c34:	0067f663          	bgeu	a5,t1,80002c40 <__udivdi3+0x190>
80002c38:	ffee0513          	addi	a0,t3,-2
80002c3c:	00e787b3          	add	a5,a5,a4
80002c40:	406787b3          	sub	a5,a5,t1
80002c44:	0317d333          	divu	t1,a5,a7
80002c48:	01081813          	slli	a6,a6,0x10
80002c4c:	01085813          	srli	a6,a6,0x10
80002c50:	0317f7b3          	remu	a5,a5,a7
80002c54:	026606b3          	mul	a3,a2,t1
80002c58:	01079793          	slli	a5,a5,0x10
80002c5c:	00f86833          	or	a6,a6,a5
80002c60:	00030793          	mv	a5,t1
80002c64:	00d87c63          	bgeu	a6,a3,80002c7c <__udivdi3+0x1cc>
80002c68:	01070833          	add	a6,a4,a6
80002c6c:	fff30793          	addi	a5,t1,-1
80002c70:	00e86663          	bltu	a6,a4,80002c7c <__udivdi3+0x1cc>
80002c74:	00d87463          	bgeu	a6,a3,80002c7c <__udivdi3+0x1cc>
80002c78:	ffe30793          	addi	a5,t1,-2
80002c7c:	01051513          	slli	a0,a0,0x10
80002c80:	00f56533          	or	a0,a0,a5
80002c84:	00008067          	ret
80002c88:	010007b7          	lui	a5,0x1000
80002c8c:	01800693          	li	a3,24
80002c90:	f4f674e3          	bgeu	a2,a5,80002bd8 <__udivdi3+0x128>
80002c94:	01000693          	li	a3,16
80002c98:	f41ff06f          	j	80002bd8 <__udivdi3+0x128>
80002c9c:	00b61733          	sll	a4,a2,a1
80002ca0:	00f356b3          	srl	a3,t1,a5
80002ca4:	01075513          	srli	a0,a4,0x10
80002ca8:	00b31333          	sll	t1,t1,a1
80002cac:	00f8d7b3          	srl	a5,a7,a5
80002cb0:	0067e7b3          	or	a5,a5,t1
80002cb4:	02a6d333          	divu	t1,a3,a0
80002cb8:	01071613          	slli	a2,a4,0x10
80002cbc:	01065613          	srli	a2,a2,0x10
80002cc0:	00b89833          	sll	a6,a7,a1
80002cc4:	02a6f6b3          	remu	a3,a3,a0
80002cc8:	026608b3          	mul	a7,a2,t1
80002ccc:	01069593          	slli	a1,a3,0x10
80002cd0:	0107d693          	srli	a3,a5,0x10
80002cd4:	00b6e6b3          	or	a3,a3,a1
80002cd8:	00030593          	mv	a1,t1
80002cdc:	0116fe63          	bgeu	a3,a7,80002cf8 <__udivdi3+0x248>
80002ce0:	00d706b3          	add	a3,a4,a3
80002ce4:	fff30593          	addi	a1,t1,-1
80002ce8:	00e6e863          	bltu	a3,a4,80002cf8 <__udivdi3+0x248>
80002cec:	0116f663          	bgeu	a3,a7,80002cf8 <__udivdi3+0x248>
80002cf0:	ffe30593          	addi	a1,t1,-2
80002cf4:	00e686b3          	add	a3,a3,a4
80002cf8:	411686b3          	sub	a3,a3,a7
80002cfc:	02a6d8b3          	divu	a7,a3,a0
80002d00:	01079793          	slli	a5,a5,0x10
80002d04:	0107d793          	srli	a5,a5,0x10
80002d08:	02a6f6b3          	remu	a3,a3,a0
80002d0c:	03160633          	mul	a2,a2,a7
80002d10:	01069693          	slli	a3,a3,0x10
80002d14:	00d7e7b3          	or	a5,a5,a3
80002d18:	00088693          	mv	a3,a7
80002d1c:	00c7fe63          	bgeu	a5,a2,80002d38 <__udivdi3+0x288>
80002d20:	00f707b3          	add	a5,a4,a5
80002d24:	fff88693          	addi	a3,a7,-1
80002d28:	00e7e863          	bltu	a5,a4,80002d38 <__udivdi3+0x288>
80002d2c:	00c7f663          	bgeu	a5,a2,80002d38 <__udivdi3+0x288>
80002d30:	ffe88693          	addi	a3,a7,-2
80002d34:	00e787b3          	add	a5,a5,a4
80002d38:	01059593          	slli	a1,a1,0x10
80002d3c:	40c787b3          	sub	a5,a5,a2
80002d40:	00d5e5b3          	or	a1,a1,a3
80002d44:	eb9ff06f          	j	80002bfc <__udivdi3+0x14c>
80002d48:	18d5e463          	bltu	a1,a3,80002ed0 <__udivdi3+0x420>
80002d4c:	000107b7          	lui	a5,0x10
80002d50:	04f6f463          	bgeu	a3,a5,80002d98 <__udivdi3+0x2e8>
80002d54:	1006b793          	sltiu	a5,a3,256
80002d58:	0017b793          	seqz	a5,a5
80002d5c:	00379793          	slli	a5,a5,0x3
80002d60:	80008737          	lui	a4,0x80008
80002d64:	00f6d5b3          	srl	a1,a3,a5
80002d68:	27c70713          	addi	a4,a4,636 # 8000827c <__clz_tab>
80002d6c:	00b70733          	add	a4,a4,a1
80002d70:	00074703          	lbu	a4,0(a4)
80002d74:	00f70733          	add	a4,a4,a5
80002d78:	02000793          	li	a5,32
80002d7c:	40e785b3          	sub	a1,a5,a4
80002d80:	02e79663          	bne	a5,a4,80002dac <__udivdi3+0x2fc>
80002d84:	00100513          	li	a0,1
80002d88:	e066eee3          	bltu	a3,t1,80002ba4 <__udivdi3+0xf4>
80002d8c:	00c8b533          	sltu	a0,a7,a2
80002d90:	00153513          	seqz	a0,a0
80002d94:	00008067          	ret
80002d98:	01000737          	lui	a4,0x1000
80002d9c:	01800793          	li	a5,24
80002da0:	fce6f0e3          	bgeu	a3,a4,80002d60 <__udivdi3+0x2b0>
80002da4:	01000793          	li	a5,16
80002da8:	fb9ff06f          	j	80002d60 <__udivdi3+0x2b0>
80002dac:	00e65533          	srl	a0,a2,a4
80002db0:	00b696b3          	sll	a3,a3,a1
80002db4:	00e357b3          	srl	a5,t1,a4
80002db8:	00d56533          	or	a0,a0,a3
80002dbc:	00b31333          	sll	t1,t1,a1
80002dc0:	00e8d733          	srl	a4,a7,a4
80002dc4:	00676733          	or	a4,a4,t1
80002dc8:	01055313          	srli	t1,a0,0x10
80002dcc:	0267deb3          	divu	t4,a5,t1
80002dd0:	01051813          	slli	a6,a0,0x10
80002dd4:	01085813          	srli	a6,a6,0x10
80002dd8:	01075693          	srli	a3,a4,0x10
80002ddc:	00b61633          	sll	a2,a2,a1
80002de0:	0267f7b3          	remu	a5,a5,t1
80002de4:	03d80e33          	mul	t3,a6,t4
80002de8:	01079793          	slli	a5,a5,0x10
80002dec:	00f6e6b3          	or	a3,a3,a5
80002df0:	000e8793          	mv	a5,t4
80002df4:	01c6fe63          	bgeu	a3,t3,80002e10 <__udivdi3+0x360>
80002df8:	00d506b3          	add	a3,a0,a3
80002dfc:	fffe8793          	addi	a5,t4,-1
80002e00:	00a6e863          	bltu	a3,a0,80002e10 <__udivdi3+0x360>
80002e04:	01c6f663          	bgeu	a3,t3,80002e10 <__udivdi3+0x360>
80002e08:	ffee8793          	addi	a5,t4,-2
80002e0c:	00a686b3          	add	a3,a3,a0
80002e10:	41c686b3          	sub	a3,a3,t3
80002e14:	0266de33          	divu	t3,a3,t1
80002e18:	01071713          	slli	a4,a4,0x10
80002e1c:	01075713          	srli	a4,a4,0x10
80002e20:	0266f6b3          	remu	a3,a3,t1
80002e24:	03c80833          	mul	a6,a6,t3
80002e28:	01069693          	slli	a3,a3,0x10
80002e2c:	00d76733          	or	a4,a4,a3
80002e30:	000e0693          	mv	a3,t3
80002e34:	01077e63          	bgeu	a4,a6,80002e50 <__udivdi3+0x3a0>
80002e38:	00e50733          	add	a4,a0,a4
80002e3c:	fffe0693          	addi	a3,t3,-1
80002e40:	00a76863          	bltu	a4,a0,80002e50 <__udivdi3+0x3a0>
80002e44:	01077663          	bgeu	a4,a6,80002e50 <__udivdi3+0x3a0>
80002e48:	ffee0693          	addi	a3,t3,-2
80002e4c:	00a70733          	add	a4,a4,a0
80002e50:	01079793          	slli	a5,a5,0x10
80002e54:	00d7e533          	or	a0,a5,a3
80002e58:	01061313          	slli	t1,a2,0x10
80002e5c:	01069693          	slli	a3,a3,0x10
80002e60:	0106d693          	srli	a3,a3,0x10
80002e64:	01035313          	srli	t1,t1,0x10
80002e68:	01065613          	srli	a2,a2,0x10
80002e6c:	41070733          	sub	a4,a4,a6
80002e70:	01055813          	srli	a6,a0,0x10
80002e74:	02668e33          	mul	t3,a3,t1
80002e78:	02680333          	mul	t1,a6,t1
80002e7c:	010e5793          	srli	a5,t3,0x10
80002e80:	02c686b3          	mul	a3,a3,a2
80002e84:	006686b3          	add	a3,a3,t1
80002e88:	00d787b3          	add	a5,a5,a3
80002e8c:	02c80833          	mul	a6,a6,a2
80002e90:	0067f663          	bgeu	a5,t1,80002e9c <__udivdi3+0x3ec>
80002e94:	000106b7          	lui	a3,0x10
80002e98:	00d80833          	add	a6,a6,a3
80002e9c:	0107d693          	srli	a3,a5,0x10
80002ea0:	010686b3          	add	a3,a3,a6
80002ea4:	02d76263          	bltu	a4,a3,80002ec8 <__udivdi3+0x418>
80002ea8:	ced71ce3          	bne	a4,a3,80002ba0 <__udivdi3+0xf0>
80002eac:	010e1e13          	slli	t3,t3,0x10
80002eb0:	01079793          	slli	a5,a5,0x10
80002eb4:	010e5e13          	srli	t3,t3,0x10
80002eb8:	00b898b3          	sll	a7,a7,a1
80002ebc:	01c787b3          	add	a5,a5,t3
80002ec0:	00000593          	li	a1,0
80002ec4:	cef8f0e3          	bgeu	a7,a5,80002ba4 <__udivdi3+0xf4>
80002ec8:	fff50513          	addi	a0,a0,-1 # ffffff <__heap_size+0xff2fff>
80002ecc:	cd5ff06f          	j	80002ba0 <__udivdi3+0xf0>
80002ed0:	00000593          	li	a1,0
80002ed4:	00000513          	li	a0,0
80002ed8:	00008067          	ret

80002edc <__adddf3>:
80002edc:	00100837          	lui	a6,0x100
80002ee0:	fff80813          	addi	a6,a6,-1 # fffff <__heap_size+0xf2fff>
80002ee4:	fe010113          	addi	sp,sp,-32
80002ee8:	00b878b3          	and	a7,a6,a1
80002eec:	0145d713          	srli	a4,a1,0x14
80002ef0:	00d87833          	and	a6,a6,a3
80002ef4:	01412423          	sw	s4,8(sp)
80002ef8:	7ff77a13          	andi	s4,a4,2047
80002efc:	00389713          	slli	a4,a7,0x3
80002f00:	0146d893          	srli	a7,a3,0x14
80002f04:	01d55793          	srli	a5,a0,0x1d
80002f08:	00381813          	slli	a6,a6,0x3
80002f0c:	01312623          	sw	s3,12(sp)
80002f10:	7ff8f893          	andi	a7,a7,2047
80002f14:	01f5d993          	srli	s3,a1,0x1f
80002f18:	00112e23          	sw	ra,28(sp)
80002f1c:	01d65593          	srli	a1,a2,0x1d
80002f20:	00812c23          	sw	s0,24(sp)
80002f24:	00912a23          	sw	s1,20(sp)
80002f28:	01212823          	sw	s2,16(sp)
80002f2c:	01512223          	sw	s5,4(sp)
80002f30:	01f6d693          	srli	a3,a3,0x1f
80002f34:	0105e5b3          	or	a1,a1,a6
80002f38:	00e7e7b3          	or	a5,a5,a4
80002f3c:	00351513          	slli	a0,a0,0x3
80002f40:	00361613          	slli	a2,a2,0x3
80002f44:	411a0833          	sub	a6,s4,a7
80002f48:	7ff00313          	li	t1,2047
80002f4c:	32d99863          	bne	s3,a3,8000327c <__adddf3+0x3a0>
80002f50:	17005e63          	blez	a6,800030cc <__adddf3+0x1f0>
80002f54:	0a089863          	bnez	a7,80003004 <__adddf3+0x128>
80002f58:	00c5e733          	or	a4,a1,a2
80002f5c:	02070663          	beqz	a4,80002f88 <__adddf3+0xac>
80002f60:	fffa0813          	addi	a6,s4,-1
80002f64:	02081063          	bnez	a6,80002f84 <__adddf3+0xa8>
80002f68:	00c50633          	add	a2,a0,a2
80002f6c:	00a63733          	sltu	a4,a2,a0
80002f70:	00b785b3          	add	a1,a5,a1
80002f74:	00060513          	mv	a0,a2
80002f78:	00e587b3          	add	a5,a1,a4
80002f7c:	00100a13          	li	s4,1
80002f80:	0d40006f          	j	80003054 <__adddf3+0x178>
80002f84:	086a1663          	bne	s4,t1,80003010 <__adddf3+0x134>
80002f88:	01d79693          	slli	a3,a5,0x1d
80002f8c:	00355513          	srli	a0,a0,0x3
80002f90:	7ff00713          	li	a4,2047
80002f94:	00a6e6b3          	or	a3,a3,a0
80002f98:	0037d793          	srli	a5,a5,0x3
80002f9c:	00ea1e63          	bne	s4,a4,80002fb8 <__adddf3+0xdc>
80002fa0:	00f6e6b3          	or	a3,a3,a5
80002fa4:	00000793          	li	a5,0
80002fa8:	00068863          	beqz	a3,80002fb8 <__adddf3+0xdc>
80002fac:	000807b7          	lui	a5,0x80
80002fb0:	00000693          	li	a3,0
80002fb4:	00000993          	li	s3,0
80002fb8:	014a1713          	slli	a4,s4,0x14
80002fbc:	7ff00637          	lui	a2,0x7ff00
80002fc0:	00c79793          	slli	a5,a5,0xc
80002fc4:	00c77733          	and	a4,a4,a2
80002fc8:	01c12083          	lw	ra,28(sp)
80002fcc:	01812403          	lw	s0,24(sp)
80002fd0:	00c7d793          	srli	a5,a5,0xc
80002fd4:	00f767b3          	or	a5,a4,a5
80002fd8:	01f99713          	slli	a4,s3,0x1f
80002fdc:	00e7e633          	or	a2,a5,a4
80002fe0:	01412483          	lw	s1,20(sp)
80002fe4:	01012903          	lw	s2,16(sp)
80002fe8:	00c12983          	lw	s3,12(sp)
80002fec:	00812a03          	lw	s4,8(sp)
80002ff0:	00412a83          	lw	s5,4(sp)
80002ff4:	00068513          	mv	a0,a3
80002ff8:	00060593          	mv	a1,a2
80002ffc:	02010113          	addi	sp,sp,32
80003000:	00008067          	ret
80003004:	f86a02e3          	beq	s4,t1,80002f88 <__adddf3+0xac>
80003008:	00800737          	lui	a4,0x800
8000300c:	00e5e5b3          	or	a1,a1,a4
80003010:	03800713          	li	a4,56
80003014:	0b074663          	blt	a4,a6,800030c0 <__adddf3+0x1e4>
80003018:	01f00713          	li	a4,31
8000301c:	02000893          	li	a7,32
80003020:	07074863          	blt	a4,a6,80003090 <__adddf3+0x1b4>
80003024:	410888b3          	sub	a7,a7,a6
80003028:	01159733          	sll	a4,a1,a7
8000302c:	010656b3          	srl	a3,a2,a6
80003030:	011618b3          	sll	a7,a2,a7
80003034:	00d76733          	or	a4,a4,a3
80003038:	011038b3          	snez	a7,a7
8000303c:	01176733          	or	a4,a4,a7
80003040:	0105d833          	srl	a6,a1,a6
80003044:	00a70533          	add	a0,a4,a0
80003048:	00f80833          	add	a6,a6,a5
8000304c:	00e53733          	sltu	a4,a0,a4
80003050:	00e807b3          	add	a5,a6,a4
80003054:	00879713          	slli	a4,a5,0x8
80003058:	1c075e63          	bgez	a4,80003234 <__adddf3+0x358>
8000305c:	001a0a13          	addi	s4,s4,1
80003060:	7ff00713          	li	a4,2047
80003064:	5cea0863          	beq	s4,a4,80003634 <__adddf3+0x758>
80003068:	ff800737          	lui	a4,0xff800
8000306c:	fff70713          	addi	a4,a4,-1 # ff7fffff <__stack_top+0x7f7e9c2f>
80003070:	00e7f7b3          	and	a5,a5,a4
80003074:	00155713          	srli	a4,a0,0x1
80003078:	00157513          	andi	a0,a0,1
8000307c:	00a76733          	or	a4,a4,a0
80003080:	01f79513          	slli	a0,a5,0x1f
80003084:	00e56533          	or	a0,a0,a4
80003088:	0017d793          	srli	a5,a5,0x1
8000308c:	1a80006f          	j	80003234 <__adddf3+0x358>
80003090:	fe080713          	addi	a4,a6,-32
80003094:	00e5d733          	srl	a4,a1,a4
80003098:	00000693          	li	a3,0
8000309c:	01180863          	beq	a6,a7,800030ac <__adddf3+0x1d0>
800030a0:	04000693          	li	a3,64
800030a4:	410686b3          	sub	a3,a3,a6
800030a8:	00d596b3          	sll	a3,a1,a3
800030ac:	00c6e6b3          	or	a3,a3,a2
800030b0:	00d036b3          	snez	a3,a3
800030b4:	00d76733          	or	a4,a4,a3
800030b8:	00000813          	li	a6,0
800030bc:	f89ff06f          	j	80003044 <__adddf3+0x168>
800030c0:	00c5e733          	or	a4,a1,a2
800030c4:	00e03733          	snez	a4,a4
800030c8:	ff1ff06f          	j	800030b8 <__adddf3+0x1dc>
800030cc:	0c080663          	beqz	a6,80003198 <__adddf3+0x2bc>
800030d0:	41488733          	sub	a4,a7,s4
800030d4:	020a1463          	bnez	s4,800030fc <__adddf3+0x220>
800030d8:	00a7e6b3          	or	a3,a5,a0
800030dc:	00068863          	beqz	a3,800030ec <__adddf3+0x210>
800030e0:	fff70693          	addi	a3,a4,-1
800030e4:	e80682e3          	beqz	a3,80002f68 <__adddf3+0x8c>
800030e8:	02671263          	bne	a4,t1,8000310c <__adddf3+0x230>
800030ec:	00058793          	mv	a5,a1
800030f0:	00060513          	mv	a0,a2
800030f4:	00070a13          	mv	s4,a4
800030f8:	e91ff06f          	j	80002f88 <__adddf3+0xac>
800030fc:	54688263          	beq	a7,t1,80003640 <__adddf3+0x764>
80003100:	008006b7          	lui	a3,0x800
80003104:	00d7e7b3          	or	a5,a5,a3
80003108:	00070693          	mv	a3,a4
8000310c:	03800713          	li	a4,56
80003110:	06d74e63          	blt	a4,a3,8000318c <__adddf3+0x2b0>
80003114:	01f00713          	li	a4,31
80003118:	02000313          	li	t1,32
8000311c:	04d74063          	blt	a4,a3,8000315c <__adddf3+0x280>
80003120:	40d30333          	sub	t1,t1,a3
80003124:	00679733          	sll	a4,a5,t1
80003128:	00d55833          	srl	a6,a0,a3
8000312c:	00651333          	sll	t1,a0,t1
80003130:	01076733          	or	a4,a4,a6
80003134:	00603333          	snez	t1,t1
80003138:	00676733          	or	a4,a4,t1
8000313c:	00d7d6b3          	srl	a3,a5,a3
80003140:	00c70633          	add	a2,a4,a2
80003144:	00b686b3          	add	a3,a3,a1
80003148:	00e63733          	sltu	a4,a2,a4
8000314c:	00060513          	mv	a0,a2
80003150:	00e687b3          	add	a5,a3,a4
80003154:	00088a13          	mv	s4,a7
80003158:	efdff06f          	j	80003054 <__adddf3+0x178>
8000315c:	fe068713          	addi	a4,a3,-32 # 7fffe0 <__heap_size+0x7f2fe0>
80003160:	00e7d733          	srl	a4,a5,a4
80003164:	00000813          	li	a6,0
80003168:	00668863          	beq	a3,t1,80003178 <__adddf3+0x29c>
8000316c:	04000813          	li	a6,64
80003170:	40d80833          	sub	a6,a6,a3
80003174:	01079833          	sll	a6,a5,a6
80003178:	00a86833          	or	a6,a6,a0
8000317c:	01003833          	snez	a6,a6
80003180:	01076733          	or	a4,a4,a6
80003184:	00000693          	li	a3,0
80003188:	fb9ff06f          	j	80003140 <__adddf3+0x264>
8000318c:	00a7e733          	or	a4,a5,a0
80003190:	00e03733          	snez	a4,a4
80003194:	ff1ff06f          	j	80003184 <__adddf3+0x2a8>
80003198:	001a0713          	addi	a4,s4,1
8000319c:	7fe77693          	andi	a3,a4,2046
800031a0:	06069663          	bnez	a3,8000320c <__adddf3+0x330>
800031a4:	00a7e733          	or	a4,a5,a0
800031a8:	040a1263          	bnez	s4,800031ec <__adddf3+0x310>
800031ac:	46070263          	beqz	a4,80003610 <__adddf3+0x734>
800031b0:	00c5e733          	or	a4,a1,a2
800031b4:	46070263          	beqz	a4,80003618 <__adddf3+0x73c>
800031b8:	00c50733          	add	a4,a0,a2
800031bc:	00b785b3          	add	a1,a5,a1
800031c0:	00a737b3          	sltu	a5,a4,a0
800031c4:	00f587b3          	add	a5,a1,a5
800031c8:	00879693          	slli	a3,a5,0x8
800031cc:	00070613          	mv	a2,a4
800031d0:	2c06de63          	bgez	a3,800034ac <__adddf3+0x5d0>
800031d4:	ff8006b7          	lui	a3,0xff800
800031d8:	fff68693          	addi	a3,a3,-1 # ff7fffff <__stack_top+0x7f7e9c2f>
800031dc:	00d7f7b3          	and	a5,a5,a3
800031e0:	00070513          	mv	a0,a4
800031e4:	00100a13          	li	s4,1
800031e8:	da1ff06f          	j	80002f88 <__adddf3+0xac>
800031ec:	42070a63          	beqz	a4,80003620 <__adddf3+0x744>
800031f0:	00c5e633          	or	a2,a1,a2
800031f4:	00030a13          	mv	s4,t1
800031f8:	d80608e3          	beqz	a2,80002f88 <__adddf3+0xac>
800031fc:	00000993          	li	s3,0
80003200:	004007b7          	lui	a5,0x400
80003204:	00000513          	li	a0,0
80003208:	d81ff06f          	j	80002f88 <__adddf3+0xac>
8000320c:	42670263          	beq	a4,t1,80003630 <__adddf3+0x754>
80003210:	00c50633          	add	a2,a0,a2
80003214:	00a63533          	sltu	a0,a2,a0
80003218:	00b785b3          	add	a1,a5,a1
8000321c:	00a585b3          	add	a1,a1,a0
80003220:	01f59513          	slli	a0,a1,0x1f
80003224:	00165613          	srli	a2,a2,0x1
80003228:	00c56533          	or	a0,a0,a2
8000322c:	0015d793          	srli	a5,a1,0x1
80003230:	00070a13          	mv	s4,a4
80003234:	00757713          	andi	a4,a0,7
80003238:	02070063          	beqz	a4,80003258 <__adddf3+0x37c>
8000323c:	00f57713          	andi	a4,a0,15
80003240:	00400693          	li	a3,4
80003244:	00d70a63          	beq	a4,a3,80003258 <__adddf3+0x37c>
80003248:	00d50733          	add	a4,a0,a3
8000324c:	00a736b3          	sltu	a3,a4,a0
80003250:	00d787b3          	add	a5,a5,a3
80003254:	00070513          	mv	a0,a4
80003258:	00879713          	slli	a4,a5,0x8
8000325c:	d20756e3          	bgez	a4,80002f88 <__adddf3+0xac>
80003260:	001a0a13          	addi	s4,s4,1
80003264:	7ff00713          	li	a4,2047
80003268:	3cea0663          	beq	s4,a4,80003634 <__adddf3+0x758>
8000326c:	ff800737          	lui	a4,0xff800
80003270:	fff70713          	addi	a4,a4,-1 # ff7fffff <__stack_top+0x7f7e9c2f>
80003274:	00e7f7b3          	and	a5,a5,a4
80003278:	d11ff06f          	j	80002f88 <__adddf3+0xac>
8000327c:	0f005463          	blez	a6,80003364 <__adddf3+0x488>
80003280:	08089c63          	bnez	a7,80003318 <__adddf3+0x43c>
80003284:	00c5e733          	or	a4,a1,a2
80003288:	d00700e3          	beqz	a4,80002f88 <__adddf3+0xac>
8000328c:	fffa0813          	addi	a6,s4,-1
80003290:	02081063          	bnez	a6,800032b0 <__adddf3+0x3d4>
80003294:	40c50633          	sub	a2,a0,a2
80003298:	00c53733          	sltu	a4,a0,a2
8000329c:	40b785b3          	sub	a1,a5,a1
800032a0:	00060513          	mv	a0,a2
800032a4:	40e587b3          	sub	a5,a1,a4
800032a8:	00100a13          	li	s4,1
800032ac:	0500006f          	j	800032fc <__adddf3+0x420>
800032b0:	cc6a0ce3          	beq	s4,t1,80002f88 <__adddf3+0xac>
800032b4:	03800713          	li	a4,56
800032b8:	0b074063          	blt	a4,a6,80003358 <__adddf3+0x47c>
800032bc:	01f00713          	li	a4,31
800032c0:	02000893          	li	a7,32
800032c4:	07074263          	blt	a4,a6,80003328 <__adddf3+0x44c>
800032c8:	410888b3          	sub	a7,a7,a6
800032cc:	01159733          	sll	a4,a1,a7
800032d0:	010656b3          	srl	a3,a2,a6
800032d4:	011618b3          	sll	a7,a2,a7
800032d8:	00d76733          	or	a4,a4,a3
800032dc:	011038b3          	snez	a7,a7
800032e0:	01176733          	or	a4,a4,a7
800032e4:	0105d833          	srl	a6,a1,a6
800032e8:	40e50733          	sub	a4,a0,a4
800032ec:	00e536b3          	sltu	a3,a0,a4
800032f0:	41078833          	sub	a6,a5,a6
800032f4:	00070513          	mv	a0,a4
800032f8:	40d807b3          	sub	a5,a6,a3
800032fc:	00879713          	slli	a4,a5,0x8
80003300:	f2075ae3          	bgez	a4,80003234 <__adddf3+0x358>
80003304:	00800937          	lui	s2,0x800
80003308:	fff90913          	addi	s2,s2,-1 # 7fffff <__heap_size+0x7f2fff>
8000330c:	0127f933          	and	s2,a5,s2
80003310:	00050a93          	mv	s5,a0
80003314:	2180006f          	j	8000352c <__adddf3+0x650>
80003318:	c66a08e3          	beq	s4,t1,80002f88 <__adddf3+0xac>
8000331c:	00800737          	lui	a4,0x800
80003320:	00e5e5b3          	or	a1,a1,a4
80003324:	f91ff06f          	j	800032b4 <__adddf3+0x3d8>
80003328:	fe080713          	addi	a4,a6,-32
8000332c:	00e5d733          	srl	a4,a1,a4
80003330:	00000693          	li	a3,0
80003334:	01180863          	beq	a6,a7,80003344 <__adddf3+0x468>
80003338:	04000693          	li	a3,64
8000333c:	410686b3          	sub	a3,a3,a6
80003340:	00d596b3          	sll	a3,a1,a3
80003344:	00c6e6b3          	or	a3,a3,a2
80003348:	00d036b3          	snez	a3,a3
8000334c:	00d76733          	or	a4,a4,a3
80003350:	00000813          	li	a6,0
80003354:	f95ff06f          	j	800032e8 <__adddf3+0x40c>
80003358:	00c5e733          	or	a4,a1,a2
8000335c:	00e03733          	snez	a4,a4
80003360:	ff1ff06f          	j	80003350 <__adddf3+0x474>
80003364:	0e080463          	beqz	a6,8000344c <__adddf3+0x570>
80003368:	41488833          	sub	a6,a7,s4
8000336c:	040a1263          	bnez	s4,800033b0 <__adddf3+0x4d4>
80003370:	00a7e733          	or	a4,a5,a0
80003374:	02070463          	beqz	a4,8000339c <__adddf3+0x4c0>
80003378:	fff80713          	addi	a4,a6,-1
8000337c:	00071e63          	bnez	a4,80003398 <__adddf3+0x4bc>
80003380:	40a60533          	sub	a0,a2,a0
80003384:	40f585b3          	sub	a1,a1,a5
80003388:	00a63633          	sltu	a2,a2,a0
8000338c:	40c587b3          	sub	a5,a1,a2
80003390:	00068993          	mv	s3,a3
80003394:	f15ff06f          	j	800032a8 <__adddf3+0x3cc>
80003398:	02681463          	bne	a6,t1,800033c0 <__adddf3+0x4e4>
8000339c:	00068993          	mv	s3,a3
800033a0:	00058793          	mv	a5,a1
800033a4:	00060513          	mv	a0,a2
800033a8:	00080a13          	mv	s4,a6
800033ac:	bddff06f          	j	80002f88 <__adddf3+0xac>
800033b0:	28688663          	beq	a7,t1,8000363c <__adddf3+0x760>
800033b4:	00800737          	lui	a4,0x800
800033b8:	00e7e7b3          	or	a5,a5,a4
800033bc:	00080713          	mv	a4,a6
800033c0:	03800813          	li	a6,56
800033c4:	06e84e63          	blt	a6,a4,80003440 <__adddf3+0x564>
800033c8:	01f00813          	li	a6,31
800033cc:	02000e13          	li	t3,32
800033d0:	04e84063          	blt	a6,a4,80003410 <__adddf3+0x534>
800033d4:	40ee0e33          	sub	t3,t3,a4
800033d8:	00e55333          	srl	t1,a0,a4
800033dc:	01c79833          	sll	a6,a5,t3
800033e0:	01c51e33          	sll	t3,a0,t3
800033e4:	00686833          	or	a6,a6,t1
800033e8:	01c03e33          	snez	t3,t3
800033ec:	01c86533          	or	a0,a6,t3
800033f0:	00e7d733          	srl	a4,a5,a4
800033f4:	40a60533          	sub	a0,a2,a0
800033f8:	40e58733          	sub	a4,a1,a4
800033fc:	00a63633          	sltu	a2,a2,a0
80003400:	40c707b3          	sub	a5,a4,a2
80003404:	00088a13          	mv	s4,a7
80003408:	00068993          	mv	s3,a3
8000340c:	ef1ff06f          	j	800032fc <__adddf3+0x420>
80003410:	fe070813          	addi	a6,a4,-32 # 7fffe0 <__heap_size+0x7f2fe0>
80003414:	0107d833          	srl	a6,a5,a6
80003418:	00000313          	li	t1,0
8000341c:	01c70863          	beq	a4,t3,8000342c <__adddf3+0x550>
80003420:	04000313          	li	t1,64
80003424:	40e30333          	sub	t1,t1,a4
80003428:	00679333          	sll	t1,a5,t1
8000342c:	00a36333          	or	t1,t1,a0
80003430:	00603333          	snez	t1,t1
80003434:	00686533          	or	a0,a6,t1
80003438:	00000713          	li	a4,0
8000343c:	fb9ff06f          	j	800033f4 <__adddf3+0x518>
80003440:	00a7e533          	or	a0,a5,a0
80003444:	00a03533          	snez	a0,a0
80003448:	ff1ff06f          	j	80003438 <__adddf3+0x55c>
8000344c:	001a0713          	addi	a4,s4,1
80003450:	7fe77713          	andi	a4,a4,2046
80003454:	0a071463          	bnez	a4,800034fc <__adddf3+0x620>
80003458:	00a7e833          	or	a6,a5,a0
8000345c:	00c5e733          	or	a4,a1,a2
80003460:	060a1a63          	bnez	s4,800034d4 <__adddf3+0x5f8>
80003464:	00081a63          	bnez	a6,80003478 <__adddf3+0x59c>
80003468:	00058793          	mv	a5,a1
8000346c:	02071e63          	bnez	a4,800034a8 <__adddf3+0x5cc>
80003470:	00000993          	li	s3,0
80003474:	1c00006f          	j	80003634 <__adddf3+0x758>
80003478:	1a070063          	beqz	a4,80003618 <__adddf3+0x73c>
8000347c:	40c50833          	sub	a6,a0,a2
80003480:	010538b3          	sltu	a7,a0,a6
80003484:	40b78733          	sub	a4,a5,a1
80003488:	41170733          	sub	a4,a4,a7
8000348c:	00871893          	slli	a7,a4,0x8
80003490:	0208d863          	bgez	a7,800034c0 <__adddf3+0x5e4>
80003494:	40a60533          	sub	a0,a2,a0
80003498:	00a63733          	sltu	a4,a2,a0
8000349c:	40f585b3          	sub	a1,a1,a5
800034a0:	00050613          	mv	a2,a0
800034a4:	40e587b3          	sub	a5,a1,a4
800034a8:	00068993          	mv	s3,a3
800034ac:	00c7e533          	or	a0,a5,a2
800034b0:	0e050663          	beqz	a0,8000359c <__adddf3+0x6c0>
800034b4:	00060513          	mv	a0,a2
800034b8:	00000a13          	li	s4,0
800034bc:	d79ff06f          	j	80003234 <__adddf3+0x358>
800034c0:	00e86533          	or	a0,a6,a4
800034c4:	18050663          	beqz	a0,80003650 <__adddf3+0x774>
800034c8:	00070793          	mv	a5,a4
800034cc:	00080613          	mv	a2,a6
800034d0:	fddff06f          	j	800034ac <__adddf3+0x5d0>
800034d4:	00081e63          	bnez	a6,800034f0 <__adddf3+0x614>
800034d8:	00068993          	mv	s3,a3
800034dc:	14071263          	bnez	a4,80003620 <__adddf3+0x744>
800034e0:	00000993          	li	s3,0
800034e4:	004007b7          	lui	a5,0x400
800034e8:	00000513          	li	a0,0
800034ec:	13c0006f          	j	80003628 <__adddf3+0x74c>
800034f0:	00030a13          	mv	s4,t1
800034f4:	a8070ae3          	beqz	a4,80002f88 <__adddf3+0xac>
800034f8:	d05ff06f          	j	800031fc <__adddf3+0x320>
800034fc:	40c50733          	sub	a4,a0,a2
80003500:	00e53833          	sltu	a6,a0,a4
80003504:	40b78933          	sub	s2,a5,a1
80003508:	41090933          	sub	s2,s2,a6
8000350c:	00891813          	slli	a6,s2,0x8
80003510:	00070a93          	mv	s5,a4
80003514:	06085e63          	bgez	a6,80003590 <__adddf3+0x6b4>
80003518:	40a60ab3          	sub	s5,a2,a0
8000351c:	40f58933          	sub	s2,a1,a5
80003520:	01563633          	sltu	a2,a2,s5
80003524:	40c90933          	sub	s2,s2,a2
80003528:	00068993          	mv	s3,a3
8000352c:	06090e63          	beqz	s2,800035a8 <__adddf3+0x6cc>
80003530:	00090513          	mv	a0,s2
80003534:	0f0020ef          	jal	80005624 <__clzsi2>
80003538:	ff850613          	addi	a2,a0,-8
8000353c:	02000793          	li	a5,32
80003540:	40c787b3          	sub	a5,a5,a2
80003544:	00c91933          	sll	s2,s2,a2
80003548:	00fad7b3          	srl	a5,s5,a5
8000354c:	0127e7b3          	or	a5,a5,s2
80003550:	00ca9933          	sll	s2,s5,a2
80003554:	0b464263          	blt	a2,s4,800035f8 <__adddf3+0x71c>
80003558:	41460633          	sub	a2,a2,s4
8000355c:	00160593          	addi	a1,a2,1 # 7ff00001 <__heap_size+0x7fef3001>
80003560:	01f00713          	li	a4,31
80003564:	02000693          	li	a3,32
80003568:	06b74063          	blt	a4,a1,800035c8 <__adddf3+0x6ec>
8000356c:	40b686b3          	sub	a3,a3,a1
80003570:	00d79633          	sll	a2,a5,a3
80003574:	00b95733          	srl	a4,s2,a1
80003578:	00d916b3          	sll	a3,s2,a3
8000357c:	00e66633          	or	a2,a2,a4
80003580:	00d036b3          	snez	a3,a3
80003584:	00d66633          	or	a2,a2,a3
80003588:	00b7d7b3          	srl	a5,a5,a1
8000358c:	f21ff06f          	j	800034ac <__adddf3+0x5d0>
80003590:	01276533          	or	a0,a4,s2
80003594:	f8051ce3          	bnez	a0,8000352c <__adddf3+0x650>
80003598:	00000993          	li	s3,0
8000359c:	00000793          	li	a5,0
800035a0:	00000a13          	li	s4,0
800035a4:	9e5ff06f          	j	80002f88 <__adddf3+0xac>
800035a8:	000a8513          	mv	a0,s5
800035ac:	078020ef          	jal	80005624 <__clzsi2>
800035b0:	01850613          	addi	a2,a0,24
800035b4:	01f00793          	li	a5,31
800035b8:	f8c7d2e3          	bge	a5,a2,8000353c <__adddf3+0x660>
800035bc:	ff850793          	addi	a5,a0,-8
800035c0:	00fa97b3          	sll	a5,s5,a5
800035c4:	f91ff06f          	j	80003554 <__adddf3+0x678>
800035c8:	fe160613          	addi	a2,a2,-31
800035cc:	00c7d633          	srl	a2,a5,a2
800035d0:	00000713          	li	a4,0
800035d4:	00d58863          	beq	a1,a3,800035e4 <__adddf3+0x708>
800035d8:	04000713          	li	a4,64
800035dc:	40b70733          	sub	a4,a4,a1
800035e0:	00e79733          	sll	a4,a5,a4
800035e4:	00e96733          	or	a4,s2,a4
800035e8:	00e03733          	snez	a4,a4
800035ec:	00e66633          	or	a2,a2,a4
800035f0:	00000793          	li	a5,0
800035f4:	eb9ff06f          	j	800034ac <__adddf3+0x5d0>
800035f8:	ff800737          	lui	a4,0xff800
800035fc:	fff70713          	addi	a4,a4,-1 # ff7fffff <__stack_top+0x7f7e9c2f>
80003600:	40ca0a33          	sub	s4,s4,a2
80003604:	00e7f7b3          	and	a5,a5,a4
80003608:	00090513          	mv	a0,s2
8000360c:	c29ff06f          	j	80003234 <__adddf3+0x358>
80003610:	00058793          	mv	a5,a1
80003614:	e99ff06f          	j	800034ac <__adddf3+0x5d0>
80003618:	00050613          	mv	a2,a0
8000361c:	e91ff06f          	j	800034ac <__adddf3+0x5d0>
80003620:	00058793          	mv	a5,a1
80003624:	00060513          	mv	a0,a2
80003628:	00030a13          	mv	s4,t1
8000362c:	95dff06f          	j	80002f88 <__adddf3+0xac>
80003630:	00070a13          	mv	s4,a4
80003634:	00000793          	li	a5,0
80003638:	bcdff06f          	j	80003204 <__adddf3+0x328>
8000363c:	00068993          	mv	s3,a3
80003640:	00058793          	mv	a5,a1
80003644:	00060513          	mv	a0,a2
80003648:	00088a13          	mv	s4,a7
8000364c:	93dff06f          	j	80002f88 <__adddf3+0xac>
80003650:	00000993          	li	s3,0
80003654:	00000793          	li	a5,0
80003658:	931ff06f          	j	80002f88 <__adddf3+0xac>

8000365c <__divdf3>:
8000365c:	fd010113          	addi	sp,sp,-48
80003660:	01812423          	sw	s8,8(sp)
80003664:	0145dc13          	srli	s8,a1,0x14
80003668:	02812423          	sw	s0,40(sp)
8000366c:	01412c23          	sw	s4,24(sp)
80003670:	01512a23          	sw	s5,20(sp)
80003674:	01712623          	sw	s7,12(sp)
80003678:	01912223          	sw	s9,4(sp)
8000367c:	00c59413          	slli	s0,a1,0xc
80003680:	02112623          	sw	ra,44(sp)
80003684:	02912223          	sw	s1,36(sp)
80003688:	03212023          	sw	s2,32(sp)
8000368c:	01312e23          	sw	s3,28(sp)
80003690:	01612823          	sw	s6,16(sp)
80003694:	7ffc7713          	andi	a4,s8,2047
80003698:	00050b93          	mv	s7,a0
8000369c:	00060c93          	mv	s9,a2
800036a0:	00068a93          	mv	s5,a3
800036a4:	00c45413          	srli	s0,s0,0xc
800036a8:	01f5da13          	srli	s4,a1,0x1f
800036ac:	0a070063          	beqz	a4,8000374c <__divdf3+0xf0>
800036b0:	7ff00793          	li	a5,2047
800036b4:	10f70063          	beq	a4,a5,800037b4 <__divdf3+0x158>
800036b8:	01d55b13          	srli	s6,a0,0x1d
800036bc:	00341413          	slli	s0,s0,0x3
800036c0:	008b6b33          	or	s6,s6,s0
800036c4:	008007b7          	lui	a5,0x800
800036c8:	00fb6b33          	or	s6,s6,a5
800036cc:	00351493          	slli	s1,a0,0x3
800036d0:	c0170c13          	addi	s8,a4,-1023
800036d4:	00000b93          	li	s7,0
800036d8:	014ad693          	srli	a3,s5,0x14
800036dc:	00ca9413          	slli	s0,s5,0xc
800036e0:	7ff6f693          	andi	a3,a3,2047
800036e4:	00c45413          	srli	s0,s0,0xc
800036e8:	01fada93          	srli	s5,s5,0x1f
800036ec:	10068263          	beqz	a3,800037f0 <__divdf3+0x194>
800036f0:	7ff00793          	li	a5,2047
800036f4:	16f68663          	beq	a3,a5,80003860 <__divdf3+0x204>
800036f8:	00341413          	slli	s0,s0,0x3
800036fc:	01dcd793          	srli	a5,s9,0x1d
80003700:	0087e7b3          	or	a5,a5,s0
80003704:	00800437          	lui	s0,0x800
80003708:	0087e433          	or	s0,a5,s0
8000370c:	003c9f13          	slli	t5,s9,0x3
80003710:	c0168693          	addi	a3,a3,-1023
80003714:	00000593          	li	a1,0
80003718:	002b9793          	slli	a5,s7,0x2
8000371c:	00b7e7b3          	or	a5,a5,a1
80003720:	40dc0733          	sub	a4,s8,a3
80003724:	fff78793          	addi	a5,a5,-1 # 7fffff <__heap_size+0x7f2fff>
80003728:	00e00693          	li	a3,14
8000372c:	015a4633          	xor	a2,s4,s5
80003730:	16f6e063          	bltu	a3,a5,80003890 <__divdf3+0x234>
80003734:	800086b7          	lui	a3,0x80008
80003738:	00279793          	slli	a5,a5,0x2
8000373c:	24068693          	addi	a3,a3,576 # 80008240 <heap_top+0x2b9c>
80003740:	00d787b3          	add	a5,a5,a3
80003744:	0007a783          	lw	a5,0(a5)
80003748:	00078067          	jr	a5
8000374c:	00a46b33          	or	s6,s0,a0
80003750:	060b0e63          	beqz	s6,800037cc <__divdf3+0x170>
80003754:	02040e63          	beqz	s0,80003790 <__divdf3+0x134>
80003758:	00040513          	mv	a0,s0
8000375c:	6c9010ef          	jal	80005624 <__clzsi2>
80003760:	ff550793          	addi	a5,a0,-11
80003764:	01d00b13          	li	s6,29
80003768:	ff850713          	addi	a4,a0,-8
8000376c:	40fb0b33          	sub	s6,s6,a5
80003770:	00e41433          	sll	s0,s0,a4
80003774:	016bdb33          	srl	s6,s7,s6
80003778:	008b6b33          	or	s6,s6,s0
8000377c:	00eb9433          	sll	s0,s7,a4
80003780:	c0d00713          	li	a4,-1011
80003784:	40a70c33          	sub	s8,a4,a0
80003788:	00040493          	mv	s1,s0
8000378c:	f49ff06f          	j	800036d4 <__divdf3+0x78>
80003790:	695010ef          	jal	80005624 <__clzsi2>
80003794:	00050b13          	mv	s6,a0
80003798:	015b0793          	addi	a5,s6,21
8000379c:	01c00713          	li	a4,28
800037a0:	02050513          	addi	a0,a0,32
800037a4:	fcf750e3          	bge	a4,a5,80003764 <__divdf3+0x108>
800037a8:	ff8b0b13          	addi	s6,s6,-8
800037ac:	016b9b33          	sll	s6,s7,s6
800037b0:	fd1ff06f          	j	80003780 <__divdf3+0x124>
800037b4:	00a46b33          	or	s6,s0,a0
800037b8:	020b1263          	bnez	s6,800037dc <__divdf3+0x180>
800037bc:	00000493          	li	s1,0
800037c0:	00070c13          	mv	s8,a4
800037c4:	00200b93          	li	s7,2
800037c8:	f11ff06f          	j	800036d8 <__divdf3+0x7c>
800037cc:	00000493          	li	s1,0
800037d0:	00000c13          	li	s8,0
800037d4:	00100b93          	li	s7,1
800037d8:	f01ff06f          	j	800036d8 <__divdf3+0x7c>
800037dc:	00050493          	mv	s1,a0
800037e0:	00040b13          	mv	s6,s0
800037e4:	00070c13          	mv	s8,a4
800037e8:	00300b93          	li	s7,3
800037ec:	eedff06f          	j	800036d8 <__divdf3+0x7c>
800037f0:	01946f33          	or	t5,s0,s9
800037f4:	080f0063          	beqz	t5,80003874 <__divdf3+0x218>
800037f8:	04040063          	beqz	s0,80003838 <__divdf3+0x1dc>
800037fc:	00040513          	mv	a0,s0
80003800:	625010ef          	jal	80005624 <__clzsi2>
80003804:	ff550713          	addi	a4,a0,-11
80003808:	01d00793          	li	a5,29
8000380c:	ff850693          	addi	a3,a0,-8
80003810:	40e787b3          	sub	a5,a5,a4
80003814:	00d41433          	sll	s0,s0,a3
80003818:	00fcd7b3          	srl	a5,s9,a5
8000381c:	0087e7b3          	or	a5,a5,s0
80003820:	00dc9433          	sll	s0,s9,a3
80003824:	c0d00693          	li	a3,-1011
80003828:	00040f13          	mv	t5,s0
8000382c:	40a686b3          	sub	a3,a3,a0
80003830:	00078413          	mv	s0,a5
80003834:	ee1ff06f          	j	80003714 <__divdf3+0xb8>
80003838:	000c8513          	mv	a0,s9
8000383c:	5e9010ef          	jal	80005624 <__clzsi2>
80003840:	00050793          	mv	a5,a0
80003844:	01578713          	addi	a4,a5,21
80003848:	01c00693          	li	a3,28
8000384c:	02050513          	addi	a0,a0,32
80003850:	fae6dce3          	bge	a3,a4,80003808 <__divdf3+0x1ac>
80003854:	ff878793          	addi	a5,a5,-8
80003858:	00fc97b3          	sll	a5,s9,a5
8000385c:	fc9ff06f          	j	80003824 <__divdf3+0x1c8>
80003860:	01946f33          	or	t5,s0,s9
80003864:	020f1063          	bnez	t5,80003884 <__divdf3+0x228>
80003868:	00000413          	li	s0,0
8000386c:	00200593          	li	a1,2
80003870:	ea9ff06f          	j	80003718 <__divdf3+0xbc>
80003874:	00000413          	li	s0,0
80003878:	00000693          	li	a3,0
8000387c:	00100593          	li	a1,1
80003880:	e99ff06f          	j	80003718 <__divdf3+0xbc>
80003884:	000c8f13          	mv	t5,s9
80003888:	00300593          	li	a1,3
8000388c:	e8dff06f          	j	80003718 <__divdf3+0xbc>
80003890:	01646663          	bltu	s0,s6,8000389c <__divdf3+0x240>
80003894:	348b1a63          	bne	s6,s0,80003be8 <__divdf3+0x58c>
80003898:	35e4e863          	bltu	s1,t5,80003be8 <__divdf3+0x58c>
8000389c:	01fb1693          	slli	a3,s6,0x1f
800038a0:	0014d793          	srli	a5,s1,0x1
800038a4:	01f49313          	slli	t1,s1,0x1f
800038a8:	001b5b13          	srli	s6,s6,0x1
800038ac:	00f6e4b3          	or	s1,a3,a5
800038b0:	00841813          	slli	a6,s0,0x8
800038b4:	018f5693          	srli	a3,t5,0x18
800038b8:	0106e6b3          	or	a3,a3,a6
800038bc:	01085813          	srli	a6,a6,0x10
800038c0:	030b5eb3          	divu	t4,s6,a6
800038c4:	01069893          	slli	a7,a3,0x10
800038c8:	0108d893          	srli	a7,a7,0x10
800038cc:	0104d793          	srli	a5,s1,0x10
800038d0:	008f1593          	slli	a1,t5,0x8
800038d4:	030b7b33          	remu	s6,s6,a6
800038d8:	000e8513          	mv	a0,t4
800038dc:	03d88e33          	mul	t3,a7,t4
800038e0:	010b1b13          	slli	s6,s6,0x10
800038e4:	0167e7b3          	or	a5,a5,s6
800038e8:	01c7fe63          	bgeu	a5,t3,80003904 <__divdf3+0x2a8>
800038ec:	00f687b3          	add	a5,a3,a5
800038f0:	fffe8513          	addi	a0,t4,-1
800038f4:	00d7e863          	bltu	a5,a3,80003904 <__divdf3+0x2a8>
800038f8:	01c7f663          	bgeu	a5,t3,80003904 <__divdf3+0x2a8>
800038fc:	ffee8513          	addi	a0,t4,-2
80003900:	00d787b3          	add	a5,a5,a3
80003904:	41c787b3          	sub	a5,a5,t3
80003908:	0307deb3          	divu	t4,a5,a6
8000390c:	01049493          	slli	s1,s1,0x10
80003910:	0104d493          	srli	s1,s1,0x10
80003914:	0307f7b3          	remu	a5,a5,a6
80003918:	03d88e33          	mul	t3,a7,t4
8000391c:	01079793          	slli	a5,a5,0x10
80003920:	00f4e4b3          	or	s1,s1,a5
80003924:	000e8793          	mv	a5,t4
80003928:	01c4fe63          	bgeu	s1,t3,80003944 <__divdf3+0x2e8>
8000392c:	009684b3          	add	s1,a3,s1
80003930:	fffe8793          	addi	a5,t4,-1
80003934:	00d4e863          	bltu	s1,a3,80003944 <__divdf3+0x2e8>
80003938:	01c4f663          	bgeu	s1,t3,80003944 <__divdf3+0x2e8>
8000393c:	ffee8793          	addi	a5,t4,-2
80003940:	00d484b3          	add	s1,s1,a3
80003944:	01051513          	slli	a0,a0,0x10
80003948:	00f56533          	or	a0,a0,a5
8000394c:	01051793          	slli	a5,a0,0x10
80003950:	01059e93          	slli	t4,a1,0x10
80003954:	01055f93          	srli	t6,a0,0x10
80003958:	0107d793          	srli	a5,a5,0x10
8000395c:	010ede93          	srli	t4,t4,0x10
80003960:	41c484b3          	sub	s1,s1,t3
80003964:	0105de13          	srli	t3,a1,0x10
80003968:	03d782b3          	mul	t0,a5,t4
8000396c:	03df83b3          	mul	t2,t6,t4
80003970:	02fe07b3          	mul	a5,t3,a5
80003974:	00778f33          	add	t5,a5,t2
80003978:	0102d793          	srli	a5,t0,0x10
8000397c:	01e787b3          	add	a5,a5,t5
80003980:	03cf8fb3          	mul	t6,t6,t3
80003984:	0077f663          	bgeu	a5,t2,80003990 <__divdf3+0x334>
80003988:	00010f37          	lui	t5,0x10
8000398c:	01ef8fb3          	add	t6,t6,t5
80003990:	0107df13          	srli	t5,a5,0x10
80003994:	01029293          	slli	t0,t0,0x10
80003998:	01079793          	slli	a5,a5,0x10
8000399c:	0102d293          	srli	t0,t0,0x10
800039a0:	01ff0f33          	add	t5,t5,t6
800039a4:	005787b3          	add	a5,a5,t0
800039a8:	01e4e863          	bltu	s1,t5,800039b8 <__divdf3+0x35c>
800039ac:	00050413          	mv	s0,a0
800039b0:	05e49863          	bne	s1,t5,80003a00 <__divdf3+0x3a4>
800039b4:	04f37663          	bgeu	t1,a5,80003a00 <__divdf3+0x3a4>
800039b8:	00b30fb3          	add	t6,t1,a1
800039bc:	006fb2b3          	sltu	t0,t6,t1
800039c0:	00d283b3          	add	t2,t0,a3
800039c4:	007484b3          	add	s1,s1,t2
800039c8:	fff50413          	addi	s0,a0,-1
800039cc:	000f8313          	mv	t1,t6
800039d0:	0096e663          	bltu	a3,s1,800039dc <__divdf3+0x380>
800039d4:	02969663          	bne	a3,s1,80003a00 <__divdf3+0x3a4>
800039d8:	02029463          	bnez	t0,80003a00 <__divdf3+0x3a4>
800039dc:	01e4e663          	bltu	s1,t5,800039e8 <__divdf3+0x38c>
800039e0:	029f1063          	bne	t5,s1,80003a00 <__divdf3+0x3a4>
800039e4:	00fffe63          	bgeu	t6,a5,80003a00 <__divdf3+0x3a4>
800039e8:	01f58fb3          	add	t6,a1,t6
800039ec:	ffe50413          	addi	s0,a0,-2
800039f0:	00bfb533          	sltu	a0,t6,a1
800039f4:	00d50533          	add	a0,a0,a3
800039f8:	000f8313          	mv	t1,t6
800039fc:	00a484b3          	add	s1,s1,a0
80003a00:	40f30533          	sub	a0,t1,a5
80003a04:	41e484b3          	sub	s1,s1,t5
80003a08:	00a33333          	sltu	t1,t1,a0
80003a0c:	406484b3          	sub	s1,s1,t1
80003a10:	fff00f13          	li	t5,-1
80003a14:	12968263          	beq	a3,s1,80003b38 <__divdf3+0x4dc>
80003a18:	0304dfb3          	divu	t6,s1,a6
80003a1c:	01055793          	srli	a5,a0,0x10
80003a20:	0304f4b3          	remu	s1,s1,a6
80003a24:	000f8313          	mv	t1,t6
80003a28:	03f88f33          	mul	t5,a7,t6
80003a2c:	01049493          	slli	s1,s1,0x10
80003a30:	0097e7b3          	or	a5,a5,s1
80003a34:	01e7fe63          	bgeu	a5,t5,80003a50 <__divdf3+0x3f4>
80003a38:	00f687b3          	add	a5,a3,a5
80003a3c:	ffff8313          	addi	t1,t6,-1
80003a40:	00d7e863          	bltu	a5,a3,80003a50 <__divdf3+0x3f4>
80003a44:	01e7f663          	bgeu	a5,t5,80003a50 <__divdf3+0x3f4>
80003a48:	ffef8313          	addi	t1,t6,-2
80003a4c:	00d787b3          	add	a5,a5,a3
80003a50:	41e787b3          	sub	a5,a5,t5
80003a54:	0307df33          	divu	t5,a5,a6
80003a58:	01051513          	slli	a0,a0,0x10
80003a5c:	01055513          	srli	a0,a0,0x10
80003a60:	0307f7b3          	remu	a5,a5,a6
80003a64:	000f0813          	mv	a6,t5
80003a68:	03e888b3          	mul	a7,a7,t5
80003a6c:	01079793          	slli	a5,a5,0x10
80003a70:	00f567b3          	or	a5,a0,a5
80003a74:	0117fe63          	bgeu	a5,a7,80003a90 <__divdf3+0x434>
80003a78:	00f687b3          	add	a5,a3,a5
80003a7c:	ffff0813          	addi	a6,t5,-1 # ffff <__heap_size+0x2fff>
80003a80:	00d7e863          	bltu	a5,a3,80003a90 <__divdf3+0x434>
80003a84:	0117f663          	bgeu	a5,a7,80003a90 <__divdf3+0x434>
80003a88:	ffef0813          	addi	a6,t5,-2
80003a8c:	00d787b3          	add	a5,a5,a3
80003a90:	01031513          	slli	a0,t1,0x10
80003a94:	01056533          	or	a0,a0,a6
80003a98:	01051813          	slli	a6,a0,0x10
80003a9c:	01085813          	srli	a6,a6,0x10
80003aa0:	01055313          	srli	t1,a0,0x10
80003aa4:	030e8f33          	mul	t5,t4,a6
80003aa8:	411787b3          	sub	a5,a5,a7
80003aac:	03d30eb3          	mul	t4,t1,t4
80003ab0:	026e0333          	mul	t1,t3,t1
80003ab4:	030e0e33          	mul	t3,t3,a6
80003ab8:	010f5813          	srli	a6,t5,0x10
80003abc:	01de0e33          	add	t3,t3,t4
80003ac0:	01c80833          	add	a6,a6,t3
80003ac4:	01d87663          	bgeu	a6,t4,80003ad0 <__divdf3+0x474>
80003ac8:	000108b7          	lui	a7,0x10
80003acc:	01130333          	add	t1,t1,a7
80003ad0:	01085893          	srli	a7,a6,0x10
80003ad4:	010f1f13          	slli	t5,t5,0x10
80003ad8:	01081813          	slli	a6,a6,0x10
80003adc:	010f5f13          	srli	t5,t5,0x10
80003ae0:	006888b3          	add	a7,a7,t1
80003ae4:	01e80833          	add	a6,a6,t5
80003ae8:	0117e863          	bltu	a5,a7,80003af8 <__divdf3+0x49c>
80003aec:	00050f13          	mv	t5,a0
80003af0:	05179263          	bne	a5,a7,80003b34 <__divdf3+0x4d8>
80003af4:	04080263          	beqz	a6,80003b38 <__divdf3+0x4dc>
80003af8:	00f687b3          	add	a5,a3,a5
80003afc:	fff50f13          	addi	t5,a0,-1
80003b00:	00078313          	mv	t1,a5
80003b04:	02d7e463          	bltu	a5,a3,80003b2c <__divdf3+0x4d0>
80003b08:	0117e663          	bltu	a5,a7,80003b14 <__divdf3+0x4b8>
80003b0c:	03179463          	bne	a5,a7,80003b34 <__divdf3+0x4d8>
80003b10:	0305f063          	bgeu	a1,a6,80003b30 <__divdf3+0x4d4>
80003b14:	ffe50f13          	addi	t5,a0,-2
80003b18:	00159513          	slli	a0,a1,0x1
80003b1c:	00b53333          	sltu	t1,a0,a1
80003b20:	00d30333          	add	t1,t1,a3
80003b24:	00678333          	add	t1,a5,t1
80003b28:	00050593          	mv	a1,a0
80003b2c:	01131463          	bne	t1,a7,80003b34 <__divdf3+0x4d8>
80003b30:	00b80463          	beq	a6,a1,80003b38 <__divdf3+0x4dc>
80003b34:	001f6f13          	ori	t5,t5,1
80003b38:	3ff70793          	addi	a5,a4,1023
80003b3c:	0ef05a63          	blez	a5,80003c30 <__divdf3+0x5d4>
80003b40:	007f7693          	andi	a3,t5,7
80003b44:	02068063          	beqz	a3,80003b64 <__divdf3+0x508>
80003b48:	00ff7693          	andi	a3,t5,15
80003b4c:	00400593          	li	a1,4
80003b50:	00b68a63          	beq	a3,a1,80003b64 <__divdf3+0x508>
80003b54:	00bf06b3          	add	a3,t5,a1
80003b58:	01e6b5b3          	sltu	a1,a3,t5
80003b5c:	00b40433          	add	s0,s0,a1
80003b60:	00068f13          	mv	t5,a3
80003b64:	00741693          	slli	a3,s0,0x7
80003b68:	0006da63          	bgez	a3,80003b7c <__divdf3+0x520>
80003b6c:	ff0007b7          	lui	a5,0xff000
80003b70:	fff78793          	addi	a5,a5,-1 # feffffff <__stack_top+0x7efe9c2f>
80003b74:	00f47433          	and	s0,s0,a5
80003b78:	40070793          	addi	a5,a4,1024
80003b7c:	7fe00713          	li	a4,2046
80003b80:	16f74c63          	blt	a4,a5,80003cf8 <__divdf3+0x69c>
80003b84:	01d41713          	slli	a4,s0,0x1d
80003b88:	003f5f13          	srli	t5,t5,0x3
80003b8c:	01e76733          	or	a4,a4,t5
80003b90:	00345413          	srli	s0,s0,0x3
80003b94:	00c41413          	slli	s0,s0,0xc
80003b98:	00c45413          	srli	s0,s0,0xc
80003b9c:	01479793          	slli	a5,a5,0x14
80003ba0:	02c12083          	lw	ra,44(sp)
80003ba4:	0087e7b3          	or	a5,a5,s0
80003ba8:	02812403          	lw	s0,40(sp)
80003bac:	01f61613          	slli	a2,a2,0x1f
80003bb0:	00c7e6b3          	or	a3,a5,a2
80003bb4:	02412483          	lw	s1,36(sp)
80003bb8:	02012903          	lw	s2,32(sp)
80003bbc:	01c12983          	lw	s3,28(sp)
80003bc0:	01812a03          	lw	s4,24(sp)
80003bc4:	01412a83          	lw	s5,20(sp)
80003bc8:	01012b03          	lw	s6,16(sp)
80003bcc:	00c12b83          	lw	s7,12(sp)
80003bd0:	00812c03          	lw	s8,8(sp)
80003bd4:	00412c83          	lw	s9,4(sp)
80003bd8:	00070513          	mv	a0,a4
80003bdc:	00068593          	mv	a1,a3
80003be0:	03010113          	addi	sp,sp,48
80003be4:	00008067          	ret
80003be8:	fff70713          	addi	a4,a4,-1
80003bec:	00000313          	li	t1,0
80003bf0:	cc1ff06f          	j	800038b0 <__divdf3+0x254>
80003bf4:	000a8613          	mv	a2,s5
80003bf8:	00058b93          	mv	s7,a1
80003bfc:	00200793          	li	a5,2
80003c00:	0efb8c63          	beq	s7,a5,80003cf8 <__divdf3+0x69c>
80003c04:	00300793          	li	a5,3
80003c08:	0cfb8e63          	beq	s7,a5,80003ce4 <__divdf3+0x688>
80003c0c:	00100793          	li	a5,1
80003c10:	f2fb94e3          	bne	s7,a5,80003b38 <__divdf3+0x4dc>
80003c14:	00000413          	li	s0,0
80003c18:	00000713          	li	a4,0
80003c1c:	08c0006f          	j	80003ca8 <__divdf3+0x64c>
80003c20:	000a0613          	mv	a2,s4
80003c24:	000b0413          	mv	s0,s6
80003c28:	00048f13          	mv	t5,s1
80003c2c:	fd1ff06f          	j	80003bfc <__divdf3+0x5a0>
80003c30:	00100593          	li	a1,1
80003c34:	00078c63          	beqz	a5,80003c4c <__divdf3+0x5f0>
80003c38:	40f585b3          	sub	a1,a1,a5
80003c3c:	03800693          	li	a3,56
80003c40:	fcb6cae3          	blt	a3,a1,80003c14 <__divdf3+0x5b8>
80003c44:	01f00693          	li	a3,31
80003c48:	06b6c463          	blt	a3,a1,80003cb0 <__divdf3+0x654>
80003c4c:	41e70713          	addi	a4,a4,1054
80003c50:	00bf57b3          	srl	a5,t5,a1
80003c54:	00ef1f33          	sll	t5,t5,a4
80003c58:	01e03f33          	snez	t5,t5
80003c5c:	00e41733          	sll	a4,s0,a4
80003c60:	00ef6f33          	or	t5,t5,a4
80003c64:	01e7e7b3          	or	a5,a5,t5
80003c68:	00b45433          	srl	s0,s0,a1
80003c6c:	0077f713          	andi	a4,a5,7
80003c70:	02070063          	beqz	a4,80003c90 <__divdf3+0x634>
80003c74:	00f7f713          	andi	a4,a5,15
80003c78:	00400693          	li	a3,4
80003c7c:	00d70a63          	beq	a4,a3,80003c90 <__divdf3+0x634>
80003c80:	00d78733          	add	a4,a5,a3
80003c84:	00f736b3          	sltu	a3,a4,a5
80003c88:	00d40433          	add	s0,s0,a3
80003c8c:	00070793          	mv	a5,a4
80003c90:	00841713          	slli	a4,s0,0x8
80003c94:	06074a63          	bltz	a4,80003d08 <__divdf3+0x6ac>
80003c98:	01d41713          	slli	a4,s0,0x1d
80003c9c:	0037d793          	srli	a5,a5,0x3
80003ca0:	00f76733          	or	a4,a4,a5
80003ca4:	00345413          	srli	s0,s0,0x3
80003ca8:	00000793          	li	a5,0
80003cac:	ee9ff06f          	j	80003b94 <__divdf3+0x538>
80003cb0:	fe100693          	li	a3,-31
80003cb4:	40f687b3          	sub	a5,a3,a5
80003cb8:	02000513          	li	a0,32
80003cbc:	00f457b3          	srl	a5,s0,a5
80003cc0:	00000693          	li	a3,0
80003cc4:	00a58663          	beq	a1,a0,80003cd0 <__divdf3+0x674>
80003cc8:	43e70713          	addi	a4,a4,1086
80003ccc:	00e416b3          	sll	a3,s0,a4
80003cd0:	01e6e6b3          	or	a3,a3,t5
80003cd4:	00d036b3          	snez	a3,a3
80003cd8:	00d7e7b3          	or	a5,a5,a3
80003cdc:	00000413          	li	s0,0
80003ce0:	f8dff06f          	j	80003c6c <__divdf3+0x610>
80003ce4:	00080437          	lui	s0,0x80
80003ce8:	00000713          	li	a4,0
80003cec:	7ff00793          	li	a5,2047
80003cf0:	00000613          	li	a2,0
80003cf4:	ea1ff06f          	j	80003b94 <__divdf3+0x538>
80003cf8:	00000413          	li	s0,0
80003cfc:	00000713          	li	a4,0
80003d00:	7ff00793          	li	a5,2047
80003d04:	e91ff06f          	j	80003b94 <__divdf3+0x538>
80003d08:	00000413          	li	s0,0
80003d0c:	00000713          	li	a4,0
80003d10:	00100793          	li	a5,1
80003d14:	e81ff06f          	j	80003b94 <__divdf3+0x538>

80003d18 <__ledf2>:
80003d18:	0146d793          	srli	a5,a3,0x14
80003d1c:	0145d893          	srli	a7,a1,0x14
80003d20:	00100737          	lui	a4,0x100
80003d24:	fff70713          	addi	a4,a4,-1 # fffff <__heap_size+0xf2fff>
80003d28:	00050813          	mv	a6,a0
80003d2c:	00050e13          	mv	t3,a0
80003d30:	7ff8f893          	andi	a7,a7,2047
80003d34:	7ff7f513          	andi	a0,a5,2047
80003d38:	7ff00793          	li	a5,2047
80003d3c:	00b77333          	and	t1,a4,a1
80003d40:	00060e93          	mv	t4,a2
80003d44:	00d77733          	and	a4,a4,a3
80003d48:	01f5d593          	srli	a1,a1,0x1f
80003d4c:	01f6d693          	srli	a3,a3,0x1f
80003d50:	00f89663          	bne	a7,a5,80003d5c <__ledf2+0x44>
80003d54:	01036f33          	or	t5,t1,a6
80003d58:	060f1663          	bnez	t5,80003dc4 <__ledf2+0xac>
80003d5c:	00f51663          	bne	a0,a5,80003d68 <__ledf2+0x50>
80003d60:	00c767b3          	or	a5,a4,a2
80003d64:	06079063          	bnez	a5,80003dc4 <__ledf2+0xac>
80003d68:	00000793          	li	a5,0
80003d6c:	00089663          	bnez	a7,80003d78 <__ledf2+0x60>
80003d70:	01036833          	or	a6,t1,a6
80003d74:	00183793          	seqz	a5,a6
80003d78:	04051a63          	bnez	a0,80003dcc <__ledf2+0xb4>
80003d7c:	00c76633          	or	a2,a4,a2
80003d80:	00078a63          	beqz	a5,80003d94 <__ledf2+0x7c>
80003d84:	06060063          	beqz	a2,80003de4 <__ledf2+0xcc>
80003d88:	00169513          	slli	a0,a3,0x1
80003d8c:	fff50513          	addi	a0,a0,-1
80003d90:	00008067          	ret
80003d94:	02061e63          	bnez	a2,80003dd0 <__ledf2+0xb8>
80003d98:	40b005b3          	neg	a1,a1
80003d9c:	0015e513          	ori	a0,a1,1
80003da0:	00008067          	ret
80003da4:	fea8c2e3          	blt	a7,a0,80003d88 <__ledf2+0x70>
80003da8:	fe6768e3          	bltu	a4,t1,80003d98 <__ledf2+0x80>
80003dac:	00e31863          	bne	t1,a4,80003dbc <__ledf2+0xa4>
80003db0:	ffcee4e3          	bltu	t4,t3,80003d98 <__ledf2+0x80>
80003db4:	00000513          	li	a0,0
80003db8:	03de7663          	bgeu	t3,t4,80003de4 <__ledf2+0xcc>
80003dbc:	00159513          	slli	a0,a1,0x1
80003dc0:	fcdff06f          	j	80003d8c <__ledf2+0x74>
80003dc4:	00200513          	li	a0,2
80003dc8:	00008067          	ret
80003dcc:	fa079ee3          	bnez	a5,80003d88 <__ledf2+0x70>
80003dd0:	fcb694e3          	bne	a3,a1,80003d98 <__ledf2+0x80>
80003dd4:	fd1558e3          	bge	a0,a7,80003da4 <__ledf2+0x8c>
80003dd8:	40d006b3          	neg	a3,a3
80003ddc:	0016e513          	ori	a0,a3,1
80003de0:	00008067          	ret
80003de4:	00008067          	ret

80003de8 <__muldf3>:
80003de8:	fd010113          	addi	sp,sp,-48
80003dec:	01712623          	sw	s7,12(sp)
80003df0:	0145db93          	srli	s7,a1,0x14
80003df4:	02812423          	sw	s0,40(sp)
80003df8:	02912223          	sw	s1,36(sp)
80003dfc:	01512a23          	sw	s5,20(sp)
80003e00:	01612823          	sw	s6,16(sp)
80003e04:	01812423          	sw	s8,8(sp)
80003e08:	00c59493          	slli	s1,a1,0xc
80003e0c:	02112623          	sw	ra,44(sp)
80003e10:	03212023          	sw	s2,32(sp)
80003e14:	01312e23          	sw	s3,28(sp)
80003e18:	01412c23          	sw	s4,24(sp)
80003e1c:	01912223          	sw	s9,4(sp)
80003e20:	7ffbfb93          	andi	s7,s7,2047
80003e24:	00050413          	mv	s0,a0
80003e28:	00060c13          	mv	s8,a2
80003e2c:	00068a93          	mv	s5,a3
80003e30:	00c4d493          	srli	s1,s1,0xc
80003e34:	01f5db13          	srli	s6,a1,0x1f
80003e38:	0c0b8263          	beqz	s7,80003efc <__muldf3+0x114>
80003e3c:	7ff00793          	li	a5,2047
80003e40:	12fb8463          	beq	s7,a5,80003f68 <__muldf3+0x180>
80003e44:	00349493          	slli	s1,s1,0x3
80003e48:	01d55793          	srli	a5,a0,0x1d
80003e4c:	0097e7b3          	or	a5,a5,s1
80003e50:	008004b7          	lui	s1,0x800
80003e54:	0097e4b3          	or	s1,a5,s1
80003e58:	00351a13          	slli	s4,a0,0x3
80003e5c:	c01b8b93          	addi	s7,s7,-1023
80003e60:	00000c93          	li	s9,0
80003e64:	014ad693          	srli	a3,s5,0x14
80003e68:	00ca9413          	slli	s0,s5,0xc
80003e6c:	7ff6f693          	andi	a3,a3,2047
80003e70:	00c45413          	srli	s0,s0,0xc
80003e74:	01fada93          	srli	s5,s5,0x1f
80003e78:	12068063          	beqz	a3,80003f98 <__muldf3+0x1b0>
80003e7c:	7ff00793          	li	a5,2047
80003e80:	18f68463          	beq	a3,a5,80004008 <__muldf3+0x220>
80003e84:	00341413          	slli	s0,s0,0x3
80003e88:	01dc5793          	srli	a5,s8,0x1d
80003e8c:	0087e7b3          	or	a5,a5,s0
80003e90:	00800437          	lui	s0,0x800
80003e94:	0087e433          	or	s0,a5,s0
80003e98:	c0168693          	addi	a3,a3,-1023
80003e9c:	003c1793          	slli	a5,s8,0x3
80003ea0:	00000513          	li	a0,0
80003ea4:	002c9713          	slli	a4,s9,0x2
80003ea8:	00db8bb3          	add	s7,s7,a3
80003eac:	00a76733          	or	a4,a4,a0
80003eb0:	00a00693          	li	a3,10
80003eb4:	001b8593          	addi	a1,s7,1
80003eb8:	1ae6c263          	blt	a3,a4,8000405c <__muldf3+0x274>
80003ebc:	00200813          	li	a6,2
80003ec0:	015b4633          	xor	a2,s6,s5
80003ec4:	00100693          	li	a3,1
80003ec8:	16e84863          	blt	a6,a4,80004038 <__muldf3+0x250>
80003ecc:	fff70713          	addi	a4,a4,-1
80003ed0:	1ae6e663          	bltu	a3,a4,8000407c <__muldf3+0x294>
80003ed4:	00050c93          	mv	s9,a0
80003ed8:	00200713          	li	a4,2
80003edc:	4eec8063          	beq	s9,a4,800043bc <__muldf3+0x5d4>
80003ee0:	00300713          	li	a4,3
80003ee4:	4cec8663          	beq	s9,a4,800043b0 <__muldf3+0x5c8>
80003ee8:	00100713          	li	a4,1
80003eec:	34ec9463          	bne	s9,a4,80004234 <__muldf3+0x44c>
80003ef0:	00000413          	li	s0,0
80003ef4:	00000693          	li	a3,0
80003ef8:	46c0006f          	j	80004364 <__muldf3+0x57c>
80003efc:	00a4ea33          	or	s4,s1,a0
80003f00:	060a0e63          	beqz	s4,80003f7c <__muldf3+0x194>
80003f04:	04048063          	beqz	s1,80003f44 <__muldf3+0x15c>
80003f08:	00048513          	mv	a0,s1
80003f0c:	718010ef          	jal	80005624 <__clzsi2>
80003f10:	ff550713          	addi	a4,a0,-11
80003f14:	01d00793          	li	a5,29
80003f18:	ff850693          	addi	a3,a0,-8
80003f1c:	40e787b3          	sub	a5,a5,a4
80003f20:	00d494b3          	sll	s1,s1,a3
80003f24:	00f457b3          	srl	a5,s0,a5
80003f28:	0097e7b3          	or	a5,a5,s1
80003f2c:	00d414b3          	sll	s1,s0,a3
80003f30:	c0d00b93          	li	s7,-1011
80003f34:	00048a13          	mv	s4,s1
80003f38:	40ab8bb3          	sub	s7,s7,a0
80003f3c:	00078493          	mv	s1,a5
80003f40:	f21ff06f          	j	80003e60 <__muldf3+0x78>
80003f44:	6e0010ef          	jal	80005624 <__clzsi2>
80003f48:	00050793          	mv	a5,a0
80003f4c:	01578713          	addi	a4,a5,21
80003f50:	01c00693          	li	a3,28
80003f54:	02050513          	addi	a0,a0,32
80003f58:	fae6dee3          	bge	a3,a4,80003f14 <__muldf3+0x12c>
80003f5c:	ff878793          	addi	a5,a5,-8
80003f60:	00f417b3          	sll	a5,s0,a5
80003f64:	fcdff06f          	j	80003f30 <__muldf3+0x148>
80003f68:	00a4ea33          	or	s4,s1,a0
80003f6c:	020a1063          	bnez	s4,80003f8c <__muldf3+0x1a4>
80003f70:	00000493          	li	s1,0
80003f74:	00200c93          	li	s9,2
80003f78:	eedff06f          	j	80003e64 <__muldf3+0x7c>
80003f7c:	00000493          	li	s1,0
80003f80:	00000b93          	li	s7,0
80003f84:	00100c93          	li	s9,1
80003f88:	eddff06f          	j	80003e64 <__muldf3+0x7c>
80003f8c:	00050a13          	mv	s4,a0
80003f90:	00300c93          	li	s9,3
80003f94:	ed1ff06f          	j	80003e64 <__muldf3+0x7c>
80003f98:	018467b3          	or	a5,s0,s8
80003f9c:	08078063          	beqz	a5,8000401c <__muldf3+0x234>
80003fa0:	04040063          	beqz	s0,80003fe0 <__muldf3+0x1f8>
80003fa4:	00040513          	mv	a0,s0
80003fa8:	67c010ef          	jal	80005624 <__clzsi2>
80003fac:	ff550693          	addi	a3,a0,-11
80003fb0:	01d00713          	li	a4,29
80003fb4:	ff850793          	addi	a5,a0,-8
80003fb8:	40d70733          	sub	a4,a4,a3
80003fbc:	00f41433          	sll	s0,s0,a5
80003fc0:	00ec5733          	srl	a4,s8,a4
80003fc4:	00876733          	or	a4,a4,s0
80003fc8:	00fc1433          	sll	s0,s8,a5
80003fcc:	c0d00693          	li	a3,-1011
80003fd0:	00040793          	mv	a5,s0
80003fd4:	40a686b3          	sub	a3,a3,a0
80003fd8:	00070413          	mv	s0,a4
80003fdc:	ec5ff06f          	j	80003ea0 <__muldf3+0xb8>
80003fe0:	000c0513          	mv	a0,s8
80003fe4:	640010ef          	jal	80005624 <__clzsi2>
80003fe8:	00050793          	mv	a5,a0
80003fec:	01578693          	addi	a3,a5,21
80003ff0:	01c00713          	li	a4,28
80003ff4:	02050513          	addi	a0,a0,32
80003ff8:	fad75ce3          	bge	a4,a3,80003fb0 <__muldf3+0x1c8>
80003ffc:	ff878793          	addi	a5,a5,-8
80004000:	00fc1733          	sll	a4,s8,a5
80004004:	fc9ff06f          	j	80003fcc <__muldf3+0x1e4>
80004008:	018467b3          	or	a5,s0,s8
8000400c:	02079063          	bnez	a5,8000402c <__muldf3+0x244>
80004010:	00000413          	li	s0,0
80004014:	00200513          	li	a0,2
80004018:	e8dff06f          	j	80003ea4 <__muldf3+0xbc>
8000401c:	00000413          	li	s0,0
80004020:	00000693          	li	a3,0
80004024:	00100513          	li	a0,1
80004028:	e7dff06f          	j	80003ea4 <__muldf3+0xbc>
8000402c:	000c0793          	mv	a5,s8
80004030:	00300513          	li	a0,3
80004034:	e71ff06f          	j	80003ea4 <__muldf3+0xbc>
80004038:	00e69733          	sll	a4,a3,a4
8000403c:	53077693          	andi	a3,a4,1328
80004040:	02069863          	bnez	a3,80004070 <__muldf3+0x288>
80004044:	24077813          	andi	a6,a4,576
80004048:	34081c63          	bnez	a6,800043a0 <__muldf3+0x5b8>
8000404c:	08877713          	andi	a4,a4,136
80004050:	02070663          	beqz	a4,8000407c <__muldf3+0x294>
80004054:	000a8613          	mv	a2,s5
80004058:	e7dff06f          	j	80003ed4 <__muldf3+0xec>
8000405c:	00f00693          	li	a3,15
80004060:	34d70863          	beq	a4,a3,800043b0 <__muldf3+0x5c8>
80004064:	00b00693          	li	a3,11
80004068:	000b0613          	mv	a2,s6
8000406c:	fed704e3          	beq	a4,a3,80004054 <__muldf3+0x26c>
80004070:	00048413          	mv	s0,s1
80004074:	000a0793          	mv	a5,s4
80004078:	e61ff06f          	j	80003ed8 <__muldf3+0xf0>
8000407c:	010a5693          	srli	a3,s4,0x10
80004080:	0107d893          	srli	a7,a5,0x10
80004084:	010a1a13          	slli	s4,s4,0x10
80004088:	01079793          	slli	a5,a5,0x10
8000408c:	010a5a13          	srli	s4,s4,0x10
80004090:	0107d793          	srli	a5,a5,0x10
80004094:	02fa0533          	mul	a0,s4,a5
80004098:	02f68e33          	mul	t3,a3,a5
8000409c:	01055813          	srli	a6,a0,0x10
800040a0:	03488333          	mul	t1,a7,s4
800040a4:	01c30333          	add	t1,t1,t3
800040a8:	00680833          	add	a6,a6,t1
800040ac:	03168733          	mul	a4,a3,a7
800040b0:	01c87663          	bgeu	a6,t3,800040bc <__muldf3+0x2d4>
800040b4:	00010337          	lui	t1,0x10
800040b8:	00670733          	add	a4,a4,t1
800040bc:	01051513          	slli	a0,a0,0x10
800040c0:	01055513          	srli	a0,a0,0x10
800040c4:	01085f93          	srli	t6,a6,0x10
800040c8:	01081813          	slli	a6,a6,0x10
800040cc:	00a80833          	add	a6,a6,a0
800040d0:	01045513          	srli	a0,s0,0x10
800040d4:	01041413          	slli	s0,s0,0x10
800040d8:	01045413          	srli	s0,s0,0x10
800040dc:	028a0e33          	mul	t3,s4,s0
800040e0:	02868eb3          	mul	t4,a3,s0
800040e4:	010e5313          	srli	t1,t3,0x10
800040e8:	03450a33          	mul	s4,a0,s4
800040ec:	01da0a33          	add	s4,s4,t4
800040f0:	01430333          	add	t1,t1,s4
800040f4:	02a686b3          	mul	a3,a3,a0
800040f8:	01d37663          	bgeu	t1,t4,80004104 <__muldf3+0x31c>
800040fc:	00010eb7          	lui	t4,0x10
80004100:	01d686b3          	add	a3,a3,t4
80004104:	01035f13          	srli	t5,t1,0x10
80004108:	00df0f33          	add	t5,t5,a3
8000410c:	01031693          	slli	a3,t1,0x10
80004110:	0104d313          	srli	t1,s1,0x10
80004114:	01049493          	slli	s1,s1,0x10
80004118:	0104d493          	srli	s1,s1,0x10
8000411c:	02f48eb3          	mul	t4,s1,a5
80004120:	010e1e13          	slli	t3,t3,0x10
80004124:	010e5e13          	srli	t3,t3,0x10
80004128:	01c686b3          	add	a3,a3,t3
8000412c:	00df8fb3          	add	t6,t6,a3
80004130:	02f307b3          	mul	a5,t1,a5
80004134:	010ede13          	srli	t3,t4,0x10
80004138:	026882b3          	mul	t0,a7,t1
8000413c:	029888b3          	mul	a7,a7,s1
80004140:	00f888b3          	add	a7,a7,a5
80004144:	011e08b3          	add	a7,t3,a7
80004148:	00f8f663          	bgeu	a7,a5,80004154 <__muldf3+0x36c>
8000414c:	000107b7          	lui	a5,0x10
80004150:	00f282b3          	add	t0,t0,a5
80004154:	028487b3          	mul	a5,s1,s0
80004158:	010e9e93          	slli	t4,t4,0x10
8000415c:	0108de13          	srli	t3,a7,0x10
80004160:	010ede93          	srli	t4,t4,0x10
80004164:	01089893          	slli	a7,a7,0x10
80004168:	01d888b3          	add	a7,a7,t4
8000416c:	005e0e33          	add	t3,t3,t0
80004170:	02830433          	mul	s0,t1,s0
80004174:	0107de93          	srli	t4,a5,0x10
80004178:	02650333          	mul	t1,a0,t1
8000417c:	02950533          	mul	a0,a0,s1
80004180:	00850533          	add	a0,a0,s0
80004184:	00ae8eb3          	add	t4,t4,a0
80004188:	008ef663          	bgeu	t4,s0,80004194 <__muldf3+0x3ac>
8000418c:	00010537          	lui	a0,0x10
80004190:	00a30333          	add	t1,t1,a0
80004194:	01079793          	slli	a5,a5,0x10
80004198:	010e9513          	slli	a0,t4,0x10
8000419c:	0107d793          	srli	a5,a5,0x10
800041a0:	01f70733          	add	a4,a4,t6
800041a4:	00f50533          	add	a0,a0,a5
800041a8:	01e50f33          	add	t5,a0,t5
800041ac:	00d737b3          	sltu	a5,a4,a3
800041b0:	00ff07b3          	add	a5,t5,a5
800041b4:	011708b3          	add	a7,a4,a7
800041b8:	01c78e33          	add	t3,a5,t3
800041bc:	00e8b6b3          	sltu	a3,a7,a4
800041c0:	00de06b3          	add	a3,t3,a3
800041c4:	00af3533          	sltu	a0,t5,a0
800041c8:	01e7bf33          	sltu	t5,a5,t5
800041cc:	00fe3733          	sltu	a4,t3,a5
800041d0:	01e56533          	or	a0,a0,t5
800041d4:	01c6be33          	sltu	t3,a3,t3
800041d8:	010ede93          	srli	t4,t4,0x10
800041dc:	00989793          	slli	a5,a7,0x9
800041e0:	01d50533          	add	a0,a0,t4
800041e4:	01c76733          	or	a4,a4,t3
800041e8:	00a70733          	add	a4,a4,a0
800041ec:	0107e7b3          	or	a5,a5,a6
800041f0:	00670733          	add	a4,a4,t1
800041f4:	00f037b3          	snez	a5,a5
800041f8:	0178d893          	srli	a7,a7,0x17
800041fc:	00971713          	slli	a4,a4,0x9
80004200:	0176d413          	srli	s0,a3,0x17
80004204:	0117e7b3          	or	a5,a5,a7
80004208:	00969693          	slli	a3,a3,0x9
8000420c:	00d7e7b3          	or	a5,a5,a3
80004210:	00771693          	slli	a3,a4,0x7
80004214:	00876433          	or	s0,a4,s0
80004218:	0c06d663          	bgez	a3,800042e4 <__muldf3+0x4fc>
8000421c:	0017d713          	srli	a4,a5,0x1
80004220:	0017f793          	andi	a5,a5,1
80004224:	00f76733          	or	a4,a4,a5
80004228:	01f41793          	slli	a5,s0,0x1f
8000422c:	00f767b3          	or	a5,a4,a5
80004230:	00145413          	srli	s0,s0,0x1
80004234:	3ff58713          	addi	a4,a1,1023
80004238:	0ae05a63          	blez	a4,800042ec <__muldf3+0x504>
8000423c:	0077f693          	andi	a3,a5,7
80004240:	02068063          	beqz	a3,80004260 <__muldf3+0x478>
80004244:	00f7f693          	andi	a3,a5,15
80004248:	00400513          	li	a0,4
8000424c:	00a68a63          	beq	a3,a0,80004260 <__muldf3+0x478>
80004250:	00a786b3          	add	a3,a5,a0
80004254:	00f6b533          	sltu	a0,a3,a5
80004258:	00a40433          	add	s0,s0,a0
8000425c:	00068793          	mv	a5,a3
80004260:	00741693          	slli	a3,s0,0x7
80004264:	0006da63          	bgez	a3,80004278 <__muldf3+0x490>
80004268:	ff000737          	lui	a4,0xff000
8000426c:	fff70713          	addi	a4,a4,-1 # feffffff <__stack_top+0x7efe9c2f>
80004270:	00e47433          	and	s0,s0,a4
80004274:	40058713          	addi	a4,a1,1024
80004278:	7fe00693          	li	a3,2046
8000427c:	14e6c063          	blt	a3,a4,800043bc <__muldf3+0x5d4>
80004280:	01d41693          	slli	a3,s0,0x1d
80004284:	0037d793          	srli	a5,a5,0x3
80004288:	00f6e6b3          	or	a3,a3,a5
8000428c:	00345413          	srli	s0,s0,0x3
80004290:	00c41413          	slli	s0,s0,0xc
80004294:	00c45413          	srli	s0,s0,0xc
80004298:	01471713          	slli	a4,a4,0x14
8000429c:	02c12083          	lw	ra,44(sp)
800042a0:	00876733          	or	a4,a4,s0
800042a4:	02812403          	lw	s0,40(sp)
800042a8:	01f61613          	slli	a2,a2,0x1f
800042ac:	00c767b3          	or	a5,a4,a2
800042b0:	02412483          	lw	s1,36(sp)
800042b4:	02012903          	lw	s2,32(sp)
800042b8:	01c12983          	lw	s3,28(sp)
800042bc:	01812a03          	lw	s4,24(sp)
800042c0:	01412a83          	lw	s5,20(sp)
800042c4:	01012b03          	lw	s6,16(sp)
800042c8:	00c12b83          	lw	s7,12(sp)
800042cc:	00812c03          	lw	s8,8(sp)
800042d0:	00412c83          	lw	s9,4(sp)
800042d4:	00068513          	mv	a0,a3
800042d8:	00078593          	mv	a1,a5
800042dc:	03010113          	addi	sp,sp,48
800042e0:	00008067          	ret
800042e4:	000b8593          	mv	a1,s7
800042e8:	f4dff06f          	j	80004234 <__muldf3+0x44c>
800042ec:	00100513          	li	a0,1
800042f0:	00070c63          	beqz	a4,80004308 <__muldf3+0x520>
800042f4:	40e50533          	sub	a0,a0,a4
800042f8:	03800693          	li	a3,56
800042fc:	bea6cae3          	blt	a3,a0,80003ef0 <__muldf3+0x108>
80004300:	01f00693          	li	a3,31
80004304:	06a6c463          	blt	a3,a0,8000436c <__muldf3+0x584>
80004308:	41e58593          	addi	a1,a1,1054
8000430c:	00a7d733          	srl	a4,a5,a0
80004310:	00b797b3          	sll	a5,a5,a1
80004314:	00f037b3          	snez	a5,a5
80004318:	00b415b3          	sll	a1,s0,a1
8000431c:	00b7e7b3          	or	a5,a5,a1
80004320:	00f767b3          	or	a5,a4,a5
80004324:	00a45433          	srl	s0,s0,a0
80004328:	0077f713          	andi	a4,a5,7
8000432c:	02070063          	beqz	a4,8000434c <__muldf3+0x564>
80004330:	00f7f713          	andi	a4,a5,15
80004334:	00400693          	li	a3,4
80004338:	00d70a63          	beq	a4,a3,8000434c <__muldf3+0x564>
8000433c:	00d78733          	add	a4,a5,a3
80004340:	00f736b3          	sltu	a3,a4,a5
80004344:	00d40433          	add	s0,s0,a3
80004348:	00070793          	mv	a5,a4
8000434c:	00841713          	slli	a4,s0,0x8
80004350:	06074e63          	bltz	a4,800043cc <__muldf3+0x5e4>
80004354:	01d41693          	slli	a3,s0,0x1d
80004358:	0037d793          	srli	a5,a5,0x3
8000435c:	00f6e6b3          	or	a3,a3,a5
80004360:	00345413          	srli	s0,s0,0x3
80004364:	00000713          	li	a4,0
80004368:	f29ff06f          	j	80004290 <__muldf3+0x4a8>
8000436c:	fe100693          	li	a3,-31
80004370:	40e68733          	sub	a4,a3,a4
80004374:	02000813          	li	a6,32
80004378:	00e45733          	srl	a4,s0,a4
8000437c:	00000693          	li	a3,0
80004380:	01050663          	beq	a0,a6,8000438c <__muldf3+0x5a4>
80004384:	43e58593          	addi	a1,a1,1086
80004388:	00b416b3          	sll	a3,s0,a1
8000438c:	00f6e6b3          	or	a3,a3,a5
80004390:	00d036b3          	snez	a3,a3
80004394:	00d767b3          	or	a5,a4,a3
80004398:	00000413          	li	s0,0
8000439c:	f8dff06f          	j	80004328 <__muldf3+0x540>
800043a0:	00080437          	lui	s0,0x80
800043a4:	7ff00713          	li	a4,2047
800043a8:	00000613          	li	a2,0
800043ac:	ee5ff06f          	j	80004290 <__muldf3+0x4a8>
800043b0:	00080437          	lui	s0,0x80
800043b4:	00000693          	li	a3,0
800043b8:	fedff06f          	j	800043a4 <__muldf3+0x5bc>
800043bc:	00000413          	li	s0,0
800043c0:	00000693          	li	a3,0
800043c4:	7ff00713          	li	a4,2047
800043c8:	ec9ff06f          	j	80004290 <__muldf3+0x4a8>
800043cc:	00000413          	li	s0,0
800043d0:	00000693          	li	a3,0
800043d4:	00100713          	li	a4,1
800043d8:	eb9ff06f          	j	80004290 <__muldf3+0x4a8>

800043dc <__subdf3>:
800043dc:	00100837          	lui	a6,0x100
800043e0:	fff80813          	addi	a6,a6,-1 # fffff <__heap_size+0xf2fff>
800043e4:	fe010113          	addi	sp,sp,-32
800043e8:	00b878b3          	and	a7,a6,a1
800043ec:	0145d713          	srli	a4,a1,0x14
800043f0:	01d55793          	srli	a5,a0,0x1d
800043f4:	00d87833          	and	a6,a6,a3
800043f8:	01412423          	sw	s4,8(sp)
800043fc:	7ff77a13          	andi	s4,a4,2047
80004400:	00389713          	slli	a4,a7,0x3
80004404:	0146d893          	srli	a7,a3,0x14
80004408:	01312623          	sw	s3,12(sp)
8000440c:	00e7e7b3          	or	a5,a5,a4
80004410:	01f5d993          	srli	s3,a1,0x1f
80004414:	00381813          	slli	a6,a6,0x3
80004418:	01d65593          	srli	a1,a2,0x1d
8000441c:	00112e23          	sw	ra,28(sp)
80004420:	00812c23          	sw	s0,24(sp)
80004424:	00912a23          	sw	s1,20(sp)
80004428:	01212823          	sw	s2,16(sp)
8000442c:	01512223          	sw	s5,4(sp)
80004430:	7ff8f893          	andi	a7,a7,2047
80004434:	7ff00713          	li	a4,2047
80004438:	00351513          	slli	a0,a0,0x3
8000443c:	01f6d693          	srli	a3,a3,0x1f
80004440:	0105e5b3          	or	a1,a1,a6
80004444:	00361613          	slli	a2,a2,0x3
80004448:	00e89663          	bne	a7,a4,80004454 <__subdf3+0x78>
8000444c:	00c5e733          	or	a4,a1,a2
80004450:	00071463          	bnez	a4,80004458 <__subdf3+0x7c>
80004454:	0016c693          	xori	a3,a3,1
80004458:	411a0833          	sub	a6,s4,a7
8000445c:	7ff00313          	li	t1,2047
80004460:	33369663          	bne	a3,s3,8000478c <__subdf3+0x3b0>
80004464:	17005e63          	blez	a6,800045e0 <__subdf3+0x204>
80004468:	0a089863          	bnez	a7,80004518 <__subdf3+0x13c>
8000446c:	00c5e733          	or	a4,a1,a2
80004470:	02070663          	beqz	a4,8000449c <__subdf3+0xc0>
80004474:	fffa0813          	addi	a6,s4,-1
80004478:	02081063          	bnez	a6,80004498 <__subdf3+0xbc>
8000447c:	00c50633          	add	a2,a0,a2
80004480:	00a63733          	sltu	a4,a2,a0
80004484:	00b786b3          	add	a3,a5,a1
80004488:	00060513          	mv	a0,a2
8000448c:	00e687b3          	add	a5,a3,a4
80004490:	00100a13          	li	s4,1
80004494:	0d40006f          	j	80004568 <__subdf3+0x18c>
80004498:	086a1663          	bne	s4,t1,80004524 <__subdf3+0x148>
8000449c:	01d79693          	slli	a3,a5,0x1d
800044a0:	00355513          	srli	a0,a0,0x3
800044a4:	7ff00713          	li	a4,2047
800044a8:	00a6e6b3          	or	a3,a3,a0
800044ac:	0037d793          	srli	a5,a5,0x3
800044b0:	00ea1e63          	bne	s4,a4,800044cc <__subdf3+0xf0>
800044b4:	00f6e6b3          	or	a3,a3,a5
800044b8:	00000793          	li	a5,0
800044bc:	00068863          	beqz	a3,800044cc <__subdf3+0xf0>
800044c0:	000807b7          	lui	a5,0x80
800044c4:	00000693          	li	a3,0
800044c8:	00000993          	li	s3,0
800044cc:	014a1713          	slli	a4,s4,0x14
800044d0:	7ff00637          	lui	a2,0x7ff00
800044d4:	00c79793          	slli	a5,a5,0xc
800044d8:	00c77733          	and	a4,a4,a2
800044dc:	01c12083          	lw	ra,28(sp)
800044e0:	01812403          	lw	s0,24(sp)
800044e4:	00c7d793          	srli	a5,a5,0xc
800044e8:	00f767b3          	or	a5,a4,a5
800044ec:	01f99713          	slli	a4,s3,0x1f
800044f0:	00e7e633          	or	a2,a5,a4
800044f4:	01412483          	lw	s1,20(sp)
800044f8:	01012903          	lw	s2,16(sp)
800044fc:	00c12983          	lw	s3,12(sp)
80004500:	00812a03          	lw	s4,8(sp)
80004504:	00412a83          	lw	s5,4(sp)
80004508:	00068513          	mv	a0,a3
8000450c:	00060593          	mv	a1,a2
80004510:	02010113          	addi	sp,sp,32
80004514:	00008067          	ret
80004518:	f86a02e3          	beq	s4,t1,8000449c <__subdf3+0xc0>
8000451c:	00800737          	lui	a4,0x800
80004520:	00e5e5b3          	or	a1,a1,a4
80004524:	03800713          	li	a4,56
80004528:	0b074663          	blt	a4,a6,800045d4 <__subdf3+0x1f8>
8000452c:	01f00713          	li	a4,31
80004530:	02000893          	li	a7,32
80004534:	07074863          	blt	a4,a6,800045a4 <__subdf3+0x1c8>
80004538:	410888b3          	sub	a7,a7,a6
8000453c:	01159733          	sll	a4,a1,a7
80004540:	010656b3          	srl	a3,a2,a6
80004544:	011618b3          	sll	a7,a2,a7
80004548:	00d76733          	or	a4,a4,a3
8000454c:	011038b3          	snez	a7,a7
80004550:	01176733          	or	a4,a4,a7
80004554:	0105d833          	srl	a6,a1,a6
80004558:	00a70533          	add	a0,a4,a0
8000455c:	00f80833          	add	a6,a6,a5
80004560:	00e53733          	sltu	a4,a0,a4
80004564:	00e807b3          	add	a5,a6,a4
80004568:	00879713          	slli	a4,a5,0x8
8000456c:	1c075c63          	bgez	a4,80004744 <__subdf3+0x368>
80004570:	001a0a13          	addi	s4,s4,1
80004574:	7ff00713          	li	a4,2047
80004578:	5cea0263          	beq	s4,a4,80004b3c <__subdf3+0x760>
8000457c:	ff800737          	lui	a4,0xff800
80004580:	fff70713          	addi	a4,a4,-1 # ff7fffff <__stack_top+0x7f7e9c2f>
80004584:	00e7f7b3          	and	a5,a5,a4
80004588:	00155713          	srli	a4,a0,0x1
8000458c:	00157513          	andi	a0,a0,1
80004590:	00a76733          	or	a4,a4,a0
80004594:	01f79513          	slli	a0,a5,0x1f
80004598:	00e56533          	or	a0,a0,a4
8000459c:	0017d793          	srli	a5,a5,0x1
800045a0:	1a40006f          	j	80004744 <__subdf3+0x368>
800045a4:	fe080713          	addi	a4,a6,-32
800045a8:	00e5d733          	srl	a4,a1,a4
800045ac:	00000693          	li	a3,0
800045b0:	01180863          	beq	a6,a7,800045c0 <__subdf3+0x1e4>
800045b4:	04000693          	li	a3,64
800045b8:	410686b3          	sub	a3,a3,a6
800045bc:	00d596b3          	sll	a3,a1,a3
800045c0:	00c6e6b3          	or	a3,a3,a2
800045c4:	00d036b3          	snez	a3,a3
800045c8:	00d76733          	or	a4,a4,a3
800045cc:	00000813          	li	a6,0
800045d0:	f89ff06f          	j	80004558 <__subdf3+0x17c>
800045d4:	00c5e733          	or	a4,a1,a2
800045d8:	00e03733          	snez	a4,a4
800045dc:	ff1ff06f          	j	800045cc <__subdf3+0x1f0>
800045e0:	0c080663          	beqz	a6,800046ac <__subdf3+0x2d0>
800045e4:	41488733          	sub	a4,a7,s4
800045e8:	020a1463          	bnez	s4,80004610 <__subdf3+0x234>
800045ec:	00a7e6b3          	or	a3,a5,a0
800045f0:	00068863          	beqz	a3,80004600 <__subdf3+0x224>
800045f4:	fff70693          	addi	a3,a4,-1
800045f8:	e80682e3          	beqz	a3,8000447c <__subdf3+0xa0>
800045fc:	02671263          	bne	a4,t1,80004620 <__subdf3+0x244>
80004600:	00058793          	mv	a5,a1
80004604:	00060513          	mv	a0,a2
80004608:	00070a13          	mv	s4,a4
8000460c:	e91ff06f          	j	8000449c <__subdf3+0xc0>
80004610:	52688c63          	beq	a7,t1,80004b48 <__subdf3+0x76c>
80004614:	008006b7          	lui	a3,0x800
80004618:	00d7e7b3          	or	a5,a5,a3
8000461c:	00070693          	mv	a3,a4
80004620:	03800713          	li	a4,56
80004624:	06d74e63          	blt	a4,a3,800046a0 <__subdf3+0x2c4>
80004628:	01f00713          	li	a4,31
8000462c:	02000313          	li	t1,32
80004630:	04d74063          	blt	a4,a3,80004670 <__subdf3+0x294>
80004634:	40d30333          	sub	t1,t1,a3
80004638:	00679733          	sll	a4,a5,t1
8000463c:	00d55833          	srl	a6,a0,a3
80004640:	00651333          	sll	t1,a0,t1
80004644:	01076733          	or	a4,a4,a6
80004648:	00603333          	snez	t1,t1
8000464c:	00676733          	or	a4,a4,t1
80004650:	00d7d6b3          	srl	a3,a5,a3
80004654:	00c70633          	add	a2,a4,a2
80004658:	00b686b3          	add	a3,a3,a1
8000465c:	00e63733          	sltu	a4,a2,a4
80004660:	00060513          	mv	a0,a2
80004664:	00e687b3          	add	a5,a3,a4
80004668:	00088a13          	mv	s4,a7
8000466c:	efdff06f          	j	80004568 <__subdf3+0x18c>
80004670:	fe068713          	addi	a4,a3,-32 # 7fffe0 <__heap_size+0x7f2fe0>
80004674:	00e7d733          	srl	a4,a5,a4
80004678:	00000813          	li	a6,0
8000467c:	00668863          	beq	a3,t1,8000468c <__subdf3+0x2b0>
80004680:	04000813          	li	a6,64
80004684:	40d80833          	sub	a6,a6,a3
80004688:	01079833          	sll	a6,a5,a6
8000468c:	00a86833          	or	a6,a6,a0
80004690:	01003833          	snez	a6,a6
80004694:	01076733          	or	a4,a4,a6
80004698:	00000693          	li	a3,0
8000469c:	fb9ff06f          	j	80004654 <__subdf3+0x278>
800046a0:	00a7e733          	or	a4,a5,a0
800046a4:	00e03733          	snez	a4,a4
800046a8:	ff1ff06f          	j	80004698 <__subdf3+0x2bc>
800046ac:	001a0713          	addi	a4,s4,1
800046b0:	7fe77693          	andi	a3,a4,2046
800046b4:	06069463          	bnez	a3,8000471c <__subdf3+0x340>
800046b8:	00a7e733          	or	a4,a5,a0
800046bc:	040a1063          	bnez	s4,800046fc <__subdf3+0x320>
800046c0:	2c070063          	beqz	a4,80004980 <__subdf3+0x5a4>
800046c4:	00c5e733          	or	a4,a1,a2
800046c8:	44070a63          	beqz	a4,80004b1c <__subdf3+0x740>
800046cc:	00c50633          	add	a2,a0,a2
800046d0:	00b786b3          	add	a3,a5,a1
800046d4:	00a63533          	sltu	a0,a2,a0
800046d8:	00a685b3          	add	a1,a3,a0
800046dc:	00859793          	slli	a5,a1,0x8
800046e0:	2a07d063          	bgez	a5,80004980 <__subdf3+0x5a4>
800046e4:	ff8007b7          	lui	a5,0xff800
800046e8:	fff78793          	addi	a5,a5,-1 # ff7fffff <__stack_top+0x7f7e9c2f>
800046ec:	00f5f7b3          	and	a5,a1,a5
800046f0:	00060513          	mv	a0,a2
800046f4:	00100a13          	li	s4,1
800046f8:	da5ff06f          	j	8000449c <__subdf3+0xc0>
800046fc:	42070663          	beqz	a4,80004b28 <__subdf3+0x74c>
80004700:	00c5e633          	or	a2,a1,a2
80004704:	00030a13          	mv	s4,t1
80004708:	d8060ae3          	beqz	a2,8000449c <__subdf3+0xc0>
8000470c:	00000993          	li	s3,0
80004710:	004007b7          	lui	a5,0x400
80004714:	00000513          	li	a0,0
80004718:	d85ff06f          	j	8000449c <__subdf3+0xc0>
8000471c:	40670e63          	beq	a4,t1,80004b38 <__subdf3+0x75c>
80004720:	00c50633          	add	a2,a0,a2
80004724:	00a63533          	sltu	a0,a2,a0
80004728:	00b786b3          	add	a3,a5,a1
8000472c:	00a686b3          	add	a3,a3,a0
80004730:	01f69513          	slli	a0,a3,0x1f
80004734:	00165613          	srli	a2,a2,0x1
80004738:	00c56533          	or	a0,a0,a2
8000473c:	0016d793          	srli	a5,a3,0x1
80004740:	00070a13          	mv	s4,a4
80004744:	00757713          	andi	a4,a0,7
80004748:	02070063          	beqz	a4,80004768 <__subdf3+0x38c>
8000474c:	00f57713          	andi	a4,a0,15
80004750:	00400693          	li	a3,4
80004754:	00d70a63          	beq	a4,a3,80004768 <__subdf3+0x38c>
80004758:	00d50733          	add	a4,a0,a3
8000475c:	00a736b3          	sltu	a3,a4,a0
80004760:	00d787b3          	add	a5,a5,a3
80004764:	00070513          	mv	a0,a4
80004768:	00879713          	slli	a4,a5,0x8
8000476c:	d20758e3          	bgez	a4,8000449c <__subdf3+0xc0>
80004770:	001a0a13          	addi	s4,s4,1
80004774:	7ff00713          	li	a4,2047
80004778:	3cea0263          	beq	s4,a4,80004b3c <__subdf3+0x760>
8000477c:	ff800737          	lui	a4,0xff800
80004780:	fff70713          	addi	a4,a4,-1 # ff7fffff <__stack_top+0x7f7e9c2f>
80004784:	00e7f7b3          	and	a5,a5,a4
80004788:	d15ff06f          	j	8000449c <__subdf3+0xc0>
8000478c:	0f005463          	blez	a6,80004874 <__subdf3+0x498>
80004790:	08089c63          	bnez	a7,80004828 <__subdf3+0x44c>
80004794:	00c5e733          	or	a4,a1,a2
80004798:	d00702e3          	beqz	a4,8000449c <__subdf3+0xc0>
8000479c:	fffa0813          	addi	a6,s4,-1
800047a0:	02081063          	bnez	a6,800047c0 <__subdf3+0x3e4>
800047a4:	40c50633          	sub	a2,a0,a2
800047a8:	00c53733          	sltu	a4,a0,a2
800047ac:	40b786b3          	sub	a3,a5,a1
800047b0:	00060513          	mv	a0,a2
800047b4:	40e687b3          	sub	a5,a3,a4
800047b8:	00100a13          	li	s4,1
800047bc:	0500006f          	j	8000480c <__subdf3+0x430>
800047c0:	cc6a0ee3          	beq	s4,t1,8000449c <__subdf3+0xc0>
800047c4:	03800713          	li	a4,56
800047c8:	0b074063          	blt	a4,a6,80004868 <__subdf3+0x48c>
800047cc:	01f00713          	li	a4,31
800047d0:	02000893          	li	a7,32
800047d4:	07074263          	blt	a4,a6,80004838 <__subdf3+0x45c>
800047d8:	410888b3          	sub	a7,a7,a6
800047dc:	01159733          	sll	a4,a1,a7
800047e0:	010656b3          	srl	a3,a2,a6
800047e4:	011618b3          	sll	a7,a2,a7
800047e8:	00d76733          	or	a4,a4,a3
800047ec:	011038b3          	snez	a7,a7
800047f0:	01176733          	or	a4,a4,a7
800047f4:	0105d833          	srl	a6,a1,a6
800047f8:	40e50733          	sub	a4,a0,a4
800047fc:	00e536b3          	sltu	a3,a0,a4
80004800:	41078833          	sub	a6,a5,a6
80004804:	00070513          	mv	a0,a4
80004808:	40d807b3          	sub	a5,a6,a3
8000480c:	00879713          	slli	a4,a5,0x8
80004810:	f2075ae3          	bgez	a4,80004744 <__subdf3+0x368>
80004814:	00800937          	lui	s2,0x800
80004818:	fff90913          	addi	s2,s2,-1 # 7fffff <__heap_size+0x7f2fff>
8000481c:	0127f933          	and	s2,a5,s2
80004820:	00050a93          	mv	s5,a0
80004824:	2140006f          	j	80004a38 <__subdf3+0x65c>
80004828:	c66a0ae3          	beq	s4,t1,8000449c <__subdf3+0xc0>
8000482c:	00800737          	lui	a4,0x800
80004830:	00e5e5b3          	or	a1,a1,a4
80004834:	f91ff06f          	j	800047c4 <__subdf3+0x3e8>
80004838:	fe080713          	addi	a4,a6,-32
8000483c:	00e5d733          	srl	a4,a1,a4
80004840:	00000693          	li	a3,0
80004844:	01180863          	beq	a6,a7,80004854 <__subdf3+0x478>
80004848:	04000693          	li	a3,64
8000484c:	410686b3          	sub	a3,a3,a6
80004850:	00d596b3          	sll	a3,a1,a3
80004854:	00c6e6b3          	or	a3,a3,a2
80004858:	00d036b3          	snez	a3,a3
8000485c:	00d76733          	or	a4,a4,a3
80004860:	00000813          	li	a6,0
80004864:	f95ff06f          	j	800047f8 <__subdf3+0x41c>
80004868:	00c5e733          	or	a4,a1,a2
8000486c:	00e03733          	snez	a4,a4
80004870:	ff1ff06f          	j	80004860 <__subdf3+0x484>
80004874:	0e080463          	beqz	a6,8000495c <__subdf3+0x580>
80004878:	41488833          	sub	a6,a7,s4
8000487c:	040a1263          	bnez	s4,800048c0 <__subdf3+0x4e4>
80004880:	00a7e733          	or	a4,a5,a0
80004884:	02070463          	beqz	a4,800048ac <__subdf3+0x4d0>
80004888:	fff80713          	addi	a4,a6,-1
8000488c:	00071e63          	bnez	a4,800048a8 <__subdf3+0x4cc>
80004890:	40a60533          	sub	a0,a2,a0
80004894:	40f585b3          	sub	a1,a1,a5
80004898:	00a63633          	sltu	a2,a2,a0
8000489c:	40c587b3          	sub	a5,a1,a2
800048a0:	00068993          	mv	s3,a3
800048a4:	f15ff06f          	j	800047b8 <__subdf3+0x3dc>
800048a8:	02681463          	bne	a6,t1,800048d0 <__subdf3+0x4f4>
800048ac:	00068993          	mv	s3,a3
800048b0:	00058793          	mv	a5,a1
800048b4:	00060513          	mv	a0,a2
800048b8:	00080a13          	mv	s4,a6
800048bc:	be1ff06f          	j	8000449c <__subdf3+0xc0>
800048c0:	28688263          	beq	a7,t1,80004b44 <__subdf3+0x768>
800048c4:	00800737          	lui	a4,0x800
800048c8:	00e7e7b3          	or	a5,a5,a4
800048cc:	00080713          	mv	a4,a6
800048d0:	03800813          	li	a6,56
800048d4:	06e84e63          	blt	a6,a4,80004950 <__subdf3+0x574>
800048d8:	01f00813          	li	a6,31
800048dc:	02000e13          	li	t3,32
800048e0:	04e84063          	blt	a6,a4,80004920 <__subdf3+0x544>
800048e4:	40ee0e33          	sub	t3,t3,a4
800048e8:	00e55333          	srl	t1,a0,a4
800048ec:	01c79833          	sll	a6,a5,t3
800048f0:	01c51e33          	sll	t3,a0,t3
800048f4:	00686833          	or	a6,a6,t1
800048f8:	01c03e33          	snez	t3,t3
800048fc:	01c86533          	or	a0,a6,t3
80004900:	00e7d733          	srl	a4,a5,a4
80004904:	40a60533          	sub	a0,a2,a0
80004908:	40e58733          	sub	a4,a1,a4
8000490c:	00a63633          	sltu	a2,a2,a0
80004910:	40c707b3          	sub	a5,a4,a2
80004914:	00088a13          	mv	s4,a7
80004918:	00068993          	mv	s3,a3
8000491c:	ef1ff06f          	j	8000480c <__subdf3+0x430>
80004920:	fe070813          	addi	a6,a4,-32 # 7fffe0 <__heap_size+0x7f2fe0>
80004924:	0107d833          	srl	a6,a5,a6
80004928:	00000313          	li	t1,0
8000492c:	01c70863          	beq	a4,t3,8000493c <__subdf3+0x560>
80004930:	04000313          	li	t1,64
80004934:	40e30333          	sub	t1,t1,a4
80004938:	00679333          	sll	t1,a5,t1
8000493c:	00a36333          	or	t1,t1,a0
80004940:	00603333          	snez	t1,t1
80004944:	00686533          	or	a0,a6,t1
80004948:	00000713          	li	a4,0
8000494c:	fb9ff06f          	j	80004904 <__subdf3+0x528>
80004950:	00a7e533          	or	a0,a5,a0
80004954:	00a03533          	snez	a0,a0
80004958:	ff1ff06f          	j	80004948 <__subdf3+0x56c>
8000495c:	001a0713          	addi	a4,s4,1
80004960:	7fe77713          	andi	a4,a4,2046
80004964:	0a071263          	bnez	a4,80004a08 <__subdf3+0x62c>
80004968:	00c5e733          	or	a4,a1,a2
8000496c:	00a7e833          	or	a6,a5,a0
80004970:	060a1863          	bnez	s4,800049e0 <__subdf3+0x604>
80004974:	02081263          	bnez	a6,80004998 <__subdf3+0x5bc>
80004978:	1e070063          	beqz	a4,80004b58 <__subdf3+0x77c>
8000497c:	00068993          	mv	s3,a3
80004980:	00b66533          	or	a0,a2,a1
80004984:	12050263          	beqz	a0,80004aa8 <__subdf3+0x6cc>
80004988:	00058793          	mv	a5,a1
8000498c:	00060513          	mv	a0,a2
80004990:	00000a13          	li	s4,0
80004994:	db1ff06f          	j	80004744 <__subdf3+0x368>
80004998:	18070263          	beqz	a4,80004b1c <__subdf3+0x740>
8000499c:	40c50833          	sub	a6,a0,a2
800049a0:	010538b3          	sltu	a7,a0,a6
800049a4:	40b78733          	sub	a4,a5,a1
800049a8:	41170733          	sub	a4,a4,a7
800049ac:	00871893          	slli	a7,a4,0x8
800049b0:	0008de63          	bgez	a7,800049cc <__subdf3+0x5f0>
800049b4:	40a60533          	sub	a0,a2,a0
800049b8:	00a63733          	sltu	a4,a2,a0
800049bc:	40f585b3          	sub	a1,a1,a5
800049c0:	00050613          	mv	a2,a0
800049c4:	40e585b3          	sub	a1,a1,a4
800049c8:	fb5ff06f          	j	8000497c <__subdf3+0x5a0>
800049cc:	00e86533          	or	a0,a6,a4
800049d0:	18050863          	beqz	a0,80004b60 <__subdf3+0x784>
800049d4:	00070593          	mv	a1,a4
800049d8:	00080613          	mv	a2,a6
800049dc:	fa5ff06f          	j	80004980 <__subdf3+0x5a4>
800049e0:	00081e63          	bnez	a6,800049fc <__subdf3+0x620>
800049e4:	00068993          	mv	s3,a3
800049e8:	14071063          	bnez	a4,80004b28 <__subdf3+0x74c>
800049ec:	00000993          	li	s3,0
800049f0:	004007b7          	lui	a5,0x400
800049f4:	00000513          	li	a0,0
800049f8:	1380006f          	j	80004b30 <__subdf3+0x754>
800049fc:	00030a13          	mv	s4,t1
80004a00:	a8070ee3          	beqz	a4,8000449c <__subdf3+0xc0>
80004a04:	d09ff06f          	j	8000470c <__subdf3+0x330>
80004a08:	40c50733          	sub	a4,a0,a2
80004a0c:	00e53833          	sltu	a6,a0,a4
80004a10:	40b78933          	sub	s2,a5,a1
80004a14:	41090933          	sub	s2,s2,a6
80004a18:	00891813          	slli	a6,s2,0x8
80004a1c:	00070a93          	mv	s5,a4
80004a20:	06085e63          	bgez	a6,80004a9c <__subdf3+0x6c0>
80004a24:	40a60ab3          	sub	s5,a2,a0
80004a28:	40f58933          	sub	s2,a1,a5
80004a2c:	01563633          	sltu	a2,a2,s5
80004a30:	40c90933          	sub	s2,s2,a2
80004a34:	00068993          	mv	s3,a3
80004a38:	06090e63          	beqz	s2,80004ab4 <__subdf3+0x6d8>
80004a3c:	00090513          	mv	a0,s2
80004a40:	3e5000ef          	jal	80005624 <__clzsi2>
80004a44:	ff850613          	addi	a2,a0,-8 # fff8 <__heap_size+0x2ff8>
80004a48:	02000693          	li	a3,32
80004a4c:	40c686b3          	sub	a3,a3,a2
80004a50:	00c91933          	sll	s2,s2,a2
80004a54:	00dad6b3          	srl	a3,s5,a3
80004a58:	0126e6b3          	or	a3,a3,s2
80004a5c:	00ca9933          	sll	s2,s5,a2
80004a60:	0b464263          	blt	a2,s4,80004b04 <__subdf3+0x728>
80004a64:	41460633          	sub	a2,a2,s4
80004a68:	00160593          	addi	a1,a2,1 # 7ff00001 <__heap_size+0x7fef3001>
80004a6c:	01f00793          	li	a5,31
80004a70:	02000713          	li	a4,32
80004a74:	06b7c063          	blt	a5,a1,80004ad4 <__subdf3+0x6f8>
80004a78:	40b70733          	sub	a4,a4,a1
80004a7c:	00e69633          	sll	a2,a3,a4
80004a80:	00b957b3          	srl	a5,s2,a1
80004a84:	00e91733          	sll	a4,s2,a4
80004a88:	00f66633          	or	a2,a2,a5
80004a8c:	00e03733          	snez	a4,a4
80004a90:	00e66633          	or	a2,a2,a4
80004a94:	00b6d5b3          	srl	a1,a3,a1
80004a98:	ee9ff06f          	j	80004980 <__subdf3+0x5a4>
80004a9c:	01276533          	or	a0,a4,s2
80004aa0:	f8051ce3          	bnez	a0,80004a38 <__subdf3+0x65c>
80004aa4:	00000993          	li	s3,0
80004aa8:	00000793          	li	a5,0
80004aac:	00000a13          	li	s4,0
80004ab0:	9edff06f          	j	8000449c <__subdf3+0xc0>
80004ab4:	000a8513          	mv	a0,s5
80004ab8:	36d000ef          	jal	80005624 <__clzsi2>
80004abc:	01850613          	addi	a2,a0,24
80004ac0:	01f00793          	li	a5,31
80004ac4:	f8c7d2e3          	bge	a5,a2,80004a48 <__subdf3+0x66c>
80004ac8:	ff850693          	addi	a3,a0,-8
80004acc:	00da96b3          	sll	a3,s5,a3
80004ad0:	f91ff06f          	j	80004a60 <__subdf3+0x684>
80004ad4:	fe160613          	addi	a2,a2,-31
80004ad8:	00c6d633          	srl	a2,a3,a2
80004adc:	00000793          	li	a5,0
80004ae0:	00e58863          	beq	a1,a4,80004af0 <__subdf3+0x714>
80004ae4:	04000793          	li	a5,64
80004ae8:	40b787b3          	sub	a5,a5,a1
80004aec:	00f697b3          	sll	a5,a3,a5
80004af0:	00f967b3          	or	a5,s2,a5
80004af4:	00f037b3          	snez	a5,a5
80004af8:	00f66633          	or	a2,a2,a5
80004afc:	00000593          	li	a1,0
80004b00:	e81ff06f          	j	80004980 <__subdf3+0x5a4>
80004b04:	ff8007b7          	lui	a5,0xff800
80004b08:	fff78793          	addi	a5,a5,-1 # ff7fffff <__stack_top+0x7f7e9c2f>
80004b0c:	40ca0a33          	sub	s4,s4,a2
80004b10:	00f6f7b3          	and	a5,a3,a5
80004b14:	00090513          	mv	a0,s2
80004b18:	c2dff06f          	j	80004744 <__subdf3+0x368>
80004b1c:	00078593          	mv	a1,a5
80004b20:	00050613          	mv	a2,a0
80004b24:	e5dff06f          	j	80004980 <__subdf3+0x5a4>
80004b28:	00058793          	mv	a5,a1
80004b2c:	00060513          	mv	a0,a2
80004b30:	00030a13          	mv	s4,t1
80004b34:	969ff06f          	j	8000449c <__subdf3+0xc0>
80004b38:	00070a13          	mv	s4,a4
80004b3c:	00000793          	li	a5,0
80004b40:	bd5ff06f          	j	80004714 <__subdf3+0x338>
80004b44:	00068993          	mv	s3,a3
80004b48:	00058793          	mv	a5,a1
80004b4c:	00060513          	mv	a0,a2
80004b50:	00088a13          	mv	s4,a7
80004b54:	949ff06f          	j	8000449c <__subdf3+0xc0>
80004b58:	00000993          	li	s3,0
80004b5c:	fe1ff06f          	j	80004b3c <__subdf3+0x760>
80004b60:	00000993          	li	s3,0
80004b64:	00000793          	li	a5,0
80004b68:	935ff06f          	j	8000449c <__subdf3+0xc0>

80004b6c <__fixunsdfsi>:
80004b6c:	0145d713          	srli	a4,a1,0x14
80004b70:	00100837          	lui	a6,0x100
80004b74:	fff80793          	addi	a5,a6,-1 # fffff <__heap_size+0xf2fff>
80004b78:	7ff77713          	andi	a4,a4,2047
80004b7c:	3fe00613          	li	a2,1022
80004b80:	00b7f7b3          	and	a5,a5,a1
80004b84:	00050693          	mv	a3,a0
80004b88:	01f5d593          	srli	a1,a1,0x1f
80004b8c:	04e65a63          	bge	a2,a4,80004be0 <__fixunsdfsi+0x74>
80004b90:	41f00613          	li	a2,1055
80004b94:	40b60633          	sub	a2,a2,a1
80004b98:	fff58513          	addi	a0,a1,-1
80004b9c:	04c75463          	bge	a4,a2,80004be4 <__fixunsdfsi+0x78>
80004ba0:	00000513          	li	a0,0
80004ba4:	04059063          	bnez	a1,80004be4 <__fixunsdfsi+0x78>
80004ba8:	43300613          	li	a2,1075
80004bac:	40e60633          	sub	a2,a2,a4
80004bb0:	01f00593          	li	a1,31
80004bb4:	0107e7b3          	or	a5,a5,a6
80004bb8:	00c5cc63          	blt	a1,a2,80004bd0 <__fixunsdfsi+0x64>
80004bbc:	bed70713          	addi	a4,a4,-1043
80004bc0:	00e797b3          	sll	a5,a5,a4
80004bc4:	00c6d533          	srl	a0,a3,a2
80004bc8:	00a7e533          	or	a0,a5,a0
80004bcc:	00008067          	ret
80004bd0:	41300693          	li	a3,1043
80004bd4:	40e68733          	sub	a4,a3,a4
80004bd8:	00e7d533          	srl	a0,a5,a4
80004bdc:	00008067          	ret
80004be0:	00000513          	li	a0,0
80004be4:	00008067          	ret

80004be8 <__floatunsidf>:
80004be8:	ff010113          	addi	sp,sp,-16
80004bec:	01212023          	sw	s2,0(sp)
80004bf0:	00112623          	sw	ra,12(sp)
80004bf4:	00812423          	sw	s0,8(sp)
80004bf8:	00912223          	sw	s1,4(sp)
80004bfc:	00050913          	mv	s2,a0
80004c00:	06050663          	beqz	a0,80004c6c <__floatunsidf+0x84>
80004c04:	221000ef          	jal	80005624 <__clzsi2>
80004c08:	41e00713          	li	a4,1054
80004c0c:	00a00793          	li	a5,10
80004c10:	40a70733          	sub	a4,a4,a0
80004c14:	04a7c463          	blt	a5,a0,80004c5c <__floatunsidf+0x74>
80004c18:	00b00793          	li	a5,11
80004c1c:	40a787b3          	sub	a5,a5,a0
80004c20:	01550513          	addi	a0,a0,21
80004c24:	00f957b3          	srl	a5,s2,a5
80004c28:	00a91933          	sll	s2,s2,a0
80004c2c:	00c12083          	lw	ra,12(sp)
80004c30:	00812403          	lw	s0,8(sp)
80004c34:	00c79793          	slli	a5,a5,0xc
80004c38:	01471713          	slli	a4,a4,0x14
80004c3c:	00c7d793          	srli	a5,a5,0xc
80004c40:	00f766b3          	or	a3,a4,a5
80004c44:	00412483          	lw	s1,4(sp)
80004c48:	00090513          	mv	a0,s2
80004c4c:	00068593          	mv	a1,a3
80004c50:	00012903          	lw	s2,0(sp)
80004c54:	01010113          	addi	sp,sp,16
80004c58:	00008067          	ret
80004c5c:	ff550513          	addi	a0,a0,-11
80004c60:	00a917b3          	sll	a5,s2,a0
80004c64:	00000913          	li	s2,0
80004c68:	fc5ff06f          	j	80004c2c <__floatunsidf+0x44>
80004c6c:	00000793          	li	a5,0
80004c70:	00000713          	li	a4,0
80004c74:	fb9ff06f          	j	80004c2c <__floatunsidf+0x44>

80004c78 <__fixunsdfdi>:
80004c78:	001006b7          	lui	a3,0x100
80004c7c:	0145d613          	srli	a2,a1,0x14
80004c80:	fff68793          	addi	a5,a3,-1 # fffff <__heap_size+0xf2fff>
80004c84:	7ff67613          	andi	a2,a2,2047
80004c88:	3fe00713          	li	a4,1022
80004c8c:	00b7f7b3          	and	a5,a5,a1
80004c90:	08c75463          	bge	a4,a2,80004d18 <__fixunsdfdi+0xa0>
80004c94:	01f5d593          	srli	a1,a1,0x1f
80004c98:	43f00713          	li	a4,1087
80004c9c:	40b70733          	sub	a4,a4,a1
80004ca0:	02e65863          	bge	a2,a4,80004cd0 <__fixunsdfdi+0x58>
80004ca4:	06059a63          	bnez	a1,80004d18 <__fixunsdfdi+0xa0>
80004ca8:	00d7e5b3          	or	a1,a5,a3
80004cac:	43200793          	li	a5,1074
80004cb0:	02c7d663          	bge	a5,a2,80004cdc <__fixunsdfdi+0x64>
80004cb4:	ff010113          	addi	sp,sp,-16
80004cb8:	bcd60613          	addi	a2,a2,-1075
80004cbc:	00112623          	sw	ra,12(sp)
80004cc0:	12d000ef          	jal	800055ec <__ashldi3>
80004cc4:	00c12083          	lw	ra,12(sp)
80004cc8:	01010113          	addi	sp,sp,16
80004ccc:	00008067          	ret
80004cd0:	fff58513          	addi	a0,a1,-1
80004cd4:	00050593          	mv	a1,a0
80004cd8:	00008067          	ret
80004cdc:	43300793          	li	a5,1075
80004ce0:	40c787b3          	sub	a5,a5,a2
80004ce4:	01f00713          	li	a4,31
80004ce8:	00f74e63          	blt	a4,a5,80004d04 <__fixunsdfdi+0x8c>
80004cec:	bed60613          	addi	a2,a2,-1043
80004cf0:	00c59633          	sll	a2,a1,a2
80004cf4:	00f55533          	srl	a0,a0,a5
80004cf8:	00a66533          	or	a0,a2,a0
80004cfc:	00f5d5b3          	srl	a1,a1,a5
80004d00:	00008067          	ret
80004d04:	41300513          	li	a0,1043
80004d08:	40c50533          	sub	a0,a0,a2
80004d0c:	00a5d533          	srl	a0,a1,a0
80004d10:	00000593          	li	a1,0
80004d14:	00008067          	ret
80004d18:	00000513          	li	a0,0
80004d1c:	ff5ff06f          	j	80004d10 <__fixunsdfdi+0x98>

80004d20 <__addsf3>:
80004d20:	ff010113          	addi	sp,sp,-16
80004d24:	00800737          	lui	a4,0x800
80004d28:	fff70713          	addi	a4,a4,-1 # 7fffff <__heap_size+0x7f2fff>
80004d2c:	0175d613          	srli	a2,a1,0x17
80004d30:	00812423          	sw	s0,8(sp)
80004d34:	01755413          	srli	s0,a0,0x17
80004d38:	00a777b3          	and	a5,a4,a0
80004d3c:	00912223          	sw	s1,4(sp)
80004d40:	00b77733          	and	a4,a4,a1
80004d44:	0ff47413          	zext.b	s0,s0
80004d48:	0ff67613          	zext.b	a2,a2
80004d4c:	00112623          	sw	ra,12(sp)
80004d50:	01212023          	sw	s2,0(sp)
80004d54:	01f55493          	srli	s1,a0,0x1f
80004d58:	01f5d593          	srli	a1,a1,0x1f
80004d5c:	00379793          	slli	a5,a5,0x3
80004d60:	00371713          	slli	a4,a4,0x3
80004d64:	40c406b3          	sub	a3,s0,a2
80004d68:	1cb49e63          	bne	s1,a1,80004f44 <__addsf3+0x224>
80004d6c:	08d05e63          	blez	a3,80004e08 <__addsf3+0xe8>
80004d70:	0ff00593          	li	a1,255
80004d74:	02061663          	bnez	a2,80004da0 <__addsf3+0x80>
80004d78:	00070e63          	beqz	a4,80004d94 <__addsf3+0x74>
80004d7c:	fff68613          	addi	a2,a3,-1
80004d80:	00061863          	bnez	a2,80004d90 <__addsf3+0x70>
80004d84:	00e787b3          	add	a5,a5,a4
80004d88:	00100413          	li	s0,1
80004d8c:	04c0006f          	j	80004dd8 <__addsf3+0xb8>
80004d90:	02b69063          	bne	a3,a1,80004db0 <__addsf3+0x90>
80004d94:	00068413          	mv	s0,a3
80004d98:	00078713          	mv	a4,a5
80004d9c:	2c40006f          	j	80005060 <__addsf3+0x340>
80004da0:	feb40ce3          	beq	s0,a1,80004d98 <__addsf3+0x78>
80004da4:	04000637          	lui	a2,0x4000
80004da8:	00c76733          	or	a4,a4,a2
80004dac:	00068613          	mv	a2,a3
80004db0:	01b00593          	li	a1,27
80004db4:	00100693          	li	a3,1
80004db8:	00c5ce63          	blt	a1,a2,80004dd4 <__addsf3+0xb4>
80004dbc:	02000693          	li	a3,32
80004dc0:	40c686b3          	sub	a3,a3,a2
80004dc4:	00c755b3          	srl	a1,a4,a2
80004dc8:	00d71733          	sll	a4,a4,a3
80004dcc:	00e03733          	snez	a4,a4
80004dd0:	00e5e6b3          	or	a3,a1,a4
80004dd4:	00d787b3          	add	a5,a5,a3
80004dd8:	00579713          	slli	a4,a5,0x5
80004ddc:	12075463          	bgez	a4,80004f04 <__addsf3+0x1e4>
80004de0:	00140413          	addi	s0,s0,1 # 80001 <__heap_size+0x73001>
80004de4:	0ff00713          	li	a4,255
80004de8:	36e40063          	beq	s0,a4,80005148 <__addsf3+0x428>
80004dec:	7e000737          	lui	a4,0x7e000
80004df0:	0017f693          	andi	a3,a5,1
80004df4:	fff70713          	addi	a4,a4,-1 # 7dffffff <__heap_size+0x7dff2fff>
80004df8:	0017d793          	srli	a5,a5,0x1
80004dfc:	00e7f7b3          	and	a5,a5,a4
80004e00:	00d7e7b3          	or	a5,a5,a3
80004e04:	1000006f          	j	80004f04 <__addsf3+0x1e4>
80004e08:	06068463          	beqz	a3,80004e70 <__addsf3+0x150>
80004e0c:	408606b3          	sub	a3,a2,s0
80004e10:	0ff00513          	li	a0,255
80004e14:	00041e63          	bnez	s0,80004e30 <__addsf3+0x110>
80004e18:	32078263          	beqz	a5,8000513c <__addsf3+0x41c>
80004e1c:	fff68593          	addi	a1,a3,-1
80004e20:	f60582e3          	beqz	a1,80004d84 <__addsf3+0x64>
80004e24:	00a69e63          	bne	a3,a0,80004e40 <__addsf3+0x120>
80004e28:	0ff00413          	li	s0,255
80004e2c:	2340006f          	j	80005060 <__addsf3+0x340>
80004e30:	fea60ce3          	beq	a2,a0,80004e28 <__addsf3+0x108>
80004e34:	040005b7          	lui	a1,0x4000
80004e38:	00b7e7b3          	or	a5,a5,a1
80004e3c:	00068593          	mv	a1,a3
80004e40:	01b00513          	li	a0,27
80004e44:	00100693          	li	a3,1
80004e48:	00b54e63          	blt	a0,a1,80004e64 <__addsf3+0x144>
80004e4c:	02000693          	li	a3,32
80004e50:	40b686b3          	sub	a3,a3,a1
80004e54:	00b7d533          	srl	a0,a5,a1
80004e58:	00d797b3          	sll	a5,a5,a3
80004e5c:	00f037b3          	snez	a5,a5
80004e60:	00f566b3          	or	a3,a0,a5
80004e64:	00e687b3          	add	a5,a3,a4
80004e68:	00060413          	mv	s0,a2
80004e6c:	f6dff06f          	j	80004dd8 <__addsf3+0xb8>
80004e70:	00140693          	addi	a3,s0,1
80004e74:	0fe6f613          	andi	a2,a3,254
80004e78:	06061c63          	bnez	a2,80004ef0 <__addsf3+0x1d0>
80004e7c:	06041263          	bnez	s0,80004ee0 <__addsf3+0x1c0>
80004e80:	2a078863          	beqz	a5,80005130 <__addsf3+0x410>
80004e84:	08070c63          	beqz	a4,80004f1c <__addsf3+0x1fc>
80004e88:	00f70733          	add	a4,a4,a5
80004e8c:	00571793          	slli	a5,a4,0x5
80004e90:	1c07d863          	bgez	a5,80005060 <__addsf3+0x340>
80004e94:	1f8007b7          	lui	a5,0x1f800
80004e98:	00375713          	srli	a4,a4,0x3
80004e9c:	fff78793          	addi	a5,a5,-1 # 1f7fffff <__heap_size+0x1f7f2fff>
80004ea0:	00f777b3          	and	a5,a4,a5
80004ea4:	00100413          	li	s0,1
80004ea8:	01741413          	slli	s0,s0,0x17
80004eac:	7f800737          	lui	a4,0x7f800
80004eb0:	00979793          	slli	a5,a5,0x9
80004eb4:	00e47433          	and	s0,s0,a4
80004eb8:	0097d793          	srli	a5,a5,0x9
80004ebc:	00f46433          	or	s0,s0,a5
80004ec0:	01f49513          	slli	a0,s1,0x1f
80004ec4:	00c12083          	lw	ra,12(sp)
80004ec8:	00a46533          	or	a0,s0,a0
80004ecc:	00812403          	lw	s0,8(sp)
80004ed0:	00412483          	lw	s1,4(sp)
80004ed4:	00012903          	lw	s2,0(sp)
80004ed8:	01010113          	addi	sp,sp,16
80004edc:	00008067          	ret
80004ee0:	f40784e3          	beqz	a5,80004e28 <__addsf3+0x108>
80004ee4:	1c071863          	bnez	a4,800050b4 <__addsf3+0x394>
80004ee8:	00078713          	mv	a4,a5
80004eec:	f3dff06f          	j	80004e28 <__addsf3+0x108>
80004ef0:	0ff00613          	li	a2,255
80004ef4:	24c68863          	beq	a3,a2,80005144 <__addsf3+0x424>
80004ef8:	00e78733          	add	a4,a5,a4
80004efc:	00175793          	srli	a5,a4,0x1
80004f00:	00068413          	mv	s0,a3
80004f04:	0077f713          	andi	a4,a5,7
80004f08:	00070a63          	beqz	a4,80004f1c <__addsf3+0x1fc>
80004f0c:	00f7f713          	andi	a4,a5,15
80004f10:	00400693          	li	a3,4
80004f14:	00d70463          	beq	a4,a3,80004f1c <__addsf3+0x1fc>
80004f18:	00d787b3          	add	a5,a5,a3
80004f1c:	00579713          	slli	a4,a5,0x5
80004f20:	e6075ce3          	bgez	a4,80004d98 <__addsf3+0x78>
80004f24:	00140413          	addi	s0,s0,1
80004f28:	0ff00713          	li	a4,255
80004f2c:	20e40e63          	beq	s0,a4,80005148 <__addsf3+0x428>
80004f30:	1f800737          	lui	a4,0x1f800
80004f34:	0037d793          	srli	a5,a5,0x3
80004f38:	fff70713          	addi	a4,a4,-1 # 1f7fffff <__heap_size+0x1f7f2fff>
80004f3c:	00e7f7b3          	and	a5,a5,a4
80004f40:	f69ff06f          	j	80004ea8 <__addsf3+0x188>
80004f44:	08d05063          	blez	a3,80004fc4 <__addsf3+0x2a4>
80004f48:	06061263          	bnez	a2,80004fac <__addsf3+0x28c>
80004f4c:	e40704e3          	beqz	a4,80004d94 <__addsf3+0x74>
80004f50:	fff68613          	addi	a2,a3,-1
80004f54:	00061863          	bnez	a2,80004f64 <__addsf3+0x244>
80004f58:	40e787b3          	sub	a5,a5,a4
80004f5c:	00100413          	li	s0,1
80004f60:	0340006f          	j	80004f94 <__addsf3+0x274>
80004f64:	0ff00593          	li	a1,255
80004f68:	e2b686e3          	beq	a3,a1,80004d94 <__addsf3+0x74>
80004f6c:	01b00593          	li	a1,27
80004f70:	00100693          	li	a3,1
80004f74:	00c5ce63          	blt	a1,a2,80004f90 <__addsf3+0x270>
80004f78:	02000693          	li	a3,32
80004f7c:	40c686b3          	sub	a3,a3,a2
80004f80:	00c755b3          	srl	a1,a4,a2
80004f84:	00d71733          	sll	a4,a4,a3
80004f88:	00e03733          	snez	a4,a4
80004f8c:	00e5e6b3          	or	a3,a1,a4
80004f90:	40d787b3          	sub	a5,a5,a3
80004f94:	00579713          	slli	a4,a5,0x5
80004f98:	f60756e3          	bgez	a4,80004f04 <__addsf3+0x1e4>
80004f9c:	04000937          	lui	s2,0x4000
80004fa0:	fff90913          	addi	s2,s2,-1 # 3ffffff <__heap_size+0x3ff2fff>
80004fa4:	0127f933          	and	s2,a5,s2
80004fa8:	1300006f          	j	800050d8 <__addsf3+0x3b8>
80004fac:	0ff00613          	li	a2,255
80004fb0:	dec404e3          	beq	s0,a2,80004d98 <__addsf3+0x78>
80004fb4:	04000637          	lui	a2,0x4000
80004fb8:	00c76733          	or	a4,a4,a2
80004fbc:	00068613          	mv	a2,a3
80004fc0:	fadff06f          	j	80004f6c <__addsf3+0x24c>
80004fc4:	06068e63          	beqz	a3,80005040 <__addsf3+0x320>
80004fc8:	408606b3          	sub	a3,a2,s0
80004fcc:	02041663          	bnez	s0,80004ff8 <__addsf3+0x2d8>
80004fd0:	16078463          	beqz	a5,80005138 <__addsf3+0x418>
80004fd4:	fff68513          	addi	a0,a3,-1
80004fd8:	00051863          	bnez	a0,80004fe8 <__addsf3+0x2c8>
80004fdc:	40f707b3          	sub	a5,a4,a5
80004fe0:	00058493          	mv	s1,a1
80004fe4:	f79ff06f          	j	80004f5c <__addsf3+0x23c>
80004fe8:	0ff00813          	li	a6,255
80004fec:	03069063          	bne	a3,a6,8000500c <__addsf3+0x2ec>
80004ff0:	00058493          	mv	s1,a1
80004ff4:	e35ff06f          	j	80004e28 <__addsf3+0x108>
80004ff8:	0ff00513          	li	a0,255
80004ffc:	fea60ae3          	beq	a2,a0,80004ff0 <__addsf3+0x2d0>
80005000:	04000537          	lui	a0,0x4000
80005004:	00a7e7b3          	or	a5,a5,a0
80005008:	00068513          	mv	a0,a3
8000500c:	01b00813          	li	a6,27
80005010:	00100693          	li	a3,1
80005014:	00a84e63          	blt	a6,a0,80005030 <__addsf3+0x310>
80005018:	02000693          	li	a3,32
8000501c:	40a686b3          	sub	a3,a3,a0
80005020:	00a7d833          	srl	a6,a5,a0
80005024:	00d797b3          	sll	a5,a5,a3
80005028:	00f037b3          	snez	a5,a5
8000502c:	00f866b3          	or	a3,a6,a5
80005030:	40d707b3          	sub	a5,a4,a3
80005034:	00060413          	mv	s0,a2
80005038:	00058493          	mv	s1,a1
8000503c:	f59ff06f          	j	80004f94 <__addsf3+0x274>
80005040:	00140693          	addi	a3,s0,1
80005044:	0fe6f693          	andi	a3,a3,254
80005048:	06069e63          	bnez	a3,800050c4 <__addsf3+0x3a4>
8000504c:	06041263          	bnez	s0,800050b0 <__addsf3+0x390>
80005050:	02079463          	bnez	a5,80005078 <__addsf3+0x358>
80005054:	00000493          	li	s1,0
80005058:	e40708e3          	beqz	a4,80004ea8 <__addsf3+0x188>
8000505c:	00058493          	mv	s1,a1
80005060:	00375793          	srli	a5,a4,0x3
80005064:	0ff00713          	li	a4,255
80005068:	e4e410e3          	bne	s0,a4,80004ea8 <__addsf3+0x188>
8000506c:	e2078ee3          	beqz	a5,80004ea8 <__addsf3+0x188>
80005070:	004007b7          	lui	a5,0x400
80005074:	0340006f          	j	800050a8 <__addsf3+0x388>
80005078:	ea0702e3          	beqz	a4,80004f1c <__addsf3+0x1fc>
8000507c:	40e786b3          	sub	a3,a5,a4
80005080:	00569613          	slli	a2,a3,0x5
80005084:	00065c63          	bgez	a2,8000509c <__addsf3+0x37c>
80005088:	40f707b3          	sub	a5,a4,a5
8000508c:	00058493          	mv	s1,a1
80005090:	00000413          	li	s0,0
80005094:	e0078ae3          	beqz	a5,80004ea8 <__addsf3+0x188>
80005098:	e6dff06f          	j	80004f04 <__addsf3+0x1e4>
8000509c:	00068713          	mv	a4,a3
800050a0:	fc0690e3          	bnez	a3,80005060 <__addsf3+0x340>
800050a4:	00000793          	li	a5,0
800050a8:	00000493          	li	s1,0
800050ac:	dfdff06f          	j	80004ea8 <__addsf3+0x188>
800050b0:	e2079ae3          	bnez	a5,80004ee4 <__addsf3+0x1c4>
800050b4:	00000493          	li	s1,0
800050b8:	0ff00413          	li	s0,255
800050bc:	004007b7          	lui	a5,0x400
800050c0:	de9ff06f          	j	80004ea8 <__addsf3+0x188>
800050c4:	40e78933          	sub	s2,a5,a4
800050c8:	00591693          	slli	a3,s2,0x5
800050cc:	0406d263          	bgez	a3,80005110 <__addsf3+0x3f0>
800050d0:	40f70933          	sub	s2,a4,a5
800050d4:	00058493          	mv	s1,a1
800050d8:	00090513          	mv	a0,s2
800050dc:	548000ef          	jal	80005624 <__clzsi2>
800050e0:	ffb50513          	addi	a0,a0,-5 # 3fffffb <__heap_size+0x3ff2ffb>
800050e4:	00a91933          	sll	s2,s2,a0
800050e8:	02854a63          	blt	a0,s0,8000511c <__addsf3+0x3fc>
800050ec:	40850533          	sub	a0,a0,s0
800050f0:	00150513          	addi	a0,a0,1
800050f4:	02000713          	li	a4,32
800050f8:	40a70733          	sub	a4,a4,a0
800050fc:	00a957b3          	srl	a5,s2,a0
80005100:	00e91933          	sll	s2,s2,a4
80005104:	01203933          	snez	s2,s2
80005108:	0127e7b3          	or	a5,a5,s2
8000510c:	f85ff06f          	j	80005090 <__addsf3+0x370>
80005110:	fc0914e3          	bnez	s2,800050d8 <__addsf3+0x3b8>
80005114:	00000413          	li	s0,0
80005118:	f8dff06f          	j	800050a4 <__addsf3+0x384>
8000511c:	fc0007b7          	lui	a5,0xfc000
80005120:	fff78793          	addi	a5,a5,-1 # fbffffff <__stack_top+0x7bfe9c2f>
80005124:	40a40433          	sub	s0,s0,a0
80005128:	00f977b3          	and	a5,s2,a5
8000512c:	dd9ff06f          	j	80004f04 <__addsf3+0x1e4>
80005130:	00070793          	mv	a5,a4
80005134:	f5dff06f          	j	80005090 <__addsf3+0x370>
80005138:	00058493          	mv	s1,a1
8000513c:	00068413          	mv	s0,a3
80005140:	f21ff06f          	j	80005060 <__addsf3+0x340>
80005144:	00068413          	mv	s0,a3
80005148:	00000793          	li	a5,0
8000514c:	d5dff06f          	j	80004ea8 <__addsf3+0x188>

80005150 <__mulsf3>:
80005150:	fe010113          	addi	sp,sp,-32
80005154:	01212823          	sw	s2,16(sp)
80005158:	01755913          	srli	s2,a0,0x17
8000515c:	00912a23          	sw	s1,20(sp)
80005160:	01312623          	sw	s3,12(sp)
80005164:	01512223          	sw	s5,4(sp)
80005168:	00951493          	slli	s1,a0,0x9
8000516c:	00112e23          	sw	ra,28(sp)
80005170:	00812c23          	sw	s0,24(sp)
80005174:	01412423          	sw	s4,8(sp)
80005178:	0ff97913          	zext.b	s2,s2
8000517c:	00058a93          	mv	s5,a1
80005180:	0094d493          	srli	s1,s1,0x9
80005184:	01f55993          	srli	s3,a0,0x1f
80005188:	18090463          	beqz	s2,80005310 <__mulsf3+0x1c0>
8000518c:	0ff00793          	li	a5,255
80005190:	1af90063          	beq	s2,a5,80005330 <__mulsf3+0x1e0>
80005194:	00349493          	slli	s1,s1,0x3
80005198:	040007b7          	lui	a5,0x4000
8000519c:	00f4e4b3          	or	s1,s1,a5
800051a0:	f8190913          	addi	s2,s2,-127
800051a4:	00000a13          	li	s4,0
800051a8:	017ad793          	srli	a5,s5,0x17
800051ac:	009a9413          	slli	s0,s5,0x9
800051b0:	0ff7f793          	zext.b	a5,a5
800051b4:	00945413          	srli	s0,s0,0x9
800051b8:	01fada93          	srli	s5,s5,0x1f
800051bc:	18078863          	beqz	a5,8000534c <__mulsf3+0x1fc>
800051c0:	0ff00713          	li	a4,255
800051c4:	1ae78463          	beq	a5,a4,8000536c <__mulsf3+0x21c>
800051c8:	00341413          	slli	s0,s0,0x3
800051cc:	04000737          	lui	a4,0x4000
800051d0:	00e46433          	or	s0,s0,a4
800051d4:	f8178793          	addi	a5,a5,-127 # 3ffff81 <__heap_size+0x3ff2f81>
800051d8:	00000713          	li	a4,0
800051dc:	00f90933          	add	s2,s2,a5
800051e0:	002a1793          	slli	a5,s4,0x2
800051e4:	00e7e7b3          	or	a5,a5,a4
800051e8:	00a00693          	li	a3,10
800051ec:	00190613          	addi	a2,s2,1
800051f0:	1cf6ce63          	blt	a3,a5,800053cc <__mulsf3+0x27c>
800051f4:	00200593          	li	a1,2
800051f8:	0159c9b3          	xor	s3,s3,s5
800051fc:	00100693          	li	a3,1
80005200:	18f5c463          	blt	a1,a5,80005388 <__mulsf3+0x238>
80005204:	fff78793          	addi	a5,a5,-1
80005208:	1af6f063          	bgeu	a3,a5,800053a8 <__mulsf3+0x258>
8000520c:	0104d713          	srli	a4,s1,0x10
80005210:	01045793          	srli	a5,s0,0x10
80005214:	01049493          	slli	s1,s1,0x10
80005218:	01041413          	slli	s0,s0,0x10
8000521c:	0104d493          	srli	s1,s1,0x10
80005220:	01045413          	srli	s0,s0,0x10
80005224:	029405b3          	mul	a1,s0,s1
80005228:	02870433          	mul	s0,a4,s0
8000522c:	02f70733          	mul	a4,a4,a5
80005230:	029787b3          	mul	a5,a5,s1
80005234:	008786b3          	add	a3,a5,s0
80005238:	0105d793          	srli	a5,a1,0x10
8000523c:	00d787b3          	add	a5,a5,a3
80005240:	0087f663          	bgeu	a5,s0,8000524c <__mulsf3+0xfc>
80005244:	000106b7          	lui	a3,0x10
80005248:	00d70733          	add	a4,a4,a3
8000524c:	01059593          	slli	a1,a1,0x10
80005250:	01079693          	slli	a3,a5,0x10
80005254:	0105d593          	srli	a1,a1,0x10
80005258:	00b686b3          	add	a3,a3,a1
8000525c:	0107d793          	srli	a5,a5,0x10
80005260:	00669413          	slli	s0,a3,0x6
80005264:	00e787b3          	add	a5,a5,a4
80005268:	00679793          	slli	a5,a5,0x6
8000526c:	00803433          	snez	s0,s0
80005270:	01a6d693          	srli	a3,a3,0x1a
80005274:	00d46433          	or	s0,s0,a3
80005278:	00479713          	slli	a4,a5,0x4
8000527c:	0087e433          	or	s0,a5,s0
80005280:	16075463          	bgez	a4,800053e8 <__mulsf3+0x298>
80005284:	00145793          	srli	a5,s0,0x1
80005288:	00147413          	andi	s0,s0,1
8000528c:	0087e433          	or	s0,a5,s0
80005290:	07f60713          	addi	a4,a2,127 # 400007f <__heap_size+0x3ff307f>
80005294:	14e05e63          	blez	a4,800053f0 <__mulsf3+0x2a0>
80005298:	00747793          	andi	a5,s0,7
8000529c:	00078a63          	beqz	a5,800052b0 <__mulsf3+0x160>
800052a0:	00f47793          	andi	a5,s0,15
800052a4:	00400693          	li	a3,4
800052a8:	00d78463          	beq	a5,a3,800052b0 <__mulsf3+0x160>
800052ac:	00d40433          	add	s0,s0,a3
800052b0:	00441793          	slli	a5,s0,0x4
800052b4:	0007da63          	bgez	a5,800052c8 <__mulsf3+0x178>
800052b8:	f80007b7          	lui	a5,0xf8000
800052bc:	fff78793          	addi	a5,a5,-1 # f7ffffff <__stack_top+0x77fe9c2f>
800052c0:	00f47433          	and	s0,s0,a5
800052c4:	08060713          	addi	a4,a2,128
800052c8:	0fe00793          	li	a5,254
800052cc:	18e7ca63          	blt	a5,a4,80005460 <__mulsf3+0x310>
800052d0:	00345793          	srli	a5,s0,0x3
800052d4:	01c12083          	lw	ra,28(sp)
800052d8:	01812403          	lw	s0,24(sp)
800052dc:	00979793          	slli	a5,a5,0x9
800052e0:	01771713          	slli	a4,a4,0x17
800052e4:	0097d793          	srli	a5,a5,0x9
800052e8:	01f99993          	slli	s3,s3,0x1f
800052ec:	00f76733          	or	a4,a4,a5
800052f0:	01412483          	lw	s1,20(sp)
800052f4:	01012903          	lw	s2,16(sp)
800052f8:	00812a03          	lw	s4,8(sp)
800052fc:	00412a83          	lw	s5,4(sp)
80005300:	01376533          	or	a0,a4,s3
80005304:	00c12983          	lw	s3,12(sp)
80005308:	02010113          	addi	sp,sp,32
8000530c:	00008067          	ret
80005310:	02048863          	beqz	s1,80005340 <__mulsf3+0x1f0>
80005314:	00048513          	mv	a0,s1
80005318:	30c000ef          	jal	80005624 <__clzsi2>
8000531c:	ffb50793          	addi	a5,a0,-5
80005320:	f8a00913          	li	s2,-118
80005324:	00f494b3          	sll	s1,s1,a5
80005328:	40a90933          	sub	s2,s2,a0
8000532c:	e79ff06f          	j	800051a4 <__mulsf3+0x54>
80005330:	00200a13          	li	s4,2
80005334:	e6048ae3          	beqz	s1,800051a8 <__mulsf3+0x58>
80005338:	00300a13          	li	s4,3
8000533c:	e6dff06f          	j	800051a8 <__mulsf3+0x58>
80005340:	00000913          	li	s2,0
80005344:	00100a13          	li	s4,1
80005348:	e61ff06f          	j	800051a8 <__mulsf3+0x58>
8000534c:	02040863          	beqz	s0,8000537c <__mulsf3+0x22c>
80005350:	00040513          	mv	a0,s0
80005354:	2d0000ef          	jal	80005624 <__clzsi2>
80005358:	ffb50793          	addi	a5,a0,-5
8000535c:	00f41433          	sll	s0,s0,a5
80005360:	f8a00793          	li	a5,-118
80005364:	40a787b3          	sub	a5,a5,a0
80005368:	e71ff06f          	j	800051d8 <__mulsf3+0x88>
8000536c:	00200713          	li	a4,2
80005370:	e60406e3          	beqz	s0,800051dc <__mulsf3+0x8c>
80005374:	00300713          	li	a4,3
80005378:	e65ff06f          	j	800051dc <__mulsf3+0x8c>
8000537c:	00000793          	li	a5,0
80005380:	00100713          	li	a4,1
80005384:	e59ff06f          	j	800051dc <__mulsf3+0x8c>
80005388:	00f697b3          	sll	a5,a3,a5
8000538c:	5307f693          	andi	a3,a5,1328
80005390:	04069663          	bnez	a3,800053dc <__mulsf3+0x28c>
80005394:	2407f693          	andi	a3,a5,576
80005398:	0a069c63          	bnez	a3,80005450 <__mulsf3+0x300>
8000539c:	0887f793          	andi	a5,a5,136
800053a0:	e60786e3          	beqz	a5,8000520c <__mulsf3+0xbc>
800053a4:	000a8993          	mv	s3,s5
800053a8:	00200793          	li	a5,2
800053ac:	0af70a63          	beq	a4,a5,80005460 <__mulsf3+0x310>
800053b0:	00300793          	li	a5,3
800053b4:	08f70e63          	beq	a4,a5,80005450 <__mulsf3+0x300>
800053b8:	00100793          	li	a5,1
800053bc:	ecf71ae3          	bne	a4,a5,80005290 <__mulsf3+0x140>
800053c0:	00000793          	li	a5,0
800053c4:	00000713          	li	a4,0
800053c8:	f0dff06f          	j	800052d4 <__mulsf3+0x184>
800053cc:	00f00693          	li	a3,15
800053d0:	08d78063          	beq	a5,a3,80005450 <__mulsf3+0x300>
800053d4:	00b00693          	li	a3,11
800053d8:	fcd786e3          	beq	a5,a3,800053a4 <__mulsf3+0x254>
800053dc:	00048413          	mv	s0,s1
800053e0:	000a0713          	mv	a4,s4
800053e4:	fc5ff06f          	j	800053a8 <__mulsf3+0x258>
800053e8:	00090613          	mv	a2,s2
800053ec:	ea5ff06f          	j	80005290 <__mulsf3+0x140>
800053f0:	00100693          	li	a3,1
800053f4:	00070c63          	beqz	a4,8000540c <__mulsf3+0x2bc>
800053f8:	40e686b3          	sub	a3,a3,a4
800053fc:	01b00593          	li	a1,27
80005400:	00000793          	li	a5,0
80005404:	00000713          	li	a4,0
80005408:	ecd5c6e3          	blt	a1,a3,800052d4 <__mulsf3+0x184>
8000540c:	09e60613          	addi	a2,a2,158
80005410:	00d456b3          	srl	a3,s0,a3
80005414:	00c41433          	sll	s0,s0,a2
80005418:	00803433          	snez	s0,s0
8000541c:	0086e7b3          	or	a5,a3,s0
80005420:	0077f713          	andi	a4,a5,7
80005424:	00070a63          	beqz	a4,80005438 <__mulsf3+0x2e8>
80005428:	00f7f713          	andi	a4,a5,15
8000542c:	00400693          	li	a3,4
80005430:	00d70463          	beq	a4,a3,80005438 <__mulsf3+0x2e8>
80005434:	00d787b3          	add	a5,a5,a3
80005438:	00579713          	slli	a4,a5,0x5
8000543c:	0037d793          	srli	a5,a5,0x3
80005440:	f80752e3          	bgez	a4,800053c4 <__mulsf3+0x274>
80005444:	00000793          	li	a5,0
80005448:	00100713          	li	a4,1
8000544c:	e89ff06f          	j	800052d4 <__mulsf3+0x184>
80005450:	004007b7          	lui	a5,0x400
80005454:	0ff00713          	li	a4,255
80005458:	00000993          	li	s3,0
8000545c:	e79ff06f          	j	800052d4 <__mulsf3+0x184>
80005460:	00000793          	li	a5,0
80005464:	0ff00713          	li	a4,255
80005468:	e6dff06f          	j	800052d4 <__mulsf3+0x184>

8000546c <__fixsfsi>:
8000546c:	00800637          	lui	a2,0x800
80005470:	01755713          	srli	a4,a0,0x17
80005474:	fff60793          	addi	a5,a2,-1 # 7fffff <__heap_size+0x7f2fff>
80005478:	0ff77713          	zext.b	a4,a4
8000547c:	07e00593          	li	a1,126
80005480:	00a7f7b3          	and	a5,a5,a0
80005484:	01f55693          	srli	a3,a0,0x1f
80005488:	04e5d663          	bge	a1,a4,800054d4 <__fixsfsi+0x68>
8000548c:	09d00593          	li	a1,157
80005490:	00e5da63          	bge	a1,a4,800054a4 <__fixsfsi+0x38>
80005494:	80000537          	lui	a0,0x80000
80005498:	fff50513          	addi	a0,a0,-1 # 7fffffff <__heap_size+0x7fff2fff>
8000549c:	00a68533          	add	a0,a3,a0
800054a0:	00008067          	ret
800054a4:	00c7e533          	or	a0,a5,a2
800054a8:	09500793          	li	a5,149
800054ac:	00e7dc63          	bge	a5,a4,800054c4 <__fixsfsi+0x58>
800054b0:	f6a70713          	addi	a4,a4,-150 # 3ffff6a <__heap_size+0x3ff2f6a>
800054b4:	00e51533          	sll	a0,a0,a4
800054b8:	02068063          	beqz	a3,800054d8 <__fixsfsi+0x6c>
800054bc:	40a00533          	neg	a0,a0
800054c0:	00008067          	ret
800054c4:	09600793          	li	a5,150
800054c8:	40e787b3          	sub	a5,a5,a4
800054cc:	00f55533          	srl	a0,a0,a5
800054d0:	fe9ff06f          	j	800054b8 <__fixsfsi+0x4c>
800054d4:	00000513          	li	a0,0
800054d8:	00008067          	ret

800054dc <__floatsisf>:
800054dc:	ff010113          	addi	sp,sp,-16
800054e0:	00112623          	sw	ra,12(sp)
800054e4:	00812423          	sw	s0,8(sp)
800054e8:	00912223          	sw	s1,4(sp)
800054ec:	00050793          	mv	a5,a0
800054f0:	0e050463          	beqz	a0,800055d8 <__floatsisf+0xfc>
800054f4:	41f55713          	srai	a4,a0,0x1f
800054f8:	00a74433          	xor	s0,a4,a0
800054fc:	40e40433          	sub	s0,s0,a4
80005500:	01f55493          	srli	s1,a0,0x1f
80005504:	00040513          	mv	a0,s0
80005508:	11c000ef          	jal	80005624 <__clzsi2>
8000550c:	09e00793          	li	a5,158
80005510:	40a787b3          	sub	a5,a5,a0
80005514:	09600713          	li	a4,150
80005518:	04f74063          	blt	a4,a5,80005558 <__floatsisf+0x7c>
8000551c:	00800693          	li	a3,8
80005520:	0cd50263          	beq	a0,a3,800055e4 <__floatsisf+0x108>
80005524:	ff850513          	addi	a0,a0,-8
80005528:	00a41433          	sll	s0,s0,a0
8000552c:	00941413          	slli	s0,s0,0x9
80005530:	00945413          	srli	s0,s0,0x9
80005534:	01779793          	slli	a5,a5,0x17
80005538:	00c12083          	lw	ra,12(sp)
8000553c:	0087e7b3          	or	a5,a5,s0
80005540:	00812403          	lw	s0,8(sp)
80005544:	01f49513          	slli	a0,s1,0x1f
80005548:	00a7e533          	or	a0,a5,a0
8000554c:	00412483          	lw	s1,4(sp)
80005550:	01010113          	addi	sp,sp,16
80005554:	00008067          	ret
80005558:	09900713          	li	a4,153
8000555c:	06f75463          	bge	a4,a5,800055c4 <__floatsisf+0xe8>
80005560:	01b50713          	addi	a4,a0,27
80005564:	00500693          	li	a3,5
80005568:	00e41733          	sll	a4,s0,a4
8000556c:	40a686b3          	sub	a3,a3,a0
80005570:	00e03733          	snez	a4,a4
80005574:	00d45433          	srl	s0,s0,a3
80005578:	00876733          	or	a4,a4,s0
8000557c:	fc000437          	lui	s0,0xfc000
80005580:	fff40413          	addi	s0,s0,-1 # fbffffff <__stack_top+0x7bfe9c2f>
80005584:	00777693          	andi	a3,a4,7
80005588:	00877433          	and	s0,a4,s0
8000558c:	04068263          	beqz	a3,800055d0 <__floatsisf+0xf4>
80005590:	00f77713          	andi	a4,a4,15
80005594:	00400693          	li	a3,4
80005598:	02d70c63          	beq	a4,a3,800055d0 <__floatsisf+0xf4>
8000559c:	00d40433          	add	s0,s0,a3
800055a0:	00541693          	slli	a3,s0,0x5
800055a4:	00345713          	srli	a4,s0,0x3
800055a8:	0206d463          	bgez	a3,800055d0 <__floatsisf+0xf4>
800055ac:	1f800437          	lui	s0,0x1f800
800055b0:	09f00793          	li	a5,159
800055b4:	fff40413          	addi	s0,s0,-1 # 1f7fffff <__heap_size+0x1f7f2fff>
800055b8:	40a787b3          	sub	a5,a5,a0
800055bc:	00877433          	and	s0,a4,s0
800055c0:	f6dff06f          	j	8000552c <__floatsisf+0x50>
800055c4:	ffb50713          	addi	a4,a0,-5
800055c8:	00e41733          	sll	a4,s0,a4
800055cc:	fb1ff06f          	j	8000557c <__floatsisf+0xa0>
800055d0:	00345413          	srli	s0,s0,0x3
800055d4:	f59ff06f          	j	8000552c <__floatsisf+0x50>
800055d8:	00000493          	li	s1,0
800055dc:	00000413          	li	s0,0
800055e0:	f4dff06f          	j	8000552c <__floatsisf+0x50>
800055e4:	00070793          	mv	a5,a4
800055e8:	f45ff06f          	j	8000552c <__floatsisf+0x50>

800055ec <__ashldi3>:
800055ec:	02060063          	beqz	a2,8000560c <__ashldi3+0x20>
800055f0:	02000793          	li	a5,32
800055f4:	40c787b3          	sub	a5,a5,a2
800055f8:	00f04c63          	bgtz	a5,80005610 <__ashldi3+0x24>
800055fc:	fe060613          	addi	a2,a2,-32
80005600:	00c515b3          	sll	a1,a0,a2
80005604:	00000713          	li	a4,0
80005608:	00070513          	mv	a0,a4
8000560c:	00008067          	ret
80005610:	00c51733          	sll	a4,a0,a2
80005614:	00c595b3          	sll	a1,a1,a2
80005618:	00f55533          	srl	a0,a0,a5
8000561c:	00a5e5b3          	or	a1,a1,a0
80005620:	fe9ff06f          	j	80005608 <__ashldi3+0x1c>

80005624 <__clzsi2>:
80005624:	000107b7          	lui	a5,0x10
80005628:	02f57a63          	bgeu	a0,a5,8000565c <__clzsi2+0x38>
8000562c:	10053793          	sltiu	a5,a0,256
80005630:	0017b793          	seqz	a5,a5
80005634:	00379793          	slli	a5,a5,0x3
80005638:	80008737          	lui	a4,0x80008
8000563c:	02000693          	li	a3,32
80005640:	40f686b3          	sub	a3,a3,a5
80005644:	00f55533          	srl	a0,a0,a5
80005648:	27c70793          	addi	a5,a4,636 # 8000827c <__clz_tab>
8000564c:	00a787b3          	add	a5,a5,a0
80005650:	0007c503          	lbu	a0,0(a5) # 10000 <__heap_size+0x3000>
80005654:	40a68533          	sub	a0,a3,a0
80005658:	00008067          	ret
8000565c:	01000737          	lui	a4,0x1000
80005660:	01800793          	li	a5,24
80005664:	fce57ae3          	bgeu	a0,a4,80005638 <__clzsi2+0x14>
80005668:	01000793          	li	a5,16
8000566c:	fcdff06f          	j	80005638 <__clzsi2+0x14>
