
dhry.elf:     file format elf32-littleriscv


Disassembly of section .text:

00001000 <Proc_1>:
    1000:	ff010113          	addi	sp,sp,-16
    1004:	01212023          	sw	s2,0(sp)
    1008:	0000b937          	lui	s2,0xb
    100c:	15092783          	lw	a5,336(s2) # b150 <Ptr_Glob>
    1010:	00812423          	sw	s0,8(sp)
    1014:	00052403          	lw	s0,0(a0)
    1018:	0007a683          	lw	a3,0(a5)
    101c:	0047af03          	lw	t5,4(a5)
    1020:	0087ae83          	lw	t4,8(a5)
    1024:	0107ae03          	lw	t3,16(a5)
    1028:	0147a303          	lw	t1,20(a5)
    102c:	0187a883          	lw	a7,24(a5)
    1030:	01c7a803          	lw	a6,28(a5)
    1034:	0247a583          	lw	a1,36(a5)
    1038:	0287a603          	lw	a2,40(a5)
    103c:	02c7a703          	lw	a4,44(a5)
    1040:	00112623          	sw	ra,12(sp)
    1044:	00912223          	sw	s1,4(sp)
    1048:	00050493          	mv	s1,a0
    104c:	0207a503          	lw	a0,32(a5)
    1050:	00d42023          	sw	a3,0(s0)
    1054:	0004a683          	lw	a3,0(s1)
    1058:	01e42223          	sw	t5,4(s0)
    105c:	01d42423          	sw	t4,8(s0)
    1060:	01c42823          	sw	t3,16(s0)
    1064:	00642a23          	sw	t1,20(s0)
    1068:	01142c23          	sw	a7,24(s0)
    106c:	01042e23          	sw	a6,28(s0)
    1070:	02a42023          	sw	a0,32(s0)
    1074:	02b42223          	sw	a1,36(s0)
    1078:	02c42423          	sw	a2,40(s0)
    107c:	02e42623          	sw	a4,44(s0)
    1080:	00500713          	li	a4,5
    1084:	00e4a623          	sw	a4,12(s1)
    1088:	00d42023          	sw	a3,0(s0)
    108c:	0007a783          	lw	a5,0(a5)
    1090:	0000b6b7          	lui	a3,0xb
    1094:	1486a583          	lw	a1,328(a3) # b148 <Int_Glob>
    1098:	00f42023          	sw	a5,0(s0)
    109c:	15092603          	lw	a2,336(s2)
    10a0:	00e42623          	sw	a4,12(s0)
    10a4:	00a00513          	li	a0,10
    10a8:	00c60613          	addi	a2,a2,12
    10ac:	0d1000ef          	jal	197c <Proc_7>
    10b0:	00442783          	lw	a5,4(s0)
    10b4:	08078063          	beqz	a5,1134 <Proc_1+0x134>
    10b8:	0004a783          	lw	a5,0(s1)
    10bc:	00c12083          	lw	ra,12(sp)
    10c0:	00812403          	lw	s0,8(sp)
    10c4:	0007af03          	lw	t5,0(a5)
    10c8:	0047ae83          	lw	t4,4(a5)
    10cc:	0087ae03          	lw	t3,8(a5)
    10d0:	00c7a303          	lw	t1,12(a5)
    10d4:	0107a883          	lw	a7,16(a5)
    10d8:	0147a803          	lw	a6,20(a5)
    10dc:	0187a503          	lw	a0,24(a5)
    10e0:	01c7a583          	lw	a1,28(a5)
    10e4:	0207a603          	lw	a2,32(a5)
    10e8:	0247a683          	lw	a3,36(a5)
    10ec:	0287a703          	lw	a4,40(a5)
    10f0:	02c7a783          	lw	a5,44(a5)
    10f4:	01e4a023          	sw	t5,0(s1)
    10f8:	01d4a223          	sw	t4,4(s1)
    10fc:	01c4a423          	sw	t3,8(s1)
    1100:	0064a623          	sw	t1,12(s1)
    1104:	0114a823          	sw	a7,16(s1)
    1108:	0104aa23          	sw	a6,20(s1)
    110c:	00a4ac23          	sw	a0,24(s1)
    1110:	00b4ae23          	sw	a1,28(s1)
    1114:	02c4a023          	sw	a2,32(s1)
    1118:	02d4a223          	sw	a3,36(s1)
    111c:	02e4a423          	sw	a4,40(s1)
    1120:	02f4a623          	sw	a5,44(s1)
    1124:	00012903          	lw	s2,0(sp)
    1128:	00412483          	lw	s1,4(sp)
    112c:	01010113          	addi	sp,sp,16
    1130:	00008067          	ret
    1134:	0084a503          	lw	a0,8(s1)
    1138:	00600793          	li	a5,6
    113c:	00f42623          	sw	a5,12(s0)
    1140:	00840593          	addi	a1,s0,8
    1144:	7e4000ef          	jal	1928 <Proc_6>
    1148:	15092783          	lw	a5,336(s2)
    114c:	00c42503          	lw	a0,12(s0)
    1150:	00c40613          	addi	a2,s0,12
    1154:	0007a783          	lw	a5,0(a5)
    1158:	00c12083          	lw	ra,12(sp)
    115c:	00412483          	lw	s1,4(sp)
    1160:	00f42023          	sw	a5,0(s0)
    1164:	00812403          	lw	s0,8(sp)
    1168:	00012903          	lw	s2,0(sp)
    116c:	00a00593          	li	a1,10
    1170:	01010113          	addi	sp,sp,16
    1174:	0090006f          	j	197c <Proc_7>

00001178 <Proc_2>:
    1178:	0000b7b7          	lui	a5,0xb
    117c:	1417c703          	lbu	a4,321(a5) # b141 <Ch_1_Glob>
    1180:	04100793          	li	a5,65
    1184:	00f70463          	beq	a4,a5,118c <Proc_2+0x14>
    1188:	00008067          	ret
    118c:	00052783          	lw	a5,0(a0)
    1190:	0000b737          	lui	a4,0xb
    1194:	14872703          	lw	a4,328(a4) # b148 <Int_Glob>
    1198:	00978793          	addi	a5,a5,9
    119c:	40e787b3          	sub	a5,a5,a4
    11a0:	00f52023          	sw	a5,0(a0)
    11a4:	00008067          	ret

000011a8 <Proc_3>:
    11a8:	0000b7b7          	lui	a5,0xb
    11ac:	1507a603          	lw	a2,336(a5) # b150 <Ptr_Glob>
    11b0:	00060863          	beqz	a2,11c0 <Proc_3+0x18>
    11b4:	00062703          	lw	a4,0(a2)
    11b8:	00e52023          	sw	a4,0(a0)
    11bc:	1507a603          	lw	a2,336(a5)
    11c0:	0000b7b7          	lui	a5,0xb
    11c4:	1487a583          	lw	a1,328(a5) # b148 <Int_Glob>
    11c8:	00c60613          	addi	a2,a2,12
    11cc:	00a00513          	li	a0,10
    11d0:	7ac0006f          	j	197c <Proc_7>

000011d4 <Proc_4>:
    11d4:	0000b7b7          	lui	a5,0xb
    11d8:	1417c783          	lbu	a5,321(a5) # b141 <Ch_1_Glob>
    11dc:	0000b737          	lui	a4,0xb
    11e0:	14472683          	lw	a3,324(a4) # b144 <Bool_Glob>
    11e4:	fbf78793          	addi	a5,a5,-65
    11e8:	0017b793          	seqz	a5,a5
    11ec:	00d7e7b3          	or	a5,a5,a3
    11f0:	04200613          	li	a2,66
    11f4:	0000b6b7          	lui	a3,0xb
    11f8:	14f72223          	sw	a5,324(a4)
    11fc:	14c68023          	sb	a2,320(a3) # b140 <Ch_2_Glob>
    1200:	00008067          	ret

00001204 <Proc_5>:
    1204:	0000b737          	lui	a4,0xb
    1208:	04100693          	li	a3,65
    120c:	0000b7b7          	lui	a5,0xb
    1210:	14d700a3          	sb	a3,321(a4) # b141 <Ch_1_Glob>
    1214:	1407a223          	sw	zero,324(a5) # b144 <Bool_Glob>
    1218:	00008067          	ret

0000121c <main>:
    121c:	f6010113          	addi	sp,sp,-160
    1220:	03000513          	li	a0,48
    1224:	08112e23          	sw	ra,156(sp)
    1228:	08812c23          	sw	s0,152(sp)
    122c:	07912a23          	sw	s9,116(sp)
    1230:	08912a23          	sw	s1,148(sp)
    1234:	09212823          	sw	s2,144(sp)
    1238:	09312623          	sw	s3,140(sp)
    123c:	09412423          	sw	s4,136(sp)
    1240:	09512223          	sw	s5,132(sp)
    1244:	09612023          	sw	s6,128(sp)
    1248:	07712e23          	sw	s7,124(sp)
    124c:	07812c23          	sw	s8,120(sp)
    1250:	07a12823          	sw	s10,112(sp)
    1254:	07b12623          	sw	s11,108(sp)
    1258:	480010ef          	jal	26d8 <malloc>
    125c:	00050793          	mv	a5,a0
    1260:	0000b437          	lui	s0,0xb
    1264:	03000513          	li	a0,48
    1268:	14f42623          	sw	a5,332(s0) # b14c <Next_Ptr_Glob>
    126c:	46c010ef          	jal	26d8 <malloc>
    1270:	14c42683          	lw	a3,332(s0)
    1274:	0000bcb7          	lui	s9,0xb
    1278:	00200713          	li	a4,2
    127c:	02800793          	li	a5,40
    1280:	14aca823          	sw	a0,336(s9) # b150 <Ptr_Glob>
    1284:	0000a5b7          	lui	a1,0xa
    1288:	00d52023          	sw	a3,0(a0)
    128c:	00e52423          	sw	a4,8(a0)
    1290:	00f52623          	sw	a5,12(a0)
    1294:	00052223          	sw	zero,4(a0)
    1298:	7d858593          	addi	a1,a1,2008 # a7d8 <Arr_2_Glob+0x2710>
    129c:	01050513          	addi	a0,a0,16
    12a0:	778010ef          	jal	2a18 <strcpy>
    12a4:	0000a5b7          	lui	a1,0xa
    12a8:	7fc58593          	addi	a1,a1,2044 # a7fc <Arr_2_Glob+0x2734>
    12ac:	02010513          	addi	a0,sp,32
    12b0:	768010ef          	jal	2a18 <strcpy>
    12b4:	0000b437          	lui	s0,0xb
    12b8:	00008737          	lui	a4,0x8
    12bc:	00a00793          	li	a5,10
    12c0:	0c870713          	addi	a4,a4,200 # 80c8 <Arr_2_Glob>
    12c4:	81c40513          	addi	a0,s0,-2020 # a81c <Arr_2_Glob+0x2754>
    12c8:	64f72e23          	sw	a5,1628(a4)
    12cc:	17c010ef          	jal	2448 <printf>
    12d0:	0000b537          	lui	a0,0xb
    12d4:	82050513          	addi	a0,a0,-2016 # a820 <Arr_2_Glob+0x2758>
    12d8:	170010ef          	jal	2448 <printf>
    12dc:	81c40513          	addi	a0,s0,-2020
    12e0:	168010ef          	jal	2448 <printf>
    12e4:	0000b7b7          	lui	a5,0xb
    12e8:	13c7a783          	lw	a5,316(a5) # b13c <Reg>
    12ec:	62078063          	beqz	a5,190c <main+0x6f0>
    12f0:	0000b537          	lui	a0,0xb
    12f4:	85050513          	addi	a0,a0,-1968 # a850 <Arr_2_Glob+0x2788>
    12f8:	150010ef          	jal	2448 <printf>
    12fc:	81c40513          	addi	a0,s0,-2020
    1300:	148010ef          	jal	2448 <printf>
    1304:	0000b537          	lui	a0,0xb
    1308:	1f400593          	li	a1,500
    130c:	8ac50513          	addi	a0,a0,-1876 # a8ac <Arr_2_Glob+0x27e4>
    1310:	138010ef          	jal	2448 <printf>
    1314:	0b1010ef          	jal	2bc4 <clock>
    1318:	00100493          	li	s1,1
    131c:	0000b7b7          	lui	a5,0xb
    1320:	12a7ac23          	sw	a0,312(a5) # b138 <Begin_Time>
    1324:	00048b13          	mv	s6,s1
    1328:	0000b9b7          	lui	s3,0xb
    132c:	0000ba37          	lui	s4,0xb
    1330:	0000b437          	lui	s0,0xb
    1334:	00008d37          	lui	s10,0x8
    1338:	0000bbb7          	lui	s7,0xb
    133c:	04100a93          	li	s5,65
    1340:	0000bc37          	lui	s8,0xb
    1344:	0000b737          	lui	a4,0xb
    1348:	04200793          	li	a5,66
    134c:	8dc70593          	addi	a1,a4,-1828 # a8dc <Arr_2_Glob+0x2814>
    1350:	04010513          	addi	a0,sp,64
    1354:	14f40023          	sb	a5,320(s0) # b140 <Ch_2_Glob>
    1358:	155980a3          	sb	s5,321(s3) # b141 <Ch_1_Glob>
    135c:	156a2223          	sw	s6,324(s4) # b144 <Bool_Glob>
    1360:	6b8010ef          	jal	2a18 <strcpy>
    1364:	04010593          	addi	a1,sp,64
    1368:	02010513          	addi	a0,sp,32
    136c:	01612e23          	sw	s6,28(sp)
    1370:	6a8000ef          	jal	1a18 <Func_2>
    1374:	00700713          	li	a4,7
    1378:	00153793          	seqz	a5,a0
    137c:	01810613          	addi	a2,sp,24
    1380:	00300593          	li	a1,3
    1384:	00200513          	li	a0,2
    1388:	00e12c23          	sw	a4,24(sp)
    138c:	14fa2223          	sw	a5,324(s4)
    1390:	5ec000ef          	jal	197c <Proc_7>
    1394:	01812683          	lw	a3,24(sp)
    1398:	000087b7          	lui	a5,0x8
    139c:	0c878593          	addi	a1,a5,200 # 80c8 <Arr_2_Glob>
    13a0:	000d0513          	mv	a0,s10
    13a4:	00300613          	li	a2,3
    13a8:	5e4000ef          	jal	198c <Proc_8>
    13ac:	150ca503          	lw	a0,336(s9)
    13b0:	c51ff0ef          	jal	1000 <Proc_1>
    13b4:	14044703          	lbu	a4,320(s0)
    13b8:	04000793          	li	a5,64
    13bc:	54e7f463          	bgeu	a5,a4,1904 <main+0x6e8>
    13c0:	04100d93          	li	s11,65
    13c4:	00300913          	li	s2,3
    13c8:	0140006f          	j	13dc <main+0x1c0>
    13cc:	14044703          	lbu	a4,320(s0)
    13d0:	001d8793          	addi	a5,s11,1
    13d4:	0ff7fd93          	zext.b	s11,a5
    13d8:	05b76463          	bltu	a4,s11,1420 <main+0x204>
    13dc:	04300593          	li	a1,67
    13e0:	000d8513          	mv	a0,s11
    13e4:	610000ef          	jal	19f4 <Func_1>
    13e8:	01c12703          	lw	a4,28(sp)
    13ec:	fee510e3          	bne	a0,a4,13cc <main+0x1b0>
    13f0:	01c10593          	addi	a1,sp,28
    13f4:	00000513          	li	a0,0
    13f8:	530000ef          	jal	1928 <Proc_6>
    13fc:	8fcc0593          	addi	a1,s8,-1796 # a8fc <Arr_2_Glob+0x2834>
    1400:	04010513          	addi	a0,sp,64
    1404:	614010ef          	jal	2a18 <strcpy>
    1408:	14044703          	lbu	a4,320(s0)
    140c:	001d8793          	addi	a5,s11,1
    1410:	149ba423          	sw	s1,328(s7) # b148 <Int_Glob>
    1414:	0ff7fd93          	zext.b	s11,a5
    1418:	00048913          	mv	s2,s1
    141c:	fdb770e3          	bgeu	a4,s11,13dc <main+0x1c0>
    1420:	00191793          	slli	a5,s2,0x1
    1424:	01278933          	add	s2,a5,s2
    1428:	01812603          	lw	a2,24(sp)
    142c:	1419c703          	lbu	a4,321(s3)
    1430:	02c946b3          	div	a3,s2,a2
    1434:	00068793          	mv	a5,a3
    1438:	01571863          	bne	a4,s5,1448 <main+0x22c>
    143c:	148ba703          	lw	a4,328(s7)
    1440:	00968793          	addi	a5,a3,9
    1444:	40e787b3          	sub	a5,a5,a4
    1448:	00148493          	addi	s1,s1,1
    144c:	1f500713          	li	a4,501
    1450:	eee49ae3          	bne	s1,a4,1344 <main+0x128>
    1454:	00d12423          	sw	a3,8(sp)
    1458:	00c12223          	sw	a2,4(sp)
    145c:	00f12623          	sw	a5,12(sp)
    1460:	764010ef          	jal	2bc4 <clock>
    1464:	00050713          	mv	a4,a0
    1468:	0000b537          	lui	a0,0xb
    146c:	0000bab7          	lui	s5,0xb
    1470:	91c50513          	addi	a0,a0,-1764 # a91c <Arr_2_Glob+0x2854>
    1474:	12eaaa23          	sw	a4,308(s5) # b134 <End_Time>
    1478:	0000bdb7          	lui	s11,0xb
    147c:	7cd000ef          	jal	2448 <printf>
    1480:	81cd8513          	addi	a0,s11,-2020 # a81c <Arr_2_Glob+0x2754>
    1484:	7c5000ef          	jal	2448 <printf>
    1488:	0000b537          	lui	a0,0xb
    148c:	92c50513          	addi	a0,a0,-1748 # a92c <Arr_2_Glob+0x2864>
    1490:	7b9000ef          	jal	2448 <printf>
    1494:	81cd8513          	addi	a0,s11,-2020
    1498:	7b1000ef          	jal	2448 <printf>
    149c:	148ba583          	lw	a1,328(s7)
    14a0:	0000b537          	lui	a0,0xb
    14a4:	96450513          	addi	a0,a0,-1692 # a964 <Arr_2_Glob+0x289c>
    14a8:	0000b4b7          	lui	s1,0xb
    14ac:	79d000ef          	jal	2448 <printf>
    14b0:	98048513          	addi	a0,s1,-1664 # a980 <Arr_2_Glob+0x28b8>
    14b4:	00500593          	li	a1,5
    14b8:	791000ef          	jal	2448 <printf>
    14bc:	144a2583          	lw	a1,324(s4)
    14c0:	0000b537          	lui	a0,0xb
    14c4:	99c50513          	addi	a0,a0,-1636 # a99c <Arr_2_Glob+0x28d4>
    14c8:	781000ef          	jal	2448 <printf>
    14cc:	98048513          	addi	a0,s1,-1664
    14d0:	00100593          	li	a1,1
    14d4:	775000ef          	jal	2448 <printf>
    14d8:	1419c583          	lbu	a1,321(s3)
    14dc:	0000b537          	lui	a0,0xb
    14e0:	9b850513          	addi	a0,a0,-1608 # a9b8 <Arr_2_Glob+0x28f0>
    14e4:	765000ef          	jal	2448 <printf>
    14e8:	0000b9b7          	lui	s3,0xb
    14ec:	9d498513          	addi	a0,s3,-1580 # a9d4 <Arr_2_Glob+0x290c>
    14f0:	04100593          	li	a1,65
    14f4:	755000ef          	jal	2448 <printf>
    14f8:	14044583          	lbu	a1,320(s0)
    14fc:	0000b537          	lui	a0,0xb
    1500:	9f050513          	addi	a0,a0,-1552 # a9f0 <Arr_2_Glob+0x2928>
    1504:	745000ef          	jal	2448 <printf>
    1508:	9d498513          	addi	a0,s3,-1580
    150c:	04200593          	li	a1,66
    1510:	739000ef          	jal	2448 <printf>
    1514:	000d0d13          	mv	s10,s10
    1518:	020d2583          	lw	a1,32(s10) # 8020 <Arr_1_Glob+0x20>
    151c:	0000b537          	lui	a0,0xb
    1520:	a0c50513          	addi	a0,a0,-1524 # aa0c <Arr_2_Glob+0x2944>
    1524:	725000ef          	jal	2448 <printf>
    1528:	98048513          	addi	a0,s1,-1664
    152c:	00700593          	li	a1,7
    1530:	719000ef          	jal	2448 <printf>
    1534:	000087b7          	lui	a5,0x8
    1538:	0c878793          	addi	a5,a5,200 # 80c8 <Arr_2_Glob>
    153c:	65c7a583          	lw	a1,1628(a5)
    1540:	0000b537          	lui	a0,0xb
    1544:	a2850513          	addi	a0,a0,-1496 # aa28 <Arr_2_Glob+0x2960>
    1548:	701000ef          	jal	2448 <printf>
    154c:	0000b537          	lui	a0,0xb
    1550:	a4450513          	addi	a0,a0,-1468 # aa44 <Arr_2_Glob+0x297c>
    1554:	6f5000ef          	jal	2448 <printf>
    1558:	0000b537          	lui	a0,0xb
    155c:	a7050513          	addi	a0,a0,-1424 # aa70 <Arr_2_Glob+0x29a8>
    1560:	6e9000ef          	jal	2448 <printf>
    1564:	150ca703          	lw	a4,336(s9)
    1568:	0000bc37          	lui	s8,0xb
    156c:	a7cc0513          	addi	a0,s8,-1412 # aa7c <Arr_2_Glob+0x29b4>
    1570:	00072583          	lw	a1,0(a4)
    1574:	0000bbb7          	lui	s7,0xb
    1578:	0000bb37          	lui	s6,0xb
    157c:	6cd000ef          	jal	2448 <printf>
    1580:	0000b537          	lui	a0,0xb
    1584:	a9850513          	addi	a0,a0,-1384 # aa98 <Arr_2_Glob+0x29d0>
    1588:	6c1000ef          	jal	2448 <printf>
    158c:	150ca703          	lw	a4,336(s9)
    1590:	accb8513          	addi	a0,s7,-1332 # aacc <Arr_2_Glob+0x2a04>
    1594:	0000ba37          	lui	s4,0xb
    1598:	00472583          	lw	a1,4(a4)
    159c:	0000b9b7          	lui	s3,0xb
    15a0:	0000b437          	lui	s0,0xb
    15a4:	6a5000ef          	jal	2448 <printf>
    15a8:	98048513          	addi	a0,s1,-1664
    15ac:	00000593          	li	a1,0
    15b0:	699000ef          	jal	2448 <printf>
    15b4:	150ca703          	lw	a4,336(s9)
    15b8:	ae8b0513          	addi	a0,s6,-1304 # aae8 <Arr_2_Glob+0x2a20>
    15bc:	00872583          	lw	a1,8(a4)
    15c0:	689000ef          	jal	2448 <printf>
    15c4:	98048513          	addi	a0,s1,-1664
    15c8:	00200593          	li	a1,2
    15cc:	67d000ef          	jal	2448 <printf>
    15d0:	150ca703          	lw	a4,336(s9)
    15d4:	b04a0513          	addi	a0,s4,-1276 # ab04 <Arr_2_Glob+0x2a3c>
    15d8:	00c72583          	lw	a1,12(a4)
    15dc:	66d000ef          	jal	2448 <printf>
    15e0:	98048513          	addi	a0,s1,-1664
    15e4:	01100593          	li	a1,17
    15e8:	661000ef          	jal	2448 <printf>
    15ec:	150ca583          	lw	a1,336(s9)
    15f0:	b2098513          	addi	a0,s3,-1248 # ab20 <Arr_2_Glob+0x2a58>
    15f4:	0000bcb7          	lui	s9,0xb
    15f8:	01058593          	addi	a1,a1,16
    15fc:	64d000ef          	jal	2448 <printf>
    1600:	b3c40513          	addi	a0,s0,-1220 # ab3c <Arr_2_Glob+0x2a74>
    1604:	645000ef          	jal	2448 <printf>
    1608:	0000b537          	lui	a0,0xb
    160c:	b7450513          	addi	a0,a0,-1164 # ab74 <Arr_2_Glob+0x2aac>
    1610:	639000ef          	jal	2448 <printf>
    1614:	14cca703          	lw	a4,332(s9) # b14c <Next_Ptr_Glob>
    1618:	a7cc0513          	addi	a0,s8,-1412
    161c:	00072583          	lw	a1,0(a4)
    1620:	629000ef          	jal	2448 <printf>
    1624:	0000b537          	lui	a0,0xb
    1628:	b8850513          	addi	a0,a0,-1144 # ab88 <Arr_2_Glob+0x2ac0>
    162c:	61d000ef          	jal	2448 <printf>
    1630:	14cca703          	lw	a4,332(s9)
    1634:	accb8513          	addi	a0,s7,-1332
    1638:	00472583          	lw	a1,4(a4)
    163c:	60d000ef          	jal	2448 <printf>
    1640:	98048513          	addi	a0,s1,-1664
    1644:	00000593          	li	a1,0
    1648:	601000ef          	jal	2448 <printf>
    164c:	14cca703          	lw	a4,332(s9)
    1650:	ae8b0513          	addi	a0,s6,-1304
    1654:	00872583          	lw	a1,8(a4)
    1658:	5f1000ef          	jal	2448 <printf>
    165c:	98048513          	addi	a0,s1,-1664
    1660:	00100593          	li	a1,1
    1664:	5e5000ef          	jal	2448 <printf>
    1668:	14cca703          	lw	a4,332(s9)
    166c:	b04a0513          	addi	a0,s4,-1276
    1670:	00c72583          	lw	a1,12(a4)
    1674:	5d5000ef          	jal	2448 <printf>
    1678:	98048513          	addi	a0,s1,-1664
    167c:	01200593          	li	a1,18
    1680:	5c9000ef          	jal	2448 <printf>
    1684:	14cca583          	lw	a1,332(s9)
    1688:	b2098513          	addi	a0,s3,-1248
    168c:	0000b9b7          	lui	s3,0xb
    1690:	01058593          	addi	a1,a1,16
    1694:	5b5000ef          	jal	2448 <printf>
    1698:	b3c40513          	addi	a0,s0,-1220
    169c:	5ad000ef          	jal	2448 <printf>
    16a0:	00c12783          	lw	a5,12(sp)
    16a4:	0000b537          	lui	a0,0xb
    16a8:	bc850513          	addi	a0,a0,-1080 # abc8 <Arr_2_Glob+0x2b00>
    16ac:	00078593          	mv	a1,a5
    16b0:	599000ef          	jal	2448 <printf>
    16b4:	98048513          	addi	a0,s1,-1664
    16b8:	00500593          	li	a1,5
    16bc:	58d000ef          	jal	2448 <printf>
    16c0:	00412603          	lw	a2,4(sp)
    16c4:	00812683          	lw	a3,8(sp)
    16c8:	0000b537          	lui	a0,0xb
    16cc:	40c90933          	sub	s2,s2,a2
    16d0:	00391593          	slli	a1,s2,0x3
    16d4:	412585b3          	sub	a1,a1,s2
    16d8:	40d585b3          	sub	a1,a1,a3
    16dc:	be450513          	addi	a0,a0,-1052 # abe4 <Arr_2_Glob+0x2b1c>
    16e0:	569000ef          	jal	2448 <printf>
    16e4:	98048513          	addi	a0,s1,-1664
    16e8:	00d00593          	li	a1,13
    16ec:	55d000ef          	jal	2448 <printf>
    16f0:	01812583          	lw	a1,24(sp)
    16f4:	0000b537          	lui	a0,0xb
    16f8:	c0050513          	addi	a0,a0,-1024 # ac00 <Arr_2_Glob+0x2b38>
    16fc:	54d000ef          	jal	2448 <printf>
    1700:	98048513          	addi	a0,s1,-1664
    1704:	00700593          	li	a1,7
    1708:	541000ef          	jal	2448 <printf>
    170c:	01c12583          	lw	a1,28(sp)
    1710:	0000b537          	lui	a0,0xb
    1714:	c1c50513          	addi	a0,a0,-996 # ac1c <Arr_2_Glob+0x2b54>
    1718:	531000ef          	jal	2448 <printf>
    171c:	98048513          	addi	a0,s1,-1664
    1720:	00100593          	li	a1,1
    1724:	525000ef          	jal	2448 <printf>
    1728:	0000b537          	lui	a0,0xb
    172c:	02010593          	addi	a1,sp,32
    1730:	c3850513          	addi	a0,a0,-968 # ac38 <Arr_2_Glob+0x2b70>
    1734:	515000ef          	jal	2448 <printf>
    1738:	0000b537          	lui	a0,0xb
    173c:	c5450513          	addi	a0,a0,-940 # ac54 <Arr_2_Glob+0x2b8c>
    1740:	509000ef          	jal	2448 <printf>
    1744:	0000b537          	lui	a0,0xb
    1748:	04010593          	addi	a1,sp,64
    174c:	c8c50513          	addi	a0,a0,-884 # ac8c <Arr_2_Glob+0x2bc4>
    1750:	4f9000ef          	jal	2448 <printf>
    1754:	0000b537          	lui	a0,0xb
    1758:	ca850513          	addi	a0,a0,-856 # aca8 <Arr_2_Glob+0x2be0>
    175c:	4ed000ef          	jal	2448 <printf>
    1760:	81cd8513          	addi	a0,s11,-2020
    1764:	4e5000ef          	jal	2448 <printf>
    1768:	0000b7b7          	lui	a5,0xb
    176c:	1387a783          	lw	a5,312(a5) # b138 <Begin_Time>
    1770:	134aa503          	lw	a0,308(s5)
    1774:	0000b437          	lui	s0,0xb
    1778:	000064b7          	lui	s1,0x6
    177c:	40f50533          	sub	a0,a0,a5
    1780:	12a42823          	sw	a0,304(s0) # b130 <User_Time>
    1784:	629030ef          	jal	55ac <__floatsisf>
    1788:	9744a583          	lw	a1,-1676(s1) # 5974 <__clzsi2+0x4c>
    178c:	0000b937          	lui	s2,0xb
    1790:	7e4030ef          	jal	4f74 <__divsf3>
    1794:	729030ef          	jal	56bc <__extendsfdf2>
    1798:	00050613          	mv	a2,a0
    179c:	0000b537          	lui	a0,0xb
    17a0:	00058693          	mv	a3,a1
    17a4:	ce050513          	addi	a0,a0,-800 # ace0 <Arr_2_Glob+0x2c18>
    17a8:	4a1000ef          	jal	2448 <printf>
    17ac:	13042503          	lw	a0,304(s0)
    17b0:	5fd030ef          	jal	55ac <__floatsisf>
    17b4:	00050413          	mv	s0,a0
    17b8:	705030ef          	jal	56bc <__extendsfdf2>
    17bc:	000067b7          	lui	a5,0x6
    17c0:	9887a603          	lw	a2,-1656(a5) # 5988 <__clzsi2+0x60>
    17c4:	98c7a683          	lw	a3,-1652(a5)
    17c8:	075020ef          	jal	403c <__muldf3>
    17cc:	000067b7          	lui	a5,0x6
    17d0:	9907a603          	lw	a2,-1648(a5) # 5990 <__clzsi2+0x68>
    17d4:	9947a683          	lw	a3,-1644(a5)
    17d8:	0d8020ef          	jal	38b0 <__divdf3>
    17dc:	7cd030ef          	jal	57a8 <__truncdfsf2>
    17e0:	00006737          	lui	a4,0x6
    17e4:	00050793          	mv	a5,a0
    17e8:	97872503          	lw	a0,-1672(a4) # 5978 <__clzsi2+0x50>
    17ec:	00040593          	mv	a1,s0
    17f0:	12f9a623          	sw	a5,300(s3) # b12c <Microseconds>
    17f4:	780030ef          	jal	4f74 <__divsf3>
    17f8:	000067b7          	lui	a5,0x6
    17fc:	97c7a583          	lw	a1,-1668(a5) # 597c <__clzsi2+0x54>
    1800:	12a92423          	sw	a0,296(s2) # b128 <Dhrystones_Per_Second>
    1804:	0000b437          	lui	s0,0xb
    1808:	76c030ef          	jal	4f74 <__divsf3>
    180c:	00050793          	mv	a5,a0
    1810:	0000b537          	lui	a0,0xb
    1814:	cfc50513          	addi	a0,a0,-772 # acfc <Arr_2_Glob+0x2c34>
    1818:	12f42223          	sw	a5,292(s0) # b124 <Vax_Mips>
    181c:	42d000ef          	jal	2448 <printf>
    1820:	12c9a503          	lw	a0,300(s3)
    1824:	699030ef          	jal	56bc <__extendsfdf2>
    1828:	00050613          	mv	a2,a0
    182c:	0000b537          	lui	a0,0xb
    1830:	00058693          	mv	a3,a1
    1834:	d2c50513          	addi	a0,a0,-724 # ad2c <Arr_2_Glob+0x2c64>
    1838:	411000ef          	jal	2448 <printf>
    183c:	0000b537          	lui	a0,0xb
    1840:	d3450513          	addi	a0,a0,-716 # ad34 <Arr_2_Glob+0x2c6c>
    1844:	405000ef          	jal	2448 <printf>
    1848:	12892503          	lw	a0,296(s2)
    184c:	0000b937          	lui	s2,0xb
    1850:	66d030ef          	jal	56bc <__extendsfdf2>
    1854:	00050613          	mv	a2,a0
    1858:	00058693          	mv	a3,a1
    185c:	d6490513          	addi	a0,s2,-668 # ad64 <Arr_2_Glob+0x2c9c>
    1860:	3e9000ef          	jal	2448 <printf>
    1864:	0000b537          	lui	a0,0xb
    1868:	d6c50513          	addi	a0,a0,-660 # ad6c <Arr_2_Glob+0x2ca4>
    186c:	3dd000ef          	jal	2448 <printf>
    1870:	12442503          	lw	a0,292(s0)
    1874:	649030ef          	jal	56bc <__extendsfdf2>
    1878:	00050613          	mv	a2,a0
    187c:	00058693          	mv	a3,a1
    1880:	d6490513          	addi	a0,s2,-668
    1884:	3c5000ef          	jal	2448 <printf>
    1888:	0000b537          	lui	a0,0xb
    188c:	d9c50513          	addi	a0,a0,-612 # ad9c <Arr_2_Glob+0x2cd4>
    1890:	3b9000ef          	jal	2448 <printf>
    1894:	9744a583          	lw	a1,-1676(s1)
    1898:	12442503          	lw	a0,292(s0)
    189c:	1f5030ef          	jal	5290 <__mulsf3>
    18a0:	000067b7          	lui	a5,0x6
    18a4:	9807a583          	lw	a1,-1664(a5) # 5980 <__clzsi2+0x58>
    18a8:	6cc030ef          	jal	4f74 <__divsf3>
    18ac:	611030ef          	jal	56bc <__extendsfdf2>
    18b0:	00050613          	mv	a2,a0
    18b4:	0000b537          	lui	a0,0xb
    18b8:	00058693          	mv	a3,a1
    18bc:	dcc50513          	addi	a0,a0,-564 # adcc <Arr_2_Glob+0x2d04>
    18c0:	389000ef          	jal	2448 <printf>
    18c4:	09c12083          	lw	ra,156(sp)
    18c8:	09812403          	lw	s0,152(sp)
    18cc:	09412483          	lw	s1,148(sp)
    18d0:	09012903          	lw	s2,144(sp)
    18d4:	08c12983          	lw	s3,140(sp)
    18d8:	08812a03          	lw	s4,136(sp)
    18dc:	08412a83          	lw	s5,132(sp)
    18e0:	08012b03          	lw	s6,128(sp)
    18e4:	07c12b83          	lw	s7,124(sp)
    18e8:	07812c03          	lw	s8,120(sp)
    18ec:	07412c83          	lw	s9,116(sp)
    18f0:	07012d03          	lw	s10,112(sp)
    18f4:	06c12d83          	lw	s11,108(sp)
    18f8:	00000513          	li	a0,0
    18fc:	0a010113          	addi	sp,sp,160
    1900:	00008067          	ret
    1904:	00900913          	li	s2,9
    1908:	b21ff06f          	j	1428 <main+0x20c>
    190c:	0000b537          	lui	a0,0xb
    1910:	87c50513          	addi	a0,a0,-1924 # a87c <Arr_2_Glob+0x27b4>
    1914:	335000ef          	jal	2448 <printf>
    1918:	0000b7b7          	lui	a5,0xb
    191c:	81c78513          	addi	a0,a5,-2020 # a81c <Arr_2_Glob+0x2754>
    1920:	329000ef          	jal	2448 <printf>
    1924:	9e1ff06f          	j	1304 <main+0xe8>

00001928 <Proc_6>:
    1928:	00200793          	li	a5,2
    192c:	02f50e63          	beq	a0,a5,1968 <Proc_6+0x40>
    1930:	00300713          	li	a4,3
    1934:	00e5a023          	sw	a4,0(a1)
    1938:	00100713          	li	a4,1
    193c:	00e50a63          	beq	a0,a4,1950 <Proc_6+0x28>
    1940:	00400713          	li	a4,4
    1944:	02e50863          	beq	a0,a4,1974 <Proc_6+0x4c>
    1948:	00050c63          	beqz	a0,1960 <Proc_6+0x38>
    194c:	00008067          	ret
    1950:	0000b7b7          	lui	a5,0xb
    1954:	1487a703          	lw	a4,328(a5) # b148 <Int_Glob>
    1958:	06400793          	li	a5,100
    195c:	fee7d8e3          	bge	a5,a4,194c <Proc_6+0x24>
    1960:	0005a023          	sw	zero,0(a1)
    1964:	00008067          	ret
    1968:	00100793          	li	a5,1
    196c:	00f5a023          	sw	a5,0(a1)
    1970:	00008067          	ret
    1974:	00f5a023          	sw	a5,0(a1)
    1978:	00008067          	ret

0000197c <Proc_7>:
    197c:	00250513          	addi	a0,a0,2
    1980:	00b50533          	add	a0,a0,a1
    1984:	00a62023          	sw	a0,0(a2)
    1988:	00008067          	ret

0000198c <Proc_8>:
    198c:	00560713          	addi	a4,a2,5
    1990:	0c800813          	li	a6,200
    1994:	03070833          	mul	a6,a4,a6
    1998:	00271793          	slli	a5,a4,0x2
    199c:	00261613          	slli	a2,a2,0x2
    19a0:	00f50533          	add	a0,a0,a5
    19a4:	06e52c23          	sw	a4,120(a0)
    19a8:	00d52023          	sw	a3,0(a0)
    19ac:	00d52223          	sw	a3,4(a0)
    19b0:	00c807b3          	add	a5,a6,a2
    19b4:	00f587b3          	add	a5,a1,a5
    19b8:	0107a683          	lw	a3,16(a5)
    19bc:	00e7aa23          	sw	a4,20(a5)
    19c0:	00e7ac23          	sw	a4,24(a5)
    19c4:	00168713          	addi	a4,a3,1
    19c8:	00e7a823          	sw	a4,16(a5)
    19cc:	00052503          	lw	a0,0(a0)
    19d0:	010585b3          	add	a1,a1,a6
    19d4:	00c585b3          	add	a1,a1,a2
    19d8:	000017b7          	lui	a5,0x1
    19dc:	00b787b3          	add	a5,a5,a1
    19e0:	0000b737          	lui	a4,0xb
    19e4:	00500693          	li	a3,5
    19e8:	faa7aa23          	sw	a0,-76(a5) # fb4 <__stack_size+0x7b4>
    19ec:	14d72423          	sw	a3,328(a4) # b148 <Int_Glob>
    19f0:	00008067          	ret

000019f4 <Func_1>:
    19f4:	0ff57513          	zext.b	a0,a0
    19f8:	0ff5f593          	zext.b	a1,a1
    19fc:	00b50663          	beq	a0,a1,1a08 <Func_1+0x14>
    1a00:	00000513          	li	a0,0
    1a04:	00008067          	ret
    1a08:	0000b7b7          	lui	a5,0xb
    1a0c:	14a780a3          	sb	a0,321(a5) # b141 <Ch_1_Glob>
    1a10:	00100513          	li	a0,1
    1a14:	00008067          	ret

00001a18 <Func_2>:
    1a18:	ff010113          	addi	sp,sp,-16
    1a1c:	00112623          	sw	ra,12(sp)
    1a20:	00254703          	lbu	a4,2(a0)
    1a24:	0035c783          	lbu	a5,3(a1)
    1a28:	00f70063          	beq	a4,a5,1a28 <Func_2+0x10>
    1a2c:	118010ef          	jal	2b44 <strcmp>
    1a30:	00000793          	li	a5,0
    1a34:	00a05a63          	blez	a0,1a48 <Func_2+0x30>
    1a38:	0000b7b7          	lui	a5,0xb
    1a3c:	00a00713          	li	a4,10
    1a40:	14e7a423          	sw	a4,328(a5) # b148 <Int_Glob>
    1a44:	00100793          	li	a5,1
    1a48:	00c12083          	lw	ra,12(sp)
    1a4c:	00078513          	mv	a0,a5
    1a50:	01010113          	addi	sp,sp,16
    1a54:	00008067          	ret

00001a58 <Func_3>:
    1a58:	ffe50513          	addi	a0,a0,-2
    1a5c:	00153513          	seqz	a0,a0
    1a60:	00008067          	ret

00001a64 <crt0>:
    1a64:	ff010113          	addi	sp,sp,-16
    1a68:	00112623          	sw	ra,12(sp)
    1a6c:	0000b2b7          	lui	t0,0xb
    1a70:	1422aa23          	sw	sp,340(t0) # b154 <sp_store>
    1a74:	0000b2b7          	lui	t0,0xb
    1a78:	0f82a103          	lw	sp,248(t0) # b0f8 <stack_top>
    1a7c:	fa0ff0ef          	jal	121c <main>
    1a80:	0000b2b7          	lui	t0,0xb
    1a84:	1542a103          	lw	sp,340(t0) # b154 <sp_store>
    1a88:	00c12083          	lw	ra,12(sp)
    1a8c:	01010113          	addi	sp,sp,16
    1a90:	00008067          	ret

00001a94 <getchar>:
    1a94:	ff010113          	addi	sp,sp,-16
    1a98:	00112623          	sw	ra,12(sp)
    1a9c:	1f8010ef          	jal	2c94 <inbyte>
    1aa0:	00c12083          	lw	ra,12(sp)
    1aa4:	01010113          	addi	sp,sp,16
    1aa8:	00008067          	ret

00001aac <putchar>:
    1aac:	ff010113          	addi	sp,sp,-16
    1ab0:	00812423          	sw	s0,8(sp)
    1ab4:	00050413          	mv	s0,a0
    1ab8:	0ff57513          	zext.b	a0,a0
    1abc:	00112623          	sw	ra,12(sp)
    1ac0:	1f8010ef          	jal	2cb8 <outbyte>
    1ac4:	00c12083          	lw	ra,12(sp)
    1ac8:	00040513          	mv	a0,s0
    1acc:	00812403          	lw	s0,8(sp)
    1ad0:	01010113          	addi	sp,sp,16
    1ad4:	00008067          	ret

00001ad8 <fputs>:
    1ad8:	0000b7b7          	lui	a5,0xb
    1adc:	1007a783          	lw	a5,256(a5) # b100 <stdout>
    1ae0:	ff010113          	addi	sp,sp,-16
    1ae4:	00112623          	sw	ra,12(sp)
    1ae8:	00812423          	sw	s0,8(sp)
    1aec:	04b78263          	beq	a5,a1,1b30 <fputs+0x58>
    1af0:	0000b437          	lui	s0,0xb
    1af4:	dd440413          	addi	s0,s0,-556 # add4 <Arr_2_Glob+0x2d0c>
    1af8:	00a00513          	li	a0,10
    1afc:	00140413          	addi	s0,s0,1
    1b00:	1b8010ef          	jal	2cb8 <outbyte>
    1b04:	00044503          	lbu	a0,0(s0)
    1b08:	fe051ae3          	bnez	a0,1afc <fputs+0x24>
    1b0c:	00a00513          	li	a0,10
    1b10:	1a8010ef          	jal	2cb8 <outbyte>
    1b14:	00a00513          	li	a0,10
    1b18:	1a0010ef          	jal	2cb8 <outbyte>
    1b1c:	00c12083          	lw	ra,12(sp)
    1b20:	00812403          	lw	s0,8(sp)
    1b24:	00a00513          	li	a0,10
    1b28:	01010113          	addi	sp,sp,16
    1b2c:	00008067          	ret
    1b30:	00050413          	mv	s0,a0
    1b34:	00054503          	lbu	a0,0(a0)
    1b38:	fc050ee3          	beqz	a0,1b14 <fputs+0x3c>
    1b3c:	00140413          	addi	s0,s0,1
    1b40:	178010ef          	jal	2cb8 <outbyte>
    1b44:	00044503          	lbu	a0,0(s0)
    1b48:	fe051ae3          	bnez	a0,1b3c <fputs+0x64>
    1b4c:	00a00513          	li	a0,10
    1b50:	168010ef          	jal	2cb8 <outbyte>
    1b54:	00c12083          	lw	ra,12(sp)
    1b58:	00812403          	lw	s0,8(sp)
    1b5c:	00a00513          	li	a0,10
    1b60:	01010113          	addi	sp,sp,16
    1b64:	00008067          	ret

00001b68 <fgets>:
    1b68:	0000b7b7          	lui	a5,0xb
    1b6c:	1047a783          	lw	a5,260(a5) # b104 <stdin>
    1b70:	fe010113          	addi	sp,sp,-32
    1b74:	00112e23          	sw	ra,28(sp)
    1b78:	00812c23          	sw	s0,24(sp)
    1b7c:	06c79e63          	bne	a5,a2,1bf8 <fgets+0x90>
    1b80:	00912a23          	sw	s1,20(sp)
    1b84:	01212823          	sw	s2,16(sp)
    1b88:	01312623          	sw	s3,12(sp)
    1b8c:	01412423          	sw	s4,8(sp)
    1b90:	00050493          	mv	s1,a0
    1b94:	00050413          	mv	s0,a0
    1b98:	00a00913          	li	s2,10
    1b9c:	00d00993          	li	s3,13
    1ba0:	00b50a33          	add	s4,a0,a1
    1ba4:	00059c63          	bnez	a1,1bbc <fgets+0x54>
    1ba8:	0200006f          	j	1bc8 <fgets+0x60>
    1bac:	01350e63          	beq	a0,s3,1bc8 <fgets+0x60>
    1bb0:	00140413          	addi	s0,s0,1
    1bb4:	104010ef          	jal	2cb8 <outbyte>
    1bb8:	01440863          	beq	s0,s4,1bc8 <fgets+0x60>
    1bbc:	0d8010ef          	jal	2c94 <inbyte>
    1bc0:	00a40023          	sb	a0,0(s0)
    1bc4:	ff2514e3          	bne	a0,s2,1bac <fgets+0x44>
    1bc8:	00a00513          	li	a0,10
    1bcc:	0ec010ef          	jal	2cb8 <outbyte>
    1bd0:	00040023          	sb	zero,0(s0)
    1bd4:	01c12083          	lw	ra,28(sp)
    1bd8:	01812403          	lw	s0,24(sp)
    1bdc:	01012903          	lw	s2,16(sp)
    1be0:	00c12983          	lw	s3,12(sp)
    1be4:	00812a03          	lw	s4,8(sp)
    1be8:	00048513          	mv	a0,s1
    1bec:	01412483          	lw	s1,20(sp)
    1bf0:	02010113          	addi	sp,sp,32
    1bf4:	00008067          	ret
    1bf8:	0000b437          	lui	s0,0xb
    1bfc:	e0040413          	addi	s0,s0,-512 # ae00 <Arr_2_Glob+0x2d38>
    1c00:	00a00513          	li	a0,10
    1c04:	00140413          	addi	s0,s0,1
    1c08:	0b0010ef          	jal	2cb8 <outbyte>
    1c0c:	00044503          	lbu	a0,0(s0)
    1c10:	fe051ae3          	bnez	a0,1c04 <fgets+0x9c>
    1c14:	00a00513          	li	a0,10
    1c18:	0a0010ef          	jal	2cb8 <outbyte>
    1c1c:	01c12083          	lw	ra,28(sp)
    1c20:	01812403          	lw	s0,24(sp)
    1c24:	00000513          	li	a0,0
    1c28:	02010113          	addi	sp,sp,32
    1c2c:	00008067          	ret

00001c30 <putd>:
    1c30:	fd010113          	addi	sp,sp,-48
    1c34:	00d03733          	snez	a4,a3
    1c38:	3b9ad7b7          	lui	a5,0x3b9ad
    1c3c:	ccccd8b7          	lui	a7,0xccccd
    1c40:	03212023          	sw	s2,32(sp)
    1c44:	02112623          	sw	ra,44(sp)
    1c48:	02812423          	sw	s0,40(sp)
    1c4c:	02912223          	sw	s1,36(sp)
    1c50:	01312e23          	sw	s3,28(sp)
    1c54:	00068913          	mv	s2,a3
    1c58:	40e585b3          	sub	a1,a1,a4
    1c5c:	a0078793          	addi	a5,a5,-1536 # 3b9aca00 <__stack_top+0x3b99f0a0>
    1c60:	ccd88893          	addi	a7,a7,-819 # cccccccd <__stack_top+0xcccbf36d>
    1c64:	00a00813          	li	a6,10
    1c68:	0317b6b3          	mulhu	a3,a5,a7
    1c6c:	00078713          	mv	a4,a5
    1c70:	0036d793          	srli	a5,a3,0x3
    1c74:	04e56e63          	bltu	a0,a4,1cd0 <putd+0xa0>
    1c78:	ccccdf37          	lui	t5,0xccccd
    1c7c:	ccdf0f13          	addi	t5,t5,-819 # cccccccd <__stack_top+0xcccbf36d>
    1c80:	00000413          	li	s0,0
    1c84:	00050e13          	mv	t3,a0
    1c88:	02e57533          	remu	a0,a0,a4
    1c8c:	00070313          	mv	t1,a4
    1c90:	00040893          	mv	a7,s0
    1c94:	00288eb3          	add	t4,a7,sp
    1c98:	00140413          	addi	s0,s0,1
    1c9c:	fff80813          	addi	a6,a6,-1
    1ca0:	00078713          	mv	a4,a5
    1ca4:	00040893          	mv	a7,s0
    1ca8:	026e56b3          	divu	a3,t3,t1
    1cac:	00078313          	mv	t1,a5
    1cb0:	00050e13          	mv	t3,a0
    1cb4:	03068693          	addi	a3,a3,48
    1cb8:	00de8023          	sb	a3,0(t4)
    1cbc:	08080663          	beqz	a6,1d48 <putd+0x118>
    1cc0:	03e7b7b3          	mulhu	a5,a5,t5
    1cc4:	0037d793          	srli	a5,a5,0x3
    1cc8:	fae57ee3          	bgeu	a0,a4,1c84 <putd+0x54>
    1ccc:	fc9ff06f          	j	1c94 <putd+0x64>
    1cd0:	fff80813          	addi	a6,a6,-1
    1cd4:	f8081ae3          	bnez	a6,1c68 <putd+0x38>
    1cd8:	00100993          	li	s3,1
    1cdc:	03000793          	li	a5,48
    1ce0:	00098413          	mv	s0,s3
    1ce4:	00f10023          	sb	a5,0(sp)
    1ce8:	002407b3          	add	a5,s0,sp
    1cec:	00078023          	sb	zero,0(a5)
    1cf0:	fff58493          	addi	s1,a1,-1
    1cf4:	06060863          	beqz	a2,1d64 <putd+0x134>
    1cf8:	0a091263          	bnez	s2,1d9c <putd+0x16c>
    1cfc:	fff40913          	addi	s2,s0,-1
    1d00:	0084ca63          	blt	s1,s0,1d14 <putd+0xe4>
    1d04:	03000513          	li	a0,48
    1d08:	fff48493          	addi	s1,s1,-1
    1d0c:	7ad000ef          	jal	2cb8 <outbyte>
    1d10:	fe991ae3          	bne	s2,s1,1d04 <putd+0xd4>
    1d14:	00010413          	mv	s0,sp
    1d18:	002989b3          	add	s3,s3,sp
    1d1c:	00044503          	lbu	a0,0(s0)
    1d20:	00140413          	addi	s0,s0,1
    1d24:	795000ef          	jal	2cb8 <outbyte>
    1d28:	ff341ae3          	bne	s0,s3,1d1c <putd+0xec>
    1d2c:	02c12083          	lw	ra,44(sp)
    1d30:	02812403          	lw	s0,40(sp)
    1d34:	02412483          	lw	s1,36(sp)
    1d38:	02012903          	lw	s2,32(sp)
    1d3c:	01c12983          	lw	s3,28(sp)
    1d40:	03010113          	addi	sp,sp,48
    1d44:	00008067          	ret
    1d48:	00014783          	lbu	a5,0(sp)
    1d4c:	00040993          	mv	s3,s0
    1d50:	fff58493          	addi	s1,a1,-1
    1d54:	00f10023          	sb	a5,0(sp)
    1d58:	002407b3          	add	a5,s0,sp
    1d5c:	00078023          	sb	zero,0(a5)
    1d60:	f8061ce3          	bnez	a2,1cf8 <putd+0xc8>
    1d64:	01412c23          	sw	s4,24(sp)
    1d68:	fff40a13          	addi	s4,s0,-1
    1d6c:	0084ca63          	blt	s1,s0,1d80 <putd+0x150>
    1d70:	02000513          	li	a0,32
    1d74:	fff48493          	addi	s1,s1,-1
    1d78:	741000ef          	jal	2cb8 <outbyte>
    1d7c:	ff449ae3          	bne	s1,s4,1d70 <putd+0x140>
    1d80:	00091663          	bnez	s2,1d8c <putd+0x15c>
    1d84:	01812a03          	lw	s4,24(sp)
    1d88:	f8dff06f          	j	1d14 <putd+0xe4>
    1d8c:	02d00513          	li	a0,45
    1d90:	729000ef          	jal	2cb8 <outbyte>
    1d94:	01812a03          	lw	s4,24(sp)
    1d98:	f7dff06f          	j	1d14 <putd+0xe4>
    1d9c:	02d00513          	li	a0,45
    1da0:	719000ef          	jal	2cb8 <outbyte>
    1da4:	fff40913          	addi	s2,s0,-1
    1da8:	f484dee3          	bge	s1,s0,1d04 <putd+0xd4>
    1dac:	f69ff06f          	j	1d14 <putd+0xe4>

00001db0 <putx>:
    1db0:	01f6d793          	srli	a5,a3,0x1f
    1db4:	00f688b3          	add	a7,a3,a5
    1db8:	0018f893          	andi	a7,a7,1
    1dbc:	fd010113          	addi	sp,sp,-48
    1dc0:	40f888b3          	sub	a7,a7,a5
    1dc4:	0000b737          	lui	a4,0xb
    1dc8:	0000b7b7          	lui	a5,0xb
    1dcc:	e4078793          	addi	a5,a5,-448 # ae40 <Arr_2_Glob+0x2d78>
    1dd0:	00289893          	slli	a7,a7,0x2
    1dd4:	00c10693          	addi	a3,sp,12
    1dd8:	e2c70713          	addi	a4,a4,-468 # ae2c <Arr_2_Glob+0x2d64>
    1ddc:	02812423          	sw	s0,40(sp)
    1de0:	00f12823          	sw	a5,16(sp)
    1de4:	02112623          	sw	ra,44(sp)
    1de8:	02912223          	sw	s1,36(sp)
    1dec:	00d888b3          	add	a7,a7,a3
    1df0:	00e12623          	sw	a4,12(sp)
    1df4:	01c00793          	li	a5,28
    1df8:	00000413          	li	s0,0
    1dfc:	00100313          	li	t1,1
    1e00:	02000e93          	li	t4,32
    1e04:	ffc00e13          	li	t3,-4
    1e08:	02c0006f          	j	1e34 <putx+0x84>
    1e0c:	00040713          	mv	a4,s0
    1e10:	0c031063          	bnez	t1,1ed0 <putx+0x120>
    1e14:	0008a683          	lw	a3,0(a7)
    1e18:	00270733          	add	a4,a4,sp
    1e1c:	ffc78793          	addi	a5,a5,-4
    1e20:	010686b3          	add	a3,a3,a6
    1e24:	0006c683          	lbu	a3,0(a3)
    1e28:	00140413          	addi	s0,s0,1
    1e2c:	00d70a23          	sb	a3,20(a4)
    1e30:	05c78063          	beq	a5,t3,1e70 <putx+0xc0>
    1e34:	00f55833          	srl	a6,a0,a5
    1e38:	fc080ae3          	beqz	a6,1e0c <putx+0x5c>
    1e3c:	40fe8733          	sub	a4,t4,a5
    1e40:	00e51533          	sll	a0,a0,a4
    1e44:	00e55533          	srl	a0,a0,a4
    1e48:	00000313          	li	t1,0
    1e4c:	00040713          	mv	a4,s0
    1e50:	0008a683          	lw	a3,0(a7)
    1e54:	00270733          	add	a4,a4,sp
    1e58:	ffc78793          	addi	a5,a5,-4
    1e5c:	010686b3          	add	a3,a3,a6
    1e60:	0006c683          	lbu	a3,0(a3)
    1e64:	00140413          	addi	s0,s0,1
    1e68:	00d70a23          	sb	a3,20(a4)
    1e6c:	fdc794e3          	bne	a5,t3,1e34 <putx+0x84>
    1e70:	002407b3          	add	a5,s0,sp
    1e74:	fff58493          	addi	s1,a1,-1
    1e78:	00078a23          	sb	zero,20(a5)
    1e7c:	0284c463          	blt	s1,s0,1ea4 <putx+0xf4>
    1e80:	03212023          	sw	s2,32(sp)
    1e84:	fff40913          	addi	s2,s0,-1
    1e88:	06060c63          	beqz	a2,1f00 <putx+0x150>
    1e8c:	03000513          	li	a0,48
    1e90:	fff48493          	addi	s1,s1,-1
    1e94:	625000ef          	jal	2cb8 <outbyte>
    1e98:	fe991ae3          	bne	s2,s1,1e8c <putx+0xdc>
    1e9c:	02012903          	lw	s2,32(sp)
    1ea0:	00040e63          	beqz	s0,1ebc <putx+0x10c>
    1ea4:	01410493          	addi	s1,sp,20
    1ea8:	00940433          	add	s0,s0,s1
    1eac:	0004c503          	lbu	a0,0(s1)
    1eb0:	00148493          	addi	s1,s1,1
    1eb4:	605000ef          	jal	2cb8 <outbyte>
    1eb8:	fe941ae3          	bne	s0,s1,1eac <putx+0xfc>
    1ebc:	02c12083          	lw	ra,44(sp)
    1ec0:	02812403          	lw	s0,40(sp)
    1ec4:	02412483          	lw	s1,36(sp)
    1ec8:	03010113          	addi	sp,sp,48
    1ecc:	00008067          	ret
    1ed0:	f40612e3          	bnez	a2,1e14 <putx+0x64>
    1ed4:	ffc00713          	li	a4,-4
    1ed8:	ffc78793          	addi	a5,a5,-4
    1edc:	00f55833          	srl	a6,a0,a5
    1ee0:	04e78263          	beq	a5,a4,1f24 <putx+0x174>
    1ee4:	fe080ae3          	beqz	a6,1ed8 <putx+0x128>
    1ee8:	40fe8733          	sub	a4,t4,a5
    1eec:	00e51533          	sll	a0,a0,a4
    1ef0:	00e55533          	srl	a0,a0,a4
    1ef4:	00000313          	li	t1,0
    1ef8:	00040713          	mv	a4,s0
    1efc:	f55ff06f          	j	1e50 <putx+0xa0>
    1f00:	02000513          	li	a0,32
    1f04:	fff48493          	addi	s1,s1,-1
    1f08:	5b1000ef          	jal	2cb8 <outbyte>
    1f0c:	f89908e3          	beq	s2,s1,1e9c <putx+0xec>
    1f10:	02000513          	li	a0,32
    1f14:	fff48493          	addi	s1,s1,-1
    1f18:	5a1000ef          	jal	2cb8 <outbyte>
    1f1c:	fe9912e3          	bne	s2,s1,1f00 <putx+0x150>
    1f20:	f7dff06f          	j	1e9c <putx+0xec>
    1f24:	002407b3          	add	a5,s0,sp
    1f28:	fff58493          	addi	s1,a1,-1
    1f2c:	00078a23          	sb	zero,20(a5)
    1f30:	f484d8e3          	bge	s1,s0,1e80 <putx+0xd0>
    1f34:	f6dff06f          	j	1ea0 <putx+0xf0>

00001f38 <putld>:
    1f38:	f9010113          	addi	sp,sp,-112
    1f3c:	05312e23          	sw	s3,92(sp)
    1f40:	05712623          	sw	s7,76(sp)
    1f44:	06112623          	sw	ra,108(sp)
    1f48:	06812423          	sw	s0,104(sp)
    1f4c:	06912223          	sw	s1,100(sp)
    1f50:	07212023          	sw	s2,96(sp)
    1f54:	05412c23          	sw	s4,88(sp)
    1f58:	05512a23          	sw	s5,84(sp)
    1f5c:	05612823          	sw	s6,80(sp)
    1f60:	05812423          	sw	s8,72(sp)
    1f64:	05912223          	sw	s9,68(sp)
    1f68:	05a12023          	sw	s10,64(sp)
    1f6c:	03b12e23          	sw	s11,60(sp)
    1f70:	00e12223          	sw	a4,4(sp)
    1f74:	00c12423          	sw	a2,8(sp)
    1f78:	00d12623          	sw	a3,12(sp)
    1f7c:	00050b93          	mv	s7,a0
    1f80:	00058993          	mv	s3,a1
    1f84:	22071a63          	bnez	a4,21b8 <__heap_size+0x1b8>
    1f88:	2805c463          	bltz	a1,2210 <__heap_size+0x210>
    1f8c:	ccccdd37          	lui	s10,0xccccd
    1f90:	000d0c93          	mv	s9,s10
    1f94:	016346b7          	lui	a3,0x1634
    1f98:	57868a13          	addi	s4,a3,1400 # 1634578 <__stack_top+0x1626c18>
    1f9c:	ccdd0d13          	addi	s10,s10,-819 # cccccccd <__stack_top+0xcccbf36d>
    1fa0:	cccc8c93          	addi	s9,s9,-820
    1fa4:	000b8493          	mv	s1,s7
    1fa8:	00098913          	mv	s2,s3
    1fac:	01200a93          	li	s5,18
    1fb0:	5d8a0437          	lui	s0,0x5d8a0
    1fb4:	00040613          	mv	a2,s0
    1fb8:	000a0693          	mv	a3,s4
    1fbc:	000b8513          	mv	a0,s7
    1fc0:	00098593          	mv	a1,s3
    1fc4:	541000ef          	jal	2d04 <__udivdi3>
    1fc8:	014407b3          	add	a5,s0,s4
    1fcc:	0087b733          	sltu	a4,a5,s0
    1fd0:	00e787b3          	add	a5,a5,a4
    1fd4:	03a7b733          	mulhu	a4,a5,s10
    1fd8:	00040b13          	mv	s6,s0
    1fdc:	000a0c13          	mv	s8,s4
    1fe0:	00050813          	mv	a6,a0
    1fe4:	00275693          	srli	a3,a4,0x2
    1fe8:	ffc77713          	andi	a4,a4,-4
    1fec:	00d70733          	add	a4,a4,a3
    1ff0:	40e787b3          	sub	a5,a5,a4
    1ff4:	40f407b3          	sub	a5,s0,a5
    1ff8:	00f436b3          	sltu	a3,s0,a5
    1ffc:	40da06b3          	sub	a3,s4,a3
    2000:	03978633          	mul	a2,a5,s9
    2004:	03a686b3          	mul	a3,a3,s10
    2008:	03a7b733          	mulhu	a4,a5,s10
    200c:	00c686b3          	add	a3,a3,a2
    2010:	03a787b3          	mul	a5,a5,s10
    2014:	00e686b3          	add	a3,a3,a4
    2018:	01f69613          	slli	a2,a3,0x1f
    201c:	0016da13          	srli	s4,a3,0x1
    2020:	0017d793          	srli	a5,a5,0x1
    2024:	00f66433          	or	s0,a2,a5
    2028:	0e050663          	beqz	a0,2114 <__heap_size+0x114>
    202c:	ccccddb7          	lui	s11,0xccccd
    2030:	000d8993          	mv	s3,s11
    2034:	ccc98993          	addi	s3,s3,-820
    2038:	ccdd8d93          	addi	s11,s11,-819 # cccccccd <__stack_top+0xcccbf36d>
    203c:	00000d13          	li	s10,0
    2040:	030c0bb3          	mul	s7,s8,a6
    2044:	000d0313          	mv	t1,s10
    2048:	000a0c13          	mv	s8,s4
    204c:	036837b3          	mulhu	a5,a6,s6
    2050:	03680cb3          	mul	s9,a6,s6
    2054:	00fb8bb3          	add	s7,s7,a5
    2058:	41790bb3          	sub	s7,s2,s7
    205c:	00040b13          	mv	s6,s0
    2060:	41948cb3          	sub	s9,s1,s9
    2064:	0194b4b3          	sltu	s1,s1,s9
    2068:	409b8bb3          	sub	s7,s7,s1
    206c:	000b8913          	mv	s2,s7
    2070:	000c8493          	mv	s1,s9
    2074:	00230333          	add	t1,t1,sp
    2078:	03080813          	addi	a6,a6,48
    207c:	01030c23          	sb	a6,24(t1)
    2080:	fffa8a93          	addi	s5,s5,-1
    2084:	000b0613          	mv	a2,s6
    2088:	000c0693          	mv	a3,s8
    208c:	000c8513          	mv	a0,s9
    2090:	000b8593          	mv	a1,s7
    2094:	001d0d13          	addi	s10,s10,1
    2098:	120a8463          	beqz	s5,21c0 <__heap_size+0x1c0>
    209c:	469000ef          	jal	2d04 <__udivdi3>
    20a0:	018b07b3          	add	a5,s6,s8
    20a4:	0167b733          	sltu	a4,a5,s6
    20a8:	00e787b3          	add	a5,a5,a4
    20ac:	03b7b733          	mulhu	a4,a5,s11
    20b0:	00050813          	mv	a6,a0
    20b4:	000d0313          	mv	t1,s10
    20b8:	00275693          	srli	a3,a4,0x2
    20bc:	ffc77713          	andi	a4,a4,-4
    20c0:	00d70733          	add	a4,a4,a3
    20c4:	40e787b3          	sub	a5,a5,a4
    20c8:	40fb07b3          	sub	a5,s6,a5
    20cc:	00fb3733          	sltu	a4,s6,a5
    20d0:	40ec0733          	sub	a4,s8,a4
    20d4:	03378633          	mul	a2,a5,s3
    20d8:	03b70733          	mul	a4,a4,s11
    20dc:	03b7b6b3          	mulhu	a3,a5,s11
    20e0:	00c70733          	add	a4,a4,a2
    20e4:	03b787b3          	mul	a5,a5,s11
    20e8:	00d70733          	add	a4,a4,a3
    20ec:	01f71613          	slli	a2,a4,0x1f
    20f0:	00175713          	srli	a4,a4,0x1
    20f4:	00070a13          	mv	s4,a4
    20f8:	0017d793          	srli	a5,a5,0x1
    20fc:	00f667b3          	or	a5,a2,a5
    2100:	00078413          	mv	s0,a5
    2104:	f2051ee3          	bnez	a0,2040 <__heap_size+0x40>
    2108:	00078b13          	mv	s6,a5
    210c:	00070c13          	mv	s8,a4
    2110:	f65ff06f          	j	2074 <__heap_size+0x74>
    2114:	fffa8a93          	addi	s5,s5,-1
    2118:	e80a9ee3          	bnez	s5,1fb4 <putld+0x7c>
    211c:	00100493          	li	s1,1
    2120:	03000793          	li	a5,48
    2124:	00048d13          	mv	s10,s1
    2128:	00f10c23          	sb	a5,24(sp)
    212c:	002d07b3          	add	a5,s10,sp
    2130:	00078c23          	sb	zero,24(a5)
    2134:	00812783          	lw	a5,8(sp)
    2138:	fff78413          	addi	s0,a5,-1
    213c:	00c12783          	lw	a5,12(sp)
    2140:	0a078263          	beqz	a5,21e4 <__heap_size+0x1e4>
    2144:	00412783          	lw	a5,4(sp)
    2148:	0e079663          	bnez	a5,2234 <__heap_size+0x234>
    214c:	fffd0913          	addi	s2,s10,-1
    2150:	01a44a63          	blt	s0,s10,2164 <__heap_size+0x164>
    2154:	03000513          	li	a0,48
    2158:	fff40413          	addi	s0,s0,-1 # 5d89ffff <__stack_top+0x5d89269f>
    215c:	35d000ef          	jal	2cb8 <outbyte>
    2160:	ff241ae3          	bne	s0,s2,2154 <__heap_size+0x154>
    2164:	01810413          	addi	s0,sp,24
    2168:	009404b3          	add	s1,s0,s1
    216c:	00044503          	lbu	a0,0(s0)
    2170:	00140413          	addi	s0,s0,1
    2174:	345000ef          	jal	2cb8 <outbyte>
    2178:	fe941ae3          	bne	s0,s1,216c <__heap_size+0x16c>
    217c:	06c12083          	lw	ra,108(sp)
    2180:	06812403          	lw	s0,104(sp)
    2184:	06412483          	lw	s1,100(sp)
    2188:	06012903          	lw	s2,96(sp)
    218c:	05c12983          	lw	s3,92(sp)
    2190:	05812a03          	lw	s4,88(sp)
    2194:	05412a83          	lw	s5,84(sp)
    2198:	05012b03          	lw	s6,80(sp)
    219c:	04c12b83          	lw	s7,76(sp)
    21a0:	04812c03          	lw	s8,72(sp)
    21a4:	04412c83          	lw	s9,68(sp)
    21a8:	04012d03          	lw	s10,64(sp)
    21ac:	03c12d83          	lw	s11,60(sp)
    21b0:	07010113          	addi	sp,sp,112
    21b4:	00008067          	ret
    21b8:	00012223          	sw	zero,4(sp)
    21bc:	dd1ff06f          	j	1f8c <putld+0x54>
    21c0:	01814783          	lbu	a5,24(sp)
    21c4:	000d0493          	mv	s1,s10
    21c8:	00f10c23          	sb	a5,24(sp)
    21cc:	002d07b3          	add	a5,s10,sp
    21d0:	00078c23          	sb	zero,24(a5)
    21d4:	00812783          	lw	a5,8(sp)
    21d8:	fff78413          	addi	s0,a5,-1
    21dc:	00c12783          	lw	a5,12(sp)
    21e0:	f60792e3          	bnez	a5,2144 <__heap_size+0x144>
    21e4:	fffd0913          	addi	s2,s10,-1
    21e8:	01a44a63          	blt	s0,s10,21fc <__heap_size+0x1fc>
    21ec:	02000513          	li	a0,32
    21f0:	fff40413          	addi	s0,s0,-1
    21f4:	2c5000ef          	jal	2cb8 <outbyte>
    21f8:	ff241ae3          	bne	s0,s2,21ec <__heap_size+0x1ec>
    21fc:	00412783          	lw	a5,4(sp)
    2200:	f60782e3          	beqz	a5,2164 <__heap_size+0x164>
    2204:	02d00513          	li	a0,45
    2208:	2b1000ef          	jal	2cb8 <outbyte>
    220c:	f59ff06f          	j	2164 <__heap_size+0x164>
    2210:	00a037b3          	snez	a5,a0
    2214:	40b009b3          	neg	s3,a1
    2218:	fff60713          	addi	a4,a2,-1
    221c:	40f989b3          	sub	s3,s3,a5
    2220:	00100793          	li	a5,1
    2224:	00e12423          	sw	a4,8(sp)
    2228:	40a00bb3          	neg	s7,a0
    222c:	00f12223          	sw	a5,4(sp)
    2230:	d5dff06f          	j	1f8c <putld+0x54>
    2234:	02d00513          	li	a0,45
    2238:	281000ef          	jal	2cb8 <outbyte>
    223c:	fffd0913          	addi	s2,s10,-1
    2240:	f1a45ae3          	bge	s0,s10,2154 <__heap_size+0x154>
    2244:	f21ff06f          	j	2164 <__heap_size+0x164>

00002248 <putf>:
    2248:	f8010113          	addi	sp,sp,-128
    224c:	05812c23          	sw	s8,88(sp)
    2250:	06112e23          	sw	ra,124(sp)
    2254:	00070c13          	mv	s8,a4
    2258:	06812c23          	sw	s0,120(sp)
    225c:	06912a23          	sw	s1,116(sp)
    2260:	07212823          	sw	s2,112(sp)
    2264:	07312623          	sw	s3,108(sp)
    2268:	07412423          	sw	s4,104(sp)
    226c:	05912a23          	sw	s9,84(sp)
    2270:	05a12823          	sw	s10,80(sp)
    2274:	02a12823          	sw	a0,48(sp)
    2278:	02c12a23          	sw	a2,52(sp)
    227c:	02d12c23          	sw	a3,56(sp)
    2280:	00058713          	mv	a4,a1
    2284:	1b805463          	blez	s8,242c <putf+0x1e4>
    2288:	000066b7          	lui	a3,0x6
    228c:	000067b7          	lui	a5,0x6
    2290:	00006637          	lui	a2,0x6
    2294:	07612023          	sw	s6,96(sp)
    2298:	05712e23          	sw	s7,92(sp)
    229c:	9986a483          	lw	s1,-1640(a3) # 5998 <__clzsi2+0x70>
    22a0:	99c6a403          	lw	s0,-1636(a3)
    22a4:	9a07a983          	lw	s3,-1632(a5) # 59a0 <__clzsi2+0x78>
    22a8:	9a47a903          	lw	s2,-1628(a5)
    22ac:	9a862b03          	lw	s6,-1624(a2) # 59a8 <__clzsi2+0x80>
    22b0:	9ac62b83          	lw	s7,-1620(a2)
    22b4:	07512223          	sw	s5,100(sp)
    22b8:	05b12623          	sw	s11,76(sp)
    22bc:	00000c93          	li	s9,0
    22c0:	02b12e23          	sw	a1,60(sp)
    22c4:	00098513          	mv	a0,s3
    22c8:	00090593          	mv	a1,s2
    22cc:	000b0613          	mv	a2,s6
    22d0:	000b8693          	mv	a3,s7
    22d4:	5dc010ef          	jal	38b0 <__divdf3>
    22d8:	00050993          	mv	s3,a0
    22dc:	00058913          	mv	s2,a1
    22e0:	00048513          	mv	a0,s1
    22e4:	00040593          	mv	a1,s0
    22e8:	000b0613          	mv	a2,s6
    22ec:	000b8693          	mv	a3,s7
    22f0:	54d010ef          	jal	403c <__muldf3>
    22f4:	001c8c93          	addi	s9,s9,1
    22f8:	00050493          	mv	s1,a0
    22fc:	00058413          	mv	s0,a1
    2300:	fd9c12e3          	bne	s8,s9,22c4 <putf+0x7c>
    2304:	03c12703          	lw	a4,60(sp)
    2308:	06412a83          	lw	s5,100(sp)
    230c:	06012b03          	lw	s6,96(sp)
    2310:	05c12b83          	lw	s7,92(sp)
    2314:	04c12d83          	lw	s11,76(sp)
    2318:	03012783          	lw	a5,48(sp)
    231c:	00e12623          	sw	a4,12(sp)
    2320:	00c12583          	lw	a1,12(sp)
    2324:	00f12423          	sw	a5,8(sp)
    2328:	00812503          	lw	a0,8(sp)
    232c:	00000613          	li	a2,0
    2330:	00000693          	li	a3,0
    2334:	02e12e23          	sw	a4,60(sp)
    2338:	435010ef          	jal	3f6c <__ledf2>
    233c:	03c12703          	lw	a4,60(sp)
    2340:	00000a13          	li	s4,0
    2344:	00055863          	bgez	a0,2354 <putf+0x10c>
    2348:	800007b7          	lui	a5,0x80000
    234c:	00f74733          	xor	a4,a4,a5
    2350:	00100a13          	li	s4,1
    2354:	03012d03          	lw	s10,48(sp)
    2358:	00e12e23          	sw	a4,28(sp)
    235c:	01312823          	sw	s3,16(sp)
    2360:	01a12c23          	sw	s10,24(sp)
    2364:	01212a23          	sw	s2,20(sp)
    2368:	01012603          	lw	a2,16(sp)
    236c:	01412683          	lw	a3,20(sp)
    2370:	01812503          	lw	a0,24(sp)
    2374:	01c12583          	lw	a1,28(sp)
    2378:	5b9000ef          	jal	3130 <__adddf3>
    237c:	00058913          	mv	s2,a1
    2380:	00050993          	mv	s3,a0
    2384:	23d020ef          	jal	4dc0 <__fixunsdfsi>
    2388:	03412783          	lw	a5,52(sp)
    238c:	03812603          	lw	a2,56(sp)
    2390:	000a0693          	mv	a3,s4
    2394:	41878cb3          	sub	s9,a5,s8
    2398:	419005b3          	neg	a1,s9
    239c:	41f5d593          	srai	a1,a1,0x1f
    23a0:	fffc8c93          	addi	s9,s9,-1
    23a4:	00bcf5b3          	and	a1,s9,a1
    23a8:	00050a13          	mv	s4,a0
    23ac:	885ff0ef          	jal	1c30 <putd>
    23b0:	02e00513          	li	a0,46
    23b4:	105000ef          	jal	2cb8 <outbyte>
    23b8:	000a0513          	mv	a0,s4
    23bc:	281020ef          	jal	4e3c <__floatunsidf>
    23c0:	03312023          	sw	s3,32(sp)
    23c4:	03212223          	sw	s2,36(sp)
    23c8:	00050613          	mv	a2,a0
    23cc:	00058693          	mv	a3,a1
    23d0:	02012503          	lw	a0,32(sp)
    23d4:	02412583          	lw	a1,36(sp)
    23d8:	258020ef          	jal	4630 <__subdf3>
    23dc:	02912423          	sw	s1,40(sp)
    23e0:	02812623          	sw	s0,44(sp)
    23e4:	02812603          	lw	a2,40(sp)
    23e8:	02c12683          	lw	a3,44(sp)
    23ec:	451010ef          	jal	403c <__muldf3>
    23f0:	2dd020ef          	jal	4ecc <__fixunsdfdi>
    23f4:	07812403          	lw	s0,120(sp)
    23f8:	07c12083          	lw	ra,124(sp)
    23fc:	07412483          	lw	s1,116(sp)
    2400:	07012903          	lw	s2,112(sp)
    2404:	06c12983          	lw	s3,108(sp)
    2408:	06812a03          	lw	s4,104(sp)
    240c:	05412c83          	lw	s9,84(sp)
    2410:	05012d03          	lw	s10,80(sp)
    2414:	000c0613          	mv	a2,s8
    2418:	05812c03          	lw	s8,88(sp)
    241c:	00100713          	li	a4,1
    2420:	00070693          	mv	a3,a4
    2424:	08010113          	addi	sp,sp,128
    2428:	b11ff06f          	j	1f38 <putld>
    242c:	000066b7          	lui	a3,0x6
    2430:	000067b7          	lui	a5,0x6
    2434:	9986a483          	lw	s1,-1640(a3) # 5998 <__clzsi2+0x70>
    2438:	99c6a403          	lw	s0,-1636(a3)
    243c:	9a07a983          	lw	s3,-1632(a5) # 59a0 <__clzsi2+0x78>
    2440:	9a47a903          	lw	s2,-1628(a5)
    2444:	ed5ff06f          	j	2318 <putf+0xd0>

00002448 <printf>:
    2448:	fa010113          	addi	sp,sp,-96
    244c:	02812c23          	sw	s0,56(sp)
    2450:	04f12a23          	sw	a5,84(sp)
    2454:	02112e23          	sw	ra,60(sp)
    2458:	04b12223          	sw	a1,68(sp)
    245c:	04c12423          	sw	a2,72(sp)
    2460:	04d12623          	sw	a3,76(sp)
    2464:	04e12823          	sw	a4,80(sp)
    2468:	05012c23          	sw	a6,88(sp)
    246c:	05112e23          	sw	a7,92(sp)
    2470:	00050413          	mv	s0,a0
    2474:	00054503          	lbu	a0,0(a0)
    2478:	04410793          	addi	a5,sp,68
    247c:	00f12623          	sw	a5,12(sp)
    2480:	06050063          	beqz	a0,24e0 <printf+0x98>
    2484:	02912a23          	sw	s1,52(sp)
    2488:	03212823          	sw	s2,48(sp)
    248c:	03312623          	sw	s3,44(sp)
    2490:	03412423          	sw	s4,40(sp)
    2494:	03512223          	sw	s5,36(sp)
    2498:	03612023          	sw	s6,32(sp)
    249c:	00600493          	li	s1,6
    24a0:	02500913          	li	s2,37
    24a4:	00900b13          	li	s6,9
    24a8:	02e00a13          	li	s4,46
    24ac:	02000993          	li	s3,32
    24b0:	0000bab7          	lui	s5,0xb
    24b4:	05250063          	beq	a0,s2,24f4 <printf+0xac>
    24b8:	001000ef          	jal	2cb8 <outbyte>
    24bc:	00144503          	lbu	a0,1(s0)
    24c0:	00140413          	addi	s0,s0,1
    24c4:	fe0518e3          	bnez	a0,24b4 <printf+0x6c>
    24c8:	03412483          	lw	s1,52(sp)
    24cc:	03012903          	lw	s2,48(sp)
    24d0:	02c12983          	lw	s3,44(sp)
    24d4:	02812a03          	lw	s4,40(sp)
    24d8:	02412a83          	lw	s5,36(sp)
    24dc:	02012b03          	lw	s6,32(sp)
    24e0:	03c12083          	lw	ra,60(sp)
    24e4:	03812403          	lw	s0,56(sp)
    24e8:	00000513          	li	a0,0
    24ec:	06010113          	addi	sp,sp,96
    24f0:	00008067          	ret
    24f4:	00144503          	lbu	a0,1(s0)
    24f8:	00000593          	li	a1,0
    24fc:	00140413          	addi	s0,s0,1
    2500:	fd050713          	addi	a4,a0,-48
    2504:	0ff77793          	zext.b	a5,a4
    2508:	00173613          	seqz	a2,a4
    250c:	02fb6463          	bltu	s6,a5,2534 <printf+0xec>
    2510:	00259793          	slli	a5,a1,0x2
    2514:	00144503          	lbu	a0,1(s0)
    2518:	00b787b3          	add	a5,a5,a1
    251c:	00179793          	slli	a5,a5,0x1
    2520:	00f705b3          	add	a1,a4,a5
    2524:	fd050713          	addi	a4,a0,-48
    2528:	0ff77793          	zext.b	a5,a4
    252c:	00140413          	addi	s0,s0,1
    2530:	fefb70e3          	bgeu	s6,a5,2510 <printf+0xc8>
    2534:	f9450513          	addi	a0,a0,-108
    2538:	00153513          	seqz	a0,a0
    253c:	00a40433          	add	s0,s0,a0
    2540:	00044503          	lbu	a0,0(s0)
    2544:	11450263          	beq	a0,s4,2648 <printf+0x200>
    2548:	fa850793          	addi	a5,a0,-88
    254c:	0ff7f793          	zext.b	a5,a5
    2550:	f6f9e4e3          	bltu	s3,a5,24b8 <printf+0x70>
    2554:	00279793          	slli	a5,a5,0x2
    2558:	e54a8713          	addi	a4,s5,-428 # ae54 <Arr_2_Glob+0x2d8c>
    255c:	00e787b3          	add	a5,a5,a4
    2560:	0007a783          	lw	a5,0(a5)
    2564:	00078067          	jr	a5
    2568:	00c12783          	lw	a5,12(sp)
    256c:	00000693          	li	a3,0
    2570:	0007a503          	lw	a0,0(a5)
    2574:	00478793          	addi	a5,a5,4
    2578:	00f12623          	sw	a5,12(sp)
    257c:	835ff0ef          	jal	1db0 <putx>
    2580:	f3dff06f          	j	24bc <printf+0x74>
    2584:	00c12783          	lw	a5,12(sp)
    2588:	00000693          	li	a3,0
    258c:	0007a503          	lw	a0,0(a5)
    2590:	00478793          	addi	a5,a5,4
    2594:	00f12623          	sw	a5,12(sp)
    2598:	e98ff0ef          	jal	1c30 <putd>
    259c:	f21ff06f          	j	24bc <printf+0x74>
    25a0:	00c12783          	lw	a5,12(sp)
    25a4:	01712e23          	sw	s7,28(sp)
    25a8:	0007ab83          	lw	s7,0(a5)
    25ac:	00478793          	addi	a5,a5,4
    25b0:	00f12623          	sw	a5,12(sp)
    25b4:	000bc503          	lbu	a0,0(s7)
    25b8:	00050a63          	beqz	a0,25cc <printf+0x184>
    25bc:	001b8b93          	addi	s7,s7,1
    25c0:	6f8000ef          	jal	2cb8 <outbyte>
    25c4:	000bc503          	lbu	a0,0(s7)
    25c8:	fe051ae3          	bnez	a0,25bc <printf+0x174>
    25cc:	01c12b83          	lw	s7,28(sp)
    25d0:	eedff06f          	j	24bc <printf+0x74>
    25d4:	00c12783          	lw	a5,12(sp)
    25d8:	00060693          	mv	a3,a2
    25dc:	00058613          	mv	a2,a1
    25e0:	00778793          	addi	a5,a5,7
    25e4:	ff87f793          	andi	a5,a5,-8
    25e8:	0007a503          	lw	a0,0(a5)
    25ec:	0047a583          	lw	a1,4(a5)
    25f0:	00048713          	mv	a4,s1
    25f4:	00878793          	addi	a5,a5,8
    25f8:	00f12623          	sw	a5,12(sp)
    25fc:	c4dff0ef          	jal	2248 <putf>
    2600:	ebdff06f          	j	24bc <printf+0x74>
    2604:	00c12783          	lw	a5,12(sp)
    2608:	0007a683          	lw	a3,0(a5)
    260c:	00478793          	addi	a5,a5,4
    2610:	00f12623          	sw	a5,12(sp)
    2614:	41f6d793          	srai	a5,a3,0x1f
    2618:	00d7c533          	xor	a0,a5,a3
    261c:	40f50533          	sub	a0,a0,a5
    2620:	01f6d693          	srli	a3,a3,0x1f
    2624:	e0cff0ef          	jal	1c30 <putd>
    2628:	e95ff06f          	j	24bc <printf+0x74>
    262c:	00c12783          	lw	a5,12(sp)
    2630:	00100693          	li	a3,1
    2634:	0007a503          	lw	a0,0(a5)
    2638:	00478793          	addi	a5,a5,4
    263c:	00f12623          	sw	a5,12(sp)
    2640:	f70ff0ef          	jal	1db0 <putx>
    2644:	e79ff06f          	j	24bc <printf+0x74>
    2648:	00144503          	lbu	a0,1(s0)
    264c:	00900693          	li	a3,9
    2650:	00140413          	addi	s0,s0,1
    2654:	fd050713          	addi	a4,a0,-48
    2658:	0ff77793          	zext.b	a5,a4
    265c:	00000493          	li	s1,0
    2660:	eef6e4e3          	bltu	a3,a5,2548 <printf+0x100>
    2664:	00249793          	slli	a5,s1,0x2
    2668:	00144503          	lbu	a0,1(s0)
    266c:	009787b3          	add	a5,a5,s1
    2670:	00179793          	slli	a5,a5,0x1
    2674:	00f704b3          	add	s1,a4,a5
    2678:	fd050713          	addi	a4,a0,-48
    267c:	0ff77793          	zext.b	a5,a4
    2680:	00140413          	addi	s0,s0,1
    2684:	fef6f0e3          	bgeu	a3,a5,2664 <printf+0x21c>
    2688:	ec1ff06f          	j	2548 <printf+0x100>

0000268c <exit>:
    268c:	fe010113          	addi	sp,sp,-32
    2690:	00112e23          	sw	ra,28(sp)
    2694:	00812c23          	sw	s0,24(sp)
    2698:	02010413          	addi	s0,sp,32
    269c:	fea42623          	sw	a0,-20(s0)
    26a0:	0000b7b7          	lui	a5,0xb
    26a4:	ed878513          	addi	a0,a5,-296 # aed8 <Arr_2_Glob+0x2e10>
    26a8:	da1ff0ef          	jal	2448 <printf>
    26ac:	fec42583          	lw	a1,-20(s0)
    26b0:	0000b7b7          	lui	a5,0xb
    26b4:	f2478513          	addi	a0,a5,-220 # af24 <Arr_2_Glob+0x2e5c>
    26b8:	d91ff0ef          	jal	2448 <printf>
    26bc:	0000b7b7          	lui	a5,0xb
    26c0:	f4878513          	addi	a0,a5,-184 # af48 <Arr_2_Glob+0x2e80>
    26c4:	d85ff0ef          	jal	2448 <printf>
    26c8:	00300513          	li	a0,3
    26cc:	be0ff0ef          	jal	1aac <putchar>
    26d0:	00000013          	nop
    26d4:	ffdff06f          	j	26d0 <exit+0x44>

000026d8 <malloc>:
    26d8:	0000b8b7          	lui	a7,0xb
    26dc:	0000b737          	lui	a4,0xb
    26e0:	1208a783          	lw	a5,288(a7) # b120 <curr_top>
    26e4:	11c72583          	lw	a1,284(a4) # b11c <heap_end>
    26e8:	00050813          	mv	a6,a0
    26ec:	08b78e63          	beq	a5,a1,2788 <malloc+0xb0>
    26f0:	02b7f263          	bgeu	a5,a1,2714 <malloc+0x3c>
    26f4:	0007a703          	lw	a4,0(a5)
    26f8:	00177693          	andi	a3,a4,1
    26fc:	40f70633          	sub	a2,a4,a5
    2700:	00069463          	bnez	a3,2708 <malloc+0x30>
    2704:	04c86063          	bltu	a6,a2,2744 <malloc+0x6c>
    2708:	ffe77793          	andi	a5,a4,-2
    270c:	feb7e4e3          	bltu	a5,a1,26f4 <malloc+0x1c>
    2710:	1208a783          	lw	a5,288(a7)
    2714:	00006737          	lui	a4,0x6
    2718:	9b472703          	lw	a4,-1612(a4) # 59b4 <heap_top>
    271c:	02f77063          	bgeu	a4,a5,273c <malloc+0x64>
    2720:	00072683          	lw	a3,0(a4)
    2724:	0016f613          	andi	a2,a3,1
    2728:	40e685b3          	sub	a1,a3,a4
    272c:	00061463          	bnez	a2,2734 <malloc+0x5c>
    2730:	08b86a63          	bltu	a6,a1,27c4 <malloc+0xec>
    2734:	ffe6f713          	andi	a4,a3,-2
    2738:	fef764e3          	bltu	a4,a5,2720 <malloc+0x48>
    273c:	00000513          	li	a0,0
    2740:	00008067          	ret
    2744:	ffe7f613          	andi	a2,a5,-2
    2748:	00460613          	addi	a2,a2,4
    274c:	00387693          	andi	a3,a6,3
    2750:	00060513          	mv	a0,a2
    2754:	00000593          	li	a1,0
    2758:	06069063          	bnez	a3,27b8 <malloc+0xe0>
    275c:	00480693          	addi	a3,a6,4
    2760:	00b686b3          	add	a3,a3,a1
    2764:	ffc6f693          	andi	a3,a3,-4
    2768:	00d786b3          	add	a3,a5,a3
    276c:	12d8a023          	sw	a3,288(a7)
    2770:	00e68463          	beq	a3,a4,2778 <malloc+0xa0>
    2774:	00e6a023          	sw	a4,0(a3)
    2778:	0016e693          	ori	a3,a3,1
    277c:	00d7a023          	sw	a3,0(a5)
    2780:	f80608e3          	beqz	a2,2710 <malloc+0x38>
    2784:	00008067          	ret
    2788:	000067b7          	lui	a5,0x6
    278c:	000066b7          	lui	a3,0x6
    2790:	9b47a783          	lw	a5,-1612(a5) # 59b4 <heap_top>
    2794:	9b06a583          	lw	a1,-1616(a3) # 59b0 <heap_size>
    2798:	12f8a023          	sw	a5,288(a7)
    279c:	00b785b3          	add	a1,a5,a1
    27a0:	ff05f593          	andi	a1,a1,-16
    27a4:	10b72e23          	sw	a1,284(a4)
    27a8:	00b7a023          	sw	a1,0(a5)
    27ac:	f4b7e4e3          	bltu	a5,a1,26f4 <malloc+0x1c>
    27b0:	00000513          	li	a0,0
    27b4:	00008067          	ret
    27b8:	00400593          	li	a1,4
    27bc:	40d585b3          	sub	a1,a1,a3
    27c0:	f9dff06f          	j	275c <malloc+0x84>
    27c4:	ffe77513          	andi	a0,a4,-2
    27c8:	00387793          	andi	a5,a6,3
    27cc:	00450513          	addi	a0,a0,4
    27d0:	00078663          	beqz	a5,27dc <malloc+0x104>
    27d4:	00400613          	li	a2,4
    27d8:	40f60633          	sub	a2,a2,a5
    27dc:	00480793          	addi	a5,a6,4
    27e0:	00c787b3          	add	a5,a5,a2
    27e4:	ffc7f793          	andi	a5,a5,-4
    27e8:	00f707b3          	add	a5,a4,a5
    27ec:	12f8a023          	sw	a5,288(a7)
    27f0:	00d78463          	beq	a5,a3,27f8 <malloc+0x120>
    27f4:	00d7a023          	sw	a3,0(a5)
    27f8:	0017e793          	ori	a5,a5,1
    27fc:	00f72023          	sw	a5,0(a4)
    2800:	00008067          	ret

00002804 <free>:
    2804:	ffc52783          	lw	a5,-4(a0)
    2808:	ffe7f793          	andi	a5,a5,-2
    280c:	fef52e23          	sw	a5,-4(a0)
    2810:	0007a783          	lw	a5,0(a5)
    2814:	0017f713          	andi	a4,a5,1
    2818:	00071a63          	bnez	a4,282c <free+0x28>
    281c:	ffc50693          	addi	a3,a0,-4
    2820:	0000b737          	lui	a4,0xb
    2824:	fef52e23          	sw	a5,-4(a0)
    2828:	12d72023          	sw	a3,288(a4) # b120 <curr_top>
    282c:	00008067          	ret

00002830 <calloc>:
    2830:	ff010113          	addi	sp,sp,-16
    2834:	00912423          	sw	s1,8(sp)
    2838:	02b504b3          	mul	s1,a0,a1
    283c:	00112623          	sw	ra,12(sp)
    2840:	00048513          	mv	a0,s1
    2844:	e95ff0ef          	jal	26d8 <malloc>
    2848:	00048613          	mv	a2,s1
    284c:	00000593          	li	a1,0
    2850:	00050493          	mv	s1,a0
    2854:	17c000ef          	jal	29d0 <memset>
    2858:	00c12083          	lw	ra,12(sp)
    285c:	00048513          	mv	a0,s1
    2860:	00812483          	lw	s1,8(sp)
    2864:	01010113          	addi	sp,sp,16
    2868:	00008067          	ret

0000286c <atoi>:
    286c:	00050793          	mv	a5,a0
    2870:	02000693          	li	a3,32
    2874:	00900613          	li	a2,9
    2878:	0007c703          	lbu	a4,0(a5)
    287c:	00d70463          	beq	a4,a3,2884 <atoi+0x18>
    2880:	00c71663          	bne	a4,a2,288c <atoi+0x20>
    2884:	00178793          	addi	a5,a5,1
    2888:	ff1ff06f          	j	2878 <atoi+0xc>
    288c:	02d00693          	li	a3,45
    2890:	00100813          	li	a6,1
    2894:	00d71863          	bne	a4,a3,28a4 <atoi+0x38>
    2898:	0017c703          	lbu	a4,1(a5)
    289c:	fff00813          	li	a6,-1
    28a0:	00178793          	addi	a5,a5,1
    28a4:	fd070713          	addi	a4,a4,-48
    28a8:	0ff77613          	zext.b	a2,a4
    28ac:	00900693          	li	a3,9
    28b0:	00000513          	li	a0,0
    28b4:	04c6e263          	bltu	a3,a2,28f8 <atoi+0x8c>
    28b8:	0017c603          	lbu	a2,1(a5)
    28bc:	00178793          	addi	a5,a5,1
    28c0:	02060e63          	beqz	a2,28fc <atoi+0x90>
    28c4:	00068513          	mv	a0,a3
    28c8:	0100006f          	j	28d8 <atoi+0x6c>
    28cc:	0007c603          	lbu	a2,0(a5)
    28d0:	00e58733          	add	a4,a1,a4
    28d4:	02060463          	beqz	a2,28fc <atoi+0x90>
    28d8:	00271693          	slli	a3,a4,0x2
    28dc:	fd060593          	addi	a1,a2,-48
    28e0:	00e68733          	add	a4,a3,a4
    28e4:	0ff5f693          	zext.b	a3,a1
    28e8:	00178793          	addi	a5,a5,1
    28ec:	00171713          	slli	a4,a4,0x1
    28f0:	fcd57ee3          	bgeu	a0,a3,28cc <atoi+0x60>
    28f4:	00000513          	li	a0,0
    28f8:	00008067          	ret
    28fc:	02e80533          	mul	a0,a6,a4
    2900:	00008067          	ret

00002904 <abs>:
    2904:	41f55793          	srai	a5,a0,0x1f
    2908:	00a7c533          	xor	a0,a5,a0
    290c:	40f50533          	sub	a0,a0,a5
    2910:	00008067          	ret

00002914 <srand>:
    2914:	0000b7b7          	lui	a5,0xb
    2918:	10a7ac23          	sw	a0,280(a5) # b118 <rand_seed>
    291c:	00008067          	ret

00002920 <rand>:
    2920:	0000b6b7          	lui	a3,0xb
    2924:	1186a783          	lw	a5,280(a3) # b118 <rand_seed>
    2928:	00034737          	lui	a4,0x34
    292c:	3fd70713          	addi	a4,a4,1021 # 343fd <__stack_top+0x26a9d>
    2930:	02e787b3          	mul	a5,a5,a4
    2934:	0026a737          	lui	a4,0x26a
    2938:	ec370713          	addi	a4,a4,-317 # 269ec3 <__stack_top+0x25c563>
    293c:	00e787b3          	add	a5,a5,a4
    2940:	00179513          	slli	a0,a5,0x1
    2944:	10f6ac23          	sw	a5,280(a3)
    2948:	01155513          	srli	a0,a0,0x11
    294c:	00008067          	ret

00002950 <memcpy>:
    2950:	02060063          	beqz	a2,2970 <memcpy+0x20>
    2954:	00c50633          	add	a2,a0,a2
    2958:	00050793          	mv	a5,a0
    295c:	0005c703          	lbu	a4,0(a1)
    2960:	00178793          	addi	a5,a5,1
    2964:	00158593          	addi	a1,a1,1
    2968:	fee78fa3          	sb	a4,-1(a5)
    296c:	fef618e3          	bne	a2,a5,295c <memcpy+0xc>
    2970:	00008067          	ret

00002974 <memmove>:
    2974:	02b56a63          	bltu	a0,a1,29a8 <memmove+0x34>
    2978:	00c587b3          	add	a5,a1,a2
    297c:	02a7e663          	bltu	a5,a0,29a8 <memmove+0x34>
    2980:	fff60793          	addi	a5,a2,-1
    2984:	0407c263          	bltz	a5,29c8 <memmove+0x54>
    2988:	fff00613          	li	a2,-1
    298c:	00f58733          	add	a4,a1,a5
    2990:	00074683          	lbu	a3,0(a4)
    2994:	00f50733          	add	a4,a0,a5
    2998:	fff78793          	addi	a5,a5,-1
    299c:	00d70023          	sb	a3,0(a4)
    29a0:	fec796e3          	bne	a5,a2,298c <memmove+0x18>
    29a4:	00008067          	ret
    29a8:	00c506b3          	add	a3,a0,a2
    29ac:	00050793          	mv	a5,a0
    29b0:	00060e63          	beqz	a2,29cc <memmove+0x58>
    29b4:	0005c703          	lbu	a4,0(a1)
    29b8:	00178793          	addi	a5,a5,1
    29bc:	00158593          	addi	a1,a1,1
    29c0:	fee78fa3          	sb	a4,-1(a5)
    29c4:	fef698e3          	bne	a3,a5,29b4 <memmove+0x40>
    29c8:	00008067          	ret
    29cc:	00008067          	ret

000029d0 <memset>:
    29d0:	0ff5f593          	zext.b	a1,a1
    29d4:	00c50733          	add	a4,a0,a2
    29d8:	00050793          	mv	a5,a0
    29dc:	00060863          	beqz	a2,29ec <memset+0x1c>
    29e0:	00178793          	addi	a5,a5,1
    29e4:	feb78fa3          	sb	a1,-1(a5)
    29e8:	fef71ce3          	bne	a4,a5,29e0 <memset+0x10>
    29ec:	00008067          	ret

000029f0 <strlen>:
    29f0:	00054783          	lbu	a5,0(a0)
    29f4:	00050713          	mv	a4,a0
    29f8:	00000513          	li	a0,0
    29fc:	00078c63          	beqz	a5,2a14 <strlen+0x24>
    2a00:	00150513          	addi	a0,a0,1
    2a04:	00a707b3          	add	a5,a4,a0
    2a08:	0007c783          	lbu	a5,0(a5)
    2a0c:	fe079ae3          	bnez	a5,2a00 <strlen+0x10>
    2a10:	00008067          	ret
    2a14:	00008067          	ret

00002a18 <strcpy>:
    2a18:	0005c783          	lbu	a5,0(a1)
    2a1c:	00050713          	mv	a4,a0
    2a20:	00078c63          	beqz	a5,2a38 <strcpy+0x20>
    2a24:	00158593          	addi	a1,a1,1
    2a28:	00f70023          	sb	a5,0(a4)
    2a2c:	0005c783          	lbu	a5,0(a1)
    2a30:	00170713          	addi	a4,a4,1
    2a34:	fe0798e3          	bnez	a5,2a24 <strcpy+0xc>
    2a38:	00070023          	sb	zero,0(a4)
    2a3c:	00008067          	ret

00002a40 <strncpy>:
    2a40:	0005c703          	lbu	a4,0(a1)
    2a44:	00050793          	mv	a5,a0
    2a48:	00071e63          	bnez	a4,2a64 <strncpy+0x24>
    2a4c:	0480006f          	j	2a94 <strncpy+0x54>
    2a50:	fee78fa3          	sb	a4,-1(a5)
    2a54:	0005c703          	lbu	a4,0(a1)
    2a58:	fff60693          	addi	a3,a2,-1
    2a5c:	00070c63          	beqz	a4,2a74 <strncpy+0x34>
    2a60:	00068613          	mv	a2,a3
    2a64:	00178793          	addi	a5,a5,1
    2a68:	00158593          	addi	a1,a1,1
    2a6c:	fe0612e3          	bnez	a2,2a50 <strncpy+0x10>
    2a70:	00008067          	ret
    2a74:	ffe60713          	addi	a4,a2,-2
    2a78:	00170713          	addi	a4,a4,1
    2a7c:	00e78733          	add	a4,a5,a4
    2a80:	02068063          	beqz	a3,2aa0 <strncpy+0x60>
    2a84:	00178793          	addi	a5,a5,1
    2a88:	fe078fa3          	sb	zero,-1(a5)
    2a8c:	fee79ce3          	bne	a5,a4,2a84 <strncpy+0x44>
    2a90:	00008067          	ret
    2a94:	fff60713          	addi	a4,a2,-1
    2a98:	00060693          	mv	a3,a2
    2a9c:	fddff06f          	j	2a78 <strncpy+0x38>
    2aa0:	00008067          	ret

00002aa4 <strcat>:
    2aa4:	00054783          	lbu	a5,0(a0)
    2aa8:	02078c63          	beqz	a5,2ae0 <strcat+0x3c>
    2aac:	00050793          	mv	a5,a0
    2ab0:	0017c703          	lbu	a4,1(a5)
    2ab4:	00178793          	addi	a5,a5,1
    2ab8:	fe071ce3          	bnez	a4,2ab0 <strcat+0xc>
    2abc:	0005c703          	lbu	a4,0(a1)
    2ac0:	00070c63          	beqz	a4,2ad8 <strcat+0x34>
    2ac4:	00178793          	addi	a5,a5,1
    2ac8:	00158593          	addi	a1,a1,1
    2acc:	fee78fa3          	sb	a4,-1(a5)
    2ad0:	0005c703          	lbu	a4,0(a1)
    2ad4:	fe0718e3          	bnez	a4,2ac4 <strcat+0x20>
    2ad8:	00078023          	sb	zero,0(a5)
    2adc:	00008067          	ret
    2ae0:	00050793          	mv	a5,a0
    2ae4:	fedff06f          	j	2ad0 <strcat+0x2c>

00002ae8 <strncat>:
    2ae8:	00054783          	lbu	a5,0(a0)
    2aec:	04078863          	beqz	a5,2b3c <strncat+0x54>
    2af0:	00050793          	mv	a5,a0
    2af4:	0017c703          	lbu	a4,1(a5)
    2af8:	00178793          	addi	a5,a5,1
    2afc:	fe071ce3          	bnez	a4,2af4 <strncat+0xc>
    2b00:	0005c703          	lbu	a4,0(a1)
    2b04:	02070663          	beqz	a4,2b30 <strncat+0x48>
    2b08:	00c78633          	add	a2,a5,a2
    2b0c:	0140006f          	j	2b20 <strncat+0x38>
    2b10:	00e78023          	sb	a4,0(a5)
    2b14:	0005c703          	lbu	a4,0(a1)
    2b18:	00178793          	addi	a5,a5,1
    2b1c:	00070a63          	beqz	a4,2b30 <strncat+0x48>
    2b20:	00158593          	addi	a1,a1,1
    2b24:	fef616e3          	bne	a2,a5,2b10 <strncat+0x28>
    2b28:	00060023          	sb	zero,0(a2)
    2b2c:	00008067          	ret
    2b30:	00078613          	mv	a2,a5
    2b34:	00060023          	sb	zero,0(a2)
    2b38:	00008067          	ret
    2b3c:	00050793          	mv	a5,a0
    2b40:	fc1ff06f          	j	2b00 <strncat+0x18>

00002b44 <strcmp>:
    2b44:	fff50513          	addi	a0,a0,-1
    2b48:	fff58593          	addi	a1,a1,-1
    2b4c:	0080006f          	j	2b54 <strcmp+0x10>
    2b50:	02078463          	beqz	a5,2b78 <strcmp+0x34>
    2b54:	00154783          	lbu	a5,1(a0)
    2b58:	0015c703          	lbu	a4,1(a1)
    2b5c:	00150513          	addi	a0,a0,1
    2b60:	00158593          	addi	a1,a1,1
    2b64:	fee786e3          	beq	a5,a4,2b50 <strcmp+0xc>
    2b68:	00100513          	li	a0,1
    2b6c:	00e7f463          	bgeu	a5,a4,2b74 <strcmp+0x30>
    2b70:	fff00513          	li	a0,-1
    2b74:	00008067          	ret
    2b78:	00000513          	li	a0,0
    2b7c:	00008067          	ret

00002b80 <strncmp>:
    2b80:	fff60613          	addi	a2,a2,-1
    2b84:	00c50633          	add	a2,a0,a2
    2b88:	fff58593          	addi	a1,a1,-1
    2b8c:	0100006f          	j	2b9c <strncmp+0x1c>
    2b90:	02c50663          	beq	a0,a2,2bbc <strncmp+0x3c>
    2b94:	00150513          	addi	a0,a0,1
    2b98:	02078263          	beqz	a5,2bbc <strncmp+0x3c>
    2b9c:	00054783          	lbu	a5,0(a0)
    2ba0:	0015c703          	lbu	a4,1(a1)
    2ba4:	00158593          	addi	a1,a1,1
    2ba8:	fee784e3          	beq	a5,a4,2b90 <strncmp+0x10>
    2bac:	00100513          	li	a0,1
    2bb0:	00e7f863          	bgeu	a5,a4,2bc0 <strncmp+0x40>
    2bb4:	fff00513          	li	a0,-1
    2bb8:	00008067          	ret
    2bbc:	00000513          	li	a0,0
    2bc0:	00008067          	ret

00002bc4 <clock>:
    2bc4:	b0002673          	csrr	a2,mcycle
    2bc8:	b80027f3          	csrr	a5,mcycleh
    2bcc:	00100737          	lui	a4,0x100
    2bd0:	00c79593          	slli	a1,a5,0xc
    2bd4:	01465693          	srli	a3,a2,0x14
    2bd8:	fff70713          	addi	a4,a4,-1 # fffff <__stack_top+0xf269f>
    2bdc:	00d5e6b3          	or	a3,a1,a3
    2be0:	00e6f6b3          	and	a3,a3,a4
    2be4:	00e67533          	and	a0,a2,a4
    2be8:	0087d593          	srli	a1,a5,0x8
    2bec:	00e5f733          	and	a4,a1,a4
    2bf0:	00d50533          	add	a0,a0,a3
    2bf4:	00e50533          	add	a0,a0,a4
    2bf8:	41f7d693          	srai	a3,a5,0x1f
    2bfc:	01c7d713          	srli	a4,a5,0x1c
    2c00:	0216f593          	andi	a1,a3,33
    2c04:	00e50533          	add	a0,a0,a4
    2c08:	51eb8737          	lui	a4,0x51eb8
    2c0c:	00b50533          	add	a0,a0,a1
    2c10:	51f70713          	addi	a4,a4,1311 # 51eb851f <__stack_top+0x51eaabbf>
    2c14:	02e53733          	mulhu	a4,a0,a4
    2c18:	fe86f893          	andi	a7,a3,-24
    2c1c:	c28f65b7          	lui	a1,0xc28f6
    2c20:	8f5c3837          	lui	a6,0x8f5c3
    2c24:	c2958593          	addi	a1,a1,-983 # c28f5c29 <__stack_top+0xc28e82c9>
    2c28:	8f580813          	addi	a6,a6,-1803 # 8f5c28f5 <__stack_top+0x8f5b4f95>
    2c2c:	00375713          	srli	a4,a4,0x3
    2c30:	00171693          	slli	a3,a4,0x1
    2c34:	00e686b3          	add	a3,a3,a4
    2c38:	00369693          	slli	a3,a3,0x3
    2c3c:	00e68733          	add	a4,a3,a4
    2c40:	40e50533          	sub	a0,a0,a4
    2c44:	01150533          	add	a0,a0,a7
    2c48:	41f55713          	srai	a4,a0,0x1f
    2c4c:	40a60533          	sub	a0,a2,a0
    2c50:	00a63633          	sltu	a2,a2,a0
    2c54:	40e78733          	sub	a4,a5,a4
    2c58:	40c70733          	sub	a4,a4,a2
    2c5c:	030507b3          	mul	a5,a0,a6
    2c60:	02b70733          	mul	a4,a4,a1
    2c64:	02b536b3          	mulhu	a3,a0,a1
    2c68:	00f70733          	add	a4,a4,a5
    2c6c:	02b50533          	mul	a0,a0,a1
    2c70:	00d70733          	add	a4,a4,a3
    2c74:	01f75693          	srli	a3,a4,0x1f
    2c78:	00a687b3          	add	a5,a3,a0
    2c7c:	00d7b533          	sltu	a0,a5,a3
    2c80:	00e50533          	add	a0,a0,a4
    2c84:	0017d793          	srli	a5,a5,0x1
    2c88:	01f51513          	slli	a0,a0,0x1f
    2c8c:	00f56533          	or	a0,a0,a5
    2c90:	00008067          	ret

00002c94 <inbyte>:
    2c94:	c0000737          	lui	a4,0xc0000
    2c98:	00870713          	addi	a4,a4,8 # c0000008 <__stack_top+0xbfff26a8>
    2c9c:	c00006b7          	lui	a3,0xc0000
    2ca0:	00072783          	lw	a5,0(a4)
    2ca4:	0017f793          	andi	a5,a5,1
    2ca8:	fe078ce3          	beqz	a5,2ca0 <inbyte+0xc>
    2cac:	0006a503          	lw	a0,0(a3) # c0000000 <__stack_top+0xbfff26a0>
    2cb0:	0ff57513          	zext.b	a0,a0
    2cb4:	00008067          	ret

00002cb8 <outbyte>:
    2cb8:	00a00793          	li	a5,10
    2cbc:	02f50263          	beq	a0,a5,2ce0 <outbyte+0x28>
    2cc0:	c0000737          	lui	a4,0xc0000
    2cc4:	00870713          	addi	a4,a4,8 # c0000008 <__stack_top+0xbfff26a8>
    2cc8:	00072783          	lw	a5,0(a4)
    2ccc:	0087f793          	andi	a5,a5,8
    2cd0:	fe079ce3          	bnez	a5,2cc8 <outbyte+0x10>
    2cd4:	c00007b7          	lui	a5,0xc0000
    2cd8:	00a7a223          	sw	a0,4(a5) # c0000004 <__stack_top+0xbfff26a4>
    2cdc:	00008067          	ret
    2ce0:	c0000737          	lui	a4,0xc0000
    2ce4:	00870713          	addi	a4,a4,8 # c0000008 <__stack_top+0xbfff26a8>
    2ce8:	00072783          	lw	a5,0(a4)
    2cec:	0087f793          	andi	a5,a5,8
    2cf0:	fe079ce3          	bnez	a5,2ce8 <outbyte+0x30>
    2cf4:	c00007b7          	lui	a5,0xc0000
    2cf8:	00d00713          	li	a4,13
    2cfc:	00e7a223          	sw	a4,4(a5) # c0000004 <__stack_top+0xbfff26a4>
    2d00:	fc1ff06f          	j	2cc0 <outbyte+0x8>

00002d04 <__udivdi3>:
    2d04:	00050893          	mv	a7,a0
    2d08:	00058313          	mv	t1,a1
    2d0c:	00060713          	mv	a4,a2
    2d10:	00050813          	mv	a6,a0
    2d14:	00058793          	mv	a5,a1
    2d18:	28069263          	bnez	a3,2f9c <__udivdi3+0x298>
    2d1c:	0000b5b7          	lui	a1,0xb
    2d20:	ff858593          	addi	a1,a1,-8 # aff8 <__clz_tab>
    2d24:	0ec37663          	bgeu	t1,a2,2e10 <__udivdi3+0x10c>
    2d28:	000106b7          	lui	a3,0x10
    2d2c:	0cd67863          	bgeu	a2,a3,2dfc <__udivdi3+0xf8>
    2d30:	10063693          	sltiu	a3,a2,256
    2d34:	0016b693          	seqz	a3,a3
    2d38:	00369693          	slli	a3,a3,0x3
    2d3c:	00d65533          	srl	a0,a2,a3
    2d40:	00a585b3          	add	a1,a1,a0
    2d44:	0005c583          	lbu	a1,0(a1)
    2d48:	02000513          	li	a0,32
    2d4c:	00d586b3          	add	a3,a1,a3
    2d50:	40d505b3          	sub	a1,a0,a3
    2d54:	00d50c63          	beq	a0,a3,2d6c <__udivdi3+0x68>
    2d58:	00b317b3          	sll	a5,t1,a1
    2d5c:	00d8d6b3          	srl	a3,a7,a3
    2d60:	00b61733          	sll	a4,a2,a1
    2d64:	00f6e7b3          	or	a5,a3,a5
    2d68:	00b89833          	sll	a6,a7,a1
    2d6c:	01075593          	srli	a1,a4,0x10
    2d70:	02b7d333          	divu	t1,a5,a1
    2d74:	01071613          	slli	a2,a4,0x10
    2d78:	01065613          	srli	a2,a2,0x10
    2d7c:	02b7f7b3          	remu	a5,a5,a1
    2d80:	00030513          	mv	a0,t1
    2d84:	026608b3          	mul	a7,a2,t1
    2d88:	01079693          	slli	a3,a5,0x10
    2d8c:	01085793          	srli	a5,a6,0x10
    2d90:	00d7e7b3          	or	a5,a5,a3
    2d94:	0117fe63          	bgeu	a5,a7,2db0 <__udivdi3+0xac>
    2d98:	00f707b3          	add	a5,a4,a5
    2d9c:	fff30513          	addi	a0,t1,-1
    2da0:	00e7e863          	bltu	a5,a4,2db0 <__udivdi3+0xac>
    2da4:	0117f663          	bgeu	a5,a7,2db0 <__udivdi3+0xac>
    2da8:	ffe30513          	addi	a0,t1,-2
    2dac:	00e787b3          	add	a5,a5,a4
    2db0:	411787b3          	sub	a5,a5,a7
    2db4:	02b7d8b3          	divu	a7,a5,a1
    2db8:	01081813          	slli	a6,a6,0x10
    2dbc:	01085813          	srli	a6,a6,0x10
    2dc0:	02b7f7b3          	remu	a5,a5,a1
    2dc4:	031606b3          	mul	a3,a2,a7
    2dc8:	01079793          	slli	a5,a5,0x10
    2dcc:	00f86833          	or	a6,a6,a5
    2dd0:	00088793          	mv	a5,a7
    2dd4:	00d87c63          	bgeu	a6,a3,2dec <__udivdi3+0xe8>
    2dd8:	01070833          	add	a6,a4,a6
    2ddc:	fff88793          	addi	a5,a7,-1
    2de0:	00e86663          	bltu	a6,a4,2dec <__udivdi3+0xe8>
    2de4:	00d87463          	bgeu	a6,a3,2dec <__udivdi3+0xe8>
    2de8:	ffe88793          	addi	a5,a7,-2
    2dec:	01051513          	slli	a0,a0,0x10
    2df0:	00f56533          	or	a0,a0,a5
    2df4:	00000593          	li	a1,0
    2df8:	00008067          	ret
    2dfc:	01000537          	lui	a0,0x1000
    2e00:	01800693          	li	a3,24
    2e04:	f2a67ce3          	bgeu	a2,a0,2d3c <__udivdi3+0x38>
    2e08:	01000693          	li	a3,16
    2e0c:	f31ff06f          	j	2d3c <__udivdi3+0x38>
    2e10:	00000693          	li	a3,0
    2e14:	00060c63          	beqz	a2,2e2c <__udivdi3+0x128>
    2e18:	000107b7          	lui	a5,0x10
    2e1c:	0cf67063          	bgeu	a2,a5,2edc <__udivdi3+0x1d8>
    2e20:	10063693          	sltiu	a3,a2,256
    2e24:	0016b693          	seqz	a3,a3
    2e28:	00369693          	slli	a3,a3,0x3
    2e2c:	00d657b3          	srl	a5,a2,a3
    2e30:	00f585b3          	add	a1,a1,a5
    2e34:	0005c783          	lbu	a5,0(a1)
    2e38:	00d787b3          	add	a5,a5,a3
    2e3c:	02000693          	li	a3,32
    2e40:	40f685b3          	sub	a1,a3,a5
    2e44:	0af69663          	bne	a3,a5,2ef0 <__udivdi3+0x1ec>
    2e48:	40c307b3          	sub	a5,t1,a2
    2e4c:	00100593          	li	a1,1
    2e50:	01075893          	srli	a7,a4,0x10
    2e54:	0317de33          	divu	t3,a5,a7
    2e58:	01071613          	slli	a2,a4,0x10
    2e5c:	01065613          	srli	a2,a2,0x10
    2e60:	01085693          	srli	a3,a6,0x10
    2e64:	0317f7b3          	remu	a5,a5,a7
    2e68:	000e0513          	mv	a0,t3
    2e6c:	03c60333          	mul	t1,a2,t3
    2e70:	01079793          	slli	a5,a5,0x10
    2e74:	00f6e7b3          	or	a5,a3,a5
    2e78:	0067fe63          	bgeu	a5,t1,2e94 <__udivdi3+0x190>
    2e7c:	00f707b3          	add	a5,a4,a5
    2e80:	fffe0513          	addi	a0,t3,-1
    2e84:	00e7e863          	bltu	a5,a4,2e94 <__udivdi3+0x190>
    2e88:	0067f663          	bgeu	a5,t1,2e94 <__udivdi3+0x190>
    2e8c:	ffee0513          	addi	a0,t3,-2
    2e90:	00e787b3          	add	a5,a5,a4
    2e94:	406787b3          	sub	a5,a5,t1
    2e98:	0317d333          	divu	t1,a5,a7
    2e9c:	01081813          	slli	a6,a6,0x10
    2ea0:	01085813          	srli	a6,a6,0x10
    2ea4:	0317f7b3          	remu	a5,a5,a7
    2ea8:	026606b3          	mul	a3,a2,t1
    2eac:	01079793          	slli	a5,a5,0x10
    2eb0:	00f86833          	or	a6,a6,a5
    2eb4:	00030793          	mv	a5,t1
    2eb8:	00d87c63          	bgeu	a6,a3,2ed0 <__udivdi3+0x1cc>
    2ebc:	01070833          	add	a6,a4,a6
    2ec0:	fff30793          	addi	a5,t1,-1
    2ec4:	00e86663          	bltu	a6,a4,2ed0 <__udivdi3+0x1cc>
    2ec8:	00d87463          	bgeu	a6,a3,2ed0 <__udivdi3+0x1cc>
    2ecc:	ffe30793          	addi	a5,t1,-2
    2ed0:	01051513          	slli	a0,a0,0x10
    2ed4:	00f56533          	or	a0,a0,a5
    2ed8:	00008067          	ret
    2edc:	010007b7          	lui	a5,0x1000
    2ee0:	01800693          	li	a3,24
    2ee4:	f4f674e3          	bgeu	a2,a5,2e2c <__udivdi3+0x128>
    2ee8:	01000693          	li	a3,16
    2eec:	f41ff06f          	j	2e2c <__udivdi3+0x128>
    2ef0:	00b61733          	sll	a4,a2,a1
    2ef4:	00f356b3          	srl	a3,t1,a5
    2ef8:	01075513          	srli	a0,a4,0x10
    2efc:	00b31333          	sll	t1,t1,a1
    2f00:	00f8d7b3          	srl	a5,a7,a5
    2f04:	0067e7b3          	or	a5,a5,t1
    2f08:	02a6d333          	divu	t1,a3,a0
    2f0c:	01071613          	slli	a2,a4,0x10
    2f10:	01065613          	srli	a2,a2,0x10
    2f14:	00b89833          	sll	a6,a7,a1
    2f18:	02a6f6b3          	remu	a3,a3,a0
    2f1c:	026608b3          	mul	a7,a2,t1
    2f20:	01069593          	slli	a1,a3,0x10
    2f24:	0107d693          	srli	a3,a5,0x10
    2f28:	00b6e6b3          	or	a3,a3,a1
    2f2c:	00030593          	mv	a1,t1
    2f30:	0116fe63          	bgeu	a3,a7,2f4c <__udivdi3+0x248>
    2f34:	00d706b3          	add	a3,a4,a3
    2f38:	fff30593          	addi	a1,t1,-1
    2f3c:	00e6e863          	bltu	a3,a4,2f4c <__udivdi3+0x248>
    2f40:	0116f663          	bgeu	a3,a7,2f4c <__udivdi3+0x248>
    2f44:	ffe30593          	addi	a1,t1,-2
    2f48:	00e686b3          	add	a3,a3,a4
    2f4c:	411686b3          	sub	a3,a3,a7
    2f50:	02a6d8b3          	divu	a7,a3,a0
    2f54:	01079793          	slli	a5,a5,0x10
    2f58:	0107d793          	srli	a5,a5,0x10
    2f5c:	02a6f6b3          	remu	a3,a3,a0
    2f60:	03160633          	mul	a2,a2,a7
    2f64:	01069693          	slli	a3,a3,0x10
    2f68:	00d7e7b3          	or	a5,a5,a3
    2f6c:	00088693          	mv	a3,a7
    2f70:	00c7fe63          	bgeu	a5,a2,2f8c <__udivdi3+0x288>
    2f74:	00f707b3          	add	a5,a4,a5
    2f78:	fff88693          	addi	a3,a7,-1
    2f7c:	00e7e863          	bltu	a5,a4,2f8c <__udivdi3+0x288>
    2f80:	00c7f663          	bgeu	a5,a2,2f8c <__udivdi3+0x288>
    2f84:	ffe88693          	addi	a3,a7,-2
    2f88:	00e787b3          	add	a5,a5,a4
    2f8c:	01059593          	slli	a1,a1,0x10
    2f90:	40c787b3          	sub	a5,a5,a2
    2f94:	00d5e5b3          	or	a1,a1,a3
    2f98:	eb9ff06f          	j	2e50 <__udivdi3+0x14c>
    2f9c:	18d5e463          	bltu	a1,a3,3124 <__udivdi3+0x420>
    2fa0:	000107b7          	lui	a5,0x10
    2fa4:	04f6f463          	bgeu	a3,a5,2fec <__udivdi3+0x2e8>
    2fa8:	1006b793          	sltiu	a5,a3,256
    2fac:	0017b793          	seqz	a5,a5
    2fb0:	00379793          	slli	a5,a5,0x3
    2fb4:	0000b737          	lui	a4,0xb
    2fb8:	00f6d5b3          	srl	a1,a3,a5
    2fbc:	ff870713          	addi	a4,a4,-8 # aff8 <__clz_tab>
    2fc0:	00b70733          	add	a4,a4,a1
    2fc4:	00074703          	lbu	a4,0(a4)
    2fc8:	00f70733          	add	a4,a4,a5
    2fcc:	02000793          	li	a5,32
    2fd0:	40e785b3          	sub	a1,a5,a4
    2fd4:	02e79663          	bne	a5,a4,3000 <__udivdi3+0x2fc>
    2fd8:	00100513          	li	a0,1
    2fdc:	e066eee3          	bltu	a3,t1,2df8 <__udivdi3+0xf4>
    2fe0:	00c8b533          	sltu	a0,a7,a2
    2fe4:	00153513          	seqz	a0,a0
    2fe8:	00008067          	ret
    2fec:	01000737          	lui	a4,0x1000
    2ff0:	01800793          	li	a5,24
    2ff4:	fce6f0e3          	bgeu	a3,a4,2fb4 <__udivdi3+0x2b0>
    2ff8:	01000793          	li	a5,16
    2ffc:	fb9ff06f          	j	2fb4 <__udivdi3+0x2b0>
    3000:	00e65533          	srl	a0,a2,a4
    3004:	00b696b3          	sll	a3,a3,a1
    3008:	00e357b3          	srl	a5,t1,a4
    300c:	00d56533          	or	a0,a0,a3
    3010:	00b31333          	sll	t1,t1,a1
    3014:	00e8d733          	srl	a4,a7,a4
    3018:	00676733          	or	a4,a4,t1
    301c:	01055313          	srli	t1,a0,0x10
    3020:	0267deb3          	divu	t4,a5,t1
    3024:	01051813          	slli	a6,a0,0x10
    3028:	01085813          	srli	a6,a6,0x10
    302c:	01075693          	srli	a3,a4,0x10
    3030:	00b61633          	sll	a2,a2,a1
    3034:	0267f7b3          	remu	a5,a5,t1
    3038:	03d80e33          	mul	t3,a6,t4
    303c:	01079793          	slli	a5,a5,0x10
    3040:	00f6e6b3          	or	a3,a3,a5
    3044:	000e8793          	mv	a5,t4
    3048:	01c6fe63          	bgeu	a3,t3,3064 <__udivdi3+0x360>
    304c:	00d506b3          	add	a3,a0,a3
    3050:	fffe8793          	addi	a5,t4,-1
    3054:	00a6e863          	bltu	a3,a0,3064 <__udivdi3+0x360>
    3058:	01c6f663          	bgeu	a3,t3,3064 <__udivdi3+0x360>
    305c:	ffee8793          	addi	a5,t4,-2
    3060:	00a686b3          	add	a3,a3,a0
    3064:	41c686b3          	sub	a3,a3,t3
    3068:	0266de33          	divu	t3,a3,t1
    306c:	01071713          	slli	a4,a4,0x10
    3070:	01075713          	srli	a4,a4,0x10
    3074:	0266f6b3          	remu	a3,a3,t1
    3078:	03c80833          	mul	a6,a6,t3
    307c:	01069693          	slli	a3,a3,0x10
    3080:	00d76733          	or	a4,a4,a3
    3084:	000e0693          	mv	a3,t3
    3088:	01077e63          	bgeu	a4,a6,30a4 <__udivdi3+0x3a0>
    308c:	00e50733          	add	a4,a0,a4
    3090:	fffe0693          	addi	a3,t3,-1
    3094:	00a76863          	bltu	a4,a0,30a4 <__udivdi3+0x3a0>
    3098:	01077663          	bgeu	a4,a6,30a4 <__udivdi3+0x3a0>
    309c:	ffee0693          	addi	a3,t3,-2
    30a0:	00a70733          	add	a4,a4,a0
    30a4:	01079793          	slli	a5,a5,0x10
    30a8:	00d7e533          	or	a0,a5,a3
    30ac:	01061313          	slli	t1,a2,0x10
    30b0:	01069693          	slli	a3,a3,0x10
    30b4:	0106d693          	srli	a3,a3,0x10
    30b8:	01035313          	srli	t1,t1,0x10
    30bc:	01065613          	srli	a2,a2,0x10
    30c0:	41070733          	sub	a4,a4,a6
    30c4:	01055813          	srli	a6,a0,0x10
    30c8:	02668e33          	mul	t3,a3,t1
    30cc:	02680333          	mul	t1,a6,t1
    30d0:	010e5793          	srli	a5,t3,0x10
    30d4:	02c686b3          	mul	a3,a3,a2
    30d8:	006686b3          	add	a3,a3,t1
    30dc:	00d787b3          	add	a5,a5,a3
    30e0:	02c80833          	mul	a6,a6,a2
    30e4:	0067f663          	bgeu	a5,t1,30f0 <__udivdi3+0x3ec>
    30e8:	000106b7          	lui	a3,0x10
    30ec:	00d80833          	add	a6,a6,a3
    30f0:	0107d693          	srli	a3,a5,0x10
    30f4:	010686b3          	add	a3,a3,a6
    30f8:	02d76263          	bltu	a4,a3,311c <__udivdi3+0x418>
    30fc:	ced71ce3          	bne	a4,a3,2df4 <__udivdi3+0xf0>
    3100:	010e1e13          	slli	t3,t3,0x10
    3104:	01079793          	slli	a5,a5,0x10
    3108:	010e5e13          	srli	t3,t3,0x10
    310c:	00b898b3          	sll	a7,a7,a1
    3110:	01c787b3          	add	a5,a5,t3
    3114:	00000593          	li	a1,0
    3118:	cef8f0e3          	bgeu	a7,a5,2df8 <__udivdi3+0xf4>
    311c:	fff50513          	addi	a0,a0,-1 # ffffff <__stack_top+0xff269f>
    3120:	cd5ff06f          	j	2df4 <__udivdi3+0xf0>
    3124:	00000593          	li	a1,0
    3128:	00000513          	li	a0,0
    312c:	00008067          	ret

00003130 <__adddf3>:
    3130:	00100837          	lui	a6,0x100
    3134:	fff80813          	addi	a6,a6,-1 # fffff <__stack_top+0xf269f>
    3138:	fe010113          	addi	sp,sp,-32
    313c:	00b878b3          	and	a7,a6,a1
    3140:	0145d713          	srli	a4,a1,0x14
    3144:	00d87833          	and	a6,a6,a3
    3148:	01412423          	sw	s4,8(sp)
    314c:	7ff77a13          	andi	s4,a4,2047
    3150:	00389713          	slli	a4,a7,0x3
    3154:	0146d893          	srli	a7,a3,0x14
    3158:	01d55793          	srli	a5,a0,0x1d
    315c:	00381813          	slli	a6,a6,0x3
    3160:	01312623          	sw	s3,12(sp)
    3164:	7ff8f893          	andi	a7,a7,2047
    3168:	01f5d993          	srli	s3,a1,0x1f
    316c:	00112e23          	sw	ra,28(sp)
    3170:	01d65593          	srli	a1,a2,0x1d
    3174:	00812c23          	sw	s0,24(sp)
    3178:	00912a23          	sw	s1,20(sp)
    317c:	01212823          	sw	s2,16(sp)
    3180:	01512223          	sw	s5,4(sp)
    3184:	01f6d693          	srli	a3,a3,0x1f
    3188:	0105e5b3          	or	a1,a1,a6
    318c:	00e7e7b3          	or	a5,a5,a4
    3190:	00351513          	slli	a0,a0,0x3
    3194:	00361613          	slli	a2,a2,0x3
    3198:	411a0833          	sub	a6,s4,a7
    319c:	7ff00313          	li	t1,2047
    31a0:	32d99863          	bne	s3,a3,34d0 <__adddf3+0x3a0>
    31a4:	17005e63          	blez	a6,3320 <__adddf3+0x1f0>
    31a8:	0a089863          	bnez	a7,3258 <__adddf3+0x128>
    31ac:	00c5e733          	or	a4,a1,a2
    31b0:	02070663          	beqz	a4,31dc <__adddf3+0xac>
    31b4:	fffa0813          	addi	a6,s4,-1
    31b8:	02081063          	bnez	a6,31d8 <__adddf3+0xa8>
    31bc:	00c50633          	add	a2,a0,a2
    31c0:	00a63733          	sltu	a4,a2,a0
    31c4:	00b785b3          	add	a1,a5,a1
    31c8:	00060513          	mv	a0,a2
    31cc:	00e587b3          	add	a5,a1,a4
    31d0:	00100a13          	li	s4,1
    31d4:	0d40006f          	j	32a8 <__adddf3+0x178>
    31d8:	086a1663          	bne	s4,t1,3264 <__adddf3+0x134>
    31dc:	01d79693          	slli	a3,a5,0x1d
    31e0:	00355513          	srli	a0,a0,0x3
    31e4:	7ff00713          	li	a4,2047
    31e8:	00a6e6b3          	or	a3,a3,a0
    31ec:	0037d793          	srli	a5,a5,0x3
    31f0:	00ea1e63          	bne	s4,a4,320c <__adddf3+0xdc>
    31f4:	00f6e6b3          	or	a3,a3,a5
    31f8:	00000793          	li	a5,0
    31fc:	00068863          	beqz	a3,320c <__adddf3+0xdc>
    3200:	000807b7          	lui	a5,0x80
    3204:	00000693          	li	a3,0
    3208:	00000993          	li	s3,0
    320c:	014a1713          	slli	a4,s4,0x14
    3210:	7ff00637          	lui	a2,0x7ff00
    3214:	00c79793          	slli	a5,a5,0xc
    3218:	00c77733          	and	a4,a4,a2
    321c:	01c12083          	lw	ra,28(sp)
    3220:	01812403          	lw	s0,24(sp)
    3224:	00c7d793          	srli	a5,a5,0xc
    3228:	00f767b3          	or	a5,a4,a5
    322c:	01f99713          	slli	a4,s3,0x1f
    3230:	00e7e633          	or	a2,a5,a4
    3234:	01412483          	lw	s1,20(sp)
    3238:	01012903          	lw	s2,16(sp)
    323c:	00c12983          	lw	s3,12(sp)
    3240:	00812a03          	lw	s4,8(sp)
    3244:	00412a83          	lw	s5,4(sp)
    3248:	00068513          	mv	a0,a3
    324c:	00060593          	mv	a1,a2
    3250:	02010113          	addi	sp,sp,32
    3254:	00008067          	ret
    3258:	f86a02e3          	beq	s4,t1,31dc <__adddf3+0xac>
    325c:	00800737          	lui	a4,0x800
    3260:	00e5e5b3          	or	a1,a1,a4
    3264:	03800713          	li	a4,56
    3268:	0b074663          	blt	a4,a6,3314 <__adddf3+0x1e4>
    326c:	01f00713          	li	a4,31
    3270:	02000893          	li	a7,32
    3274:	07074863          	blt	a4,a6,32e4 <__adddf3+0x1b4>
    3278:	410888b3          	sub	a7,a7,a6
    327c:	01159733          	sll	a4,a1,a7
    3280:	010656b3          	srl	a3,a2,a6
    3284:	011618b3          	sll	a7,a2,a7
    3288:	00d76733          	or	a4,a4,a3
    328c:	011038b3          	snez	a7,a7
    3290:	01176733          	or	a4,a4,a7
    3294:	0105d833          	srl	a6,a1,a6
    3298:	00a70533          	add	a0,a4,a0
    329c:	00f80833          	add	a6,a6,a5
    32a0:	00e53733          	sltu	a4,a0,a4
    32a4:	00e807b3          	add	a5,a6,a4
    32a8:	00879713          	slli	a4,a5,0x8
    32ac:	1c075e63          	bgez	a4,3488 <__adddf3+0x358>
    32b0:	001a0a13          	addi	s4,s4,1
    32b4:	7ff00713          	li	a4,2047
    32b8:	5cea0863          	beq	s4,a4,3888 <__adddf3+0x758>
    32bc:	ff800737          	lui	a4,0xff800
    32c0:	fff70713          	addi	a4,a4,-1 # ff7fffff <__stack_top+0xff7f269f>
    32c4:	00e7f7b3          	and	a5,a5,a4
    32c8:	00155713          	srli	a4,a0,0x1
    32cc:	00157513          	andi	a0,a0,1
    32d0:	00a76733          	or	a4,a4,a0
    32d4:	01f79513          	slli	a0,a5,0x1f
    32d8:	00e56533          	or	a0,a0,a4
    32dc:	0017d793          	srli	a5,a5,0x1
    32e0:	1a80006f          	j	3488 <__adddf3+0x358>
    32e4:	fe080713          	addi	a4,a6,-32
    32e8:	00e5d733          	srl	a4,a1,a4
    32ec:	00000693          	li	a3,0
    32f0:	01180863          	beq	a6,a7,3300 <__adddf3+0x1d0>
    32f4:	04000693          	li	a3,64
    32f8:	410686b3          	sub	a3,a3,a6
    32fc:	00d596b3          	sll	a3,a1,a3
    3300:	00c6e6b3          	or	a3,a3,a2
    3304:	00d036b3          	snez	a3,a3
    3308:	00d76733          	or	a4,a4,a3
    330c:	00000813          	li	a6,0
    3310:	f89ff06f          	j	3298 <__adddf3+0x168>
    3314:	00c5e733          	or	a4,a1,a2
    3318:	00e03733          	snez	a4,a4
    331c:	ff1ff06f          	j	330c <__adddf3+0x1dc>
    3320:	0c080663          	beqz	a6,33ec <__adddf3+0x2bc>
    3324:	41488733          	sub	a4,a7,s4
    3328:	020a1463          	bnez	s4,3350 <__adddf3+0x220>
    332c:	00a7e6b3          	or	a3,a5,a0
    3330:	00068863          	beqz	a3,3340 <__adddf3+0x210>
    3334:	fff70693          	addi	a3,a4,-1
    3338:	e80682e3          	beqz	a3,31bc <__adddf3+0x8c>
    333c:	02671263          	bne	a4,t1,3360 <__adddf3+0x230>
    3340:	00058793          	mv	a5,a1
    3344:	00060513          	mv	a0,a2
    3348:	00070a13          	mv	s4,a4
    334c:	e91ff06f          	j	31dc <__adddf3+0xac>
    3350:	54688263          	beq	a7,t1,3894 <__adddf3+0x764>
    3354:	008006b7          	lui	a3,0x800
    3358:	00d7e7b3          	or	a5,a5,a3
    335c:	00070693          	mv	a3,a4
    3360:	03800713          	li	a4,56
    3364:	06d74e63          	blt	a4,a3,33e0 <__adddf3+0x2b0>
    3368:	01f00713          	li	a4,31
    336c:	02000313          	li	t1,32
    3370:	04d74063          	blt	a4,a3,33b0 <__adddf3+0x280>
    3374:	40d30333          	sub	t1,t1,a3
    3378:	00679733          	sll	a4,a5,t1
    337c:	00d55833          	srl	a6,a0,a3
    3380:	00651333          	sll	t1,a0,t1
    3384:	01076733          	or	a4,a4,a6
    3388:	00603333          	snez	t1,t1
    338c:	00676733          	or	a4,a4,t1
    3390:	00d7d6b3          	srl	a3,a5,a3
    3394:	00c70633          	add	a2,a4,a2
    3398:	00b686b3          	add	a3,a3,a1
    339c:	00e63733          	sltu	a4,a2,a4
    33a0:	00060513          	mv	a0,a2
    33a4:	00e687b3          	add	a5,a3,a4
    33a8:	00088a13          	mv	s4,a7
    33ac:	efdff06f          	j	32a8 <__adddf3+0x178>
    33b0:	fe068713          	addi	a4,a3,-32 # 7fffe0 <__stack_top+0x7f2680>
    33b4:	00e7d733          	srl	a4,a5,a4
    33b8:	00000813          	li	a6,0
    33bc:	00668863          	beq	a3,t1,33cc <__adddf3+0x29c>
    33c0:	04000813          	li	a6,64
    33c4:	40d80833          	sub	a6,a6,a3
    33c8:	01079833          	sll	a6,a5,a6
    33cc:	00a86833          	or	a6,a6,a0
    33d0:	01003833          	snez	a6,a6
    33d4:	01076733          	or	a4,a4,a6
    33d8:	00000693          	li	a3,0
    33dc:	fb9ff06f          	j	3394 <__adddf3+0x264>
    33e0:	00a7e733          	or	a4,a5,a0
    33e4:	00e03733          	snez	a4,a4
    33e8:	ff1ff06f          	j	33d8 <__adddf3+0x2a8>
    33ec:	001a0713          	addi	a4,s4,1
    33f0:	7fe77693          	andi	a3,a4,2046
    33f4:	06069663          	bnez	a3,3460 <__adddf3+0x330>
    33f8:	00a7e733          	or	a4,a5,a0
    33fc:	040a1263          	bnez	s4,3440 <__adddf3+0x310>
    3400:	46070263          	beqz	a4,3864 <__adddf3+0x734>
    3404:	00c5e733          	or	a4,a1,a2
    3408:	46070263          	beqz	a4,386c <__adddf3+0x73c>
    340c:	00c50733          	add	a4,a0,a2
    3410:	00b785b3          	add	a1,a5,a1
    3414:	00a737b3          	sltu	a5,a4,a0
    3418:	00f587b3          	add	a5,a1,a5
    341c:	00879693          	slli	a3,a5,0x8
    3420:	00070613          	mv	a2,a4
    3424:	2c06de63          	bgez	a3,3700 <__adddf3+0x5d0>
    3428:	ff8006b7          	lui	a3,0xff800
    342c:	fff68693          	addi	a3,a3,-1 # ff7fffff <__stack_top+0xff7f269f>
    3430:	00d7f7b3          	and	a5,a5,a3
    3434:	00070513          	mv	a0,a4
    3438:	00100a13          	li	s4,1
    343c:	da1ff06f          	j	31dc <__adddf3+0xac>
    3440:	42070a63          	beqz	a4,3874 <__adddf3+0x744>
    3444:	00c5e633          	or	a2,a1,a2
    3448:	00030a13          	mv	s4,t1
    344c:	d80608e3          	beqz	a2,31dc <__adddf3+0xac>
    3450:	00000993          	li	s3,0
    3454:	004007b7          	lui	a5,0x400
    3458:	00000513          	li	a0,0
    345c:	d81ff06f          	j	31dc <__adddf3+0xac>
    3460:	42670263          	beq	a4,t1,3884 <__adddf3+0x754>
    3464:	00c50633          	add	a2,a0,a2
    3468:	00a63533          	sltu	a0,a2,a0
    346c:	00b785b3          	add	a1,a5,a1
    3470:	00a585b3          	add	a1,a1,a0
    3474:	01f59513          	slli	a0,a1,0x1f
    3478:	00165613          	srli	a2,a2,0x1
    347c:	00c56533          	or	a0,a0,a2
    3480:	0015d793          	srli	a5,a1,0x1
    3484:	00070a13          	mv	s4,a4
    3488:	00757713          	andi	a4,a0,7
    348c:	02070063          	beqz	a4,34ac <__adddf3+0x37c>
    3490:	00f57713          	andi	a4,a0,15
    3494:	00400693          	li	a3,4
    3498:	00d70a63          	beq	a4,a3,34ac <__adddf3+0x37c>
    349c:	00d50733          	add	a4,a0,a3
    34a0:	00a736b3          	sltu	a3,a4,a0
    34a4:	00d787b3          	add	a5,a5,a3
    34a8:	00070513          	mv	a0,a4
    34ac:	00879713          	slli	a4,a5,0x8
    34b0:	d20756e3          	bgez	a4,31dc <__adddf3+0xac>
    34b4:	001a0a13          	addi	s4,s4,1
    34b8:	7ff00713          	li	a4,2047
    34bc:	3cea0663          	beq	s4,a4,3888 <__adddf3+0x758>
    34c0:	ff800737          	lui	a4,0xff800
    34c4:	fff70713          	addi	a4,a4,-1 # ff7fffff <__stack_top+0xff7f269f>
    34c8:	00e7f7b3          	and	a5,a5,a4
    34cc:	d11ff06f          	j	31dc <__adddf3+0xac>
    34d0:	0f005463          	blez	a6,35b8 <__adddf3+0x488>
    34d4:	08089c63          	bnez	a7,356c <__adddf3+0x43c>
    34d8:	00c5e733          	or	a4,a1,a2
    34dc:	d00700e3          	beqz	a4,31dc <__adddf3+0xac>
    34e0:	fffa0813          	addi	a6,s4,-1
    34e4:	02081063          	bnez	a6,3504 <__adddf3+0x3d4>
    34e8:	40c50633          	sub	a2,a0,a2
    34ec:	00c53733          	sltu	a4,a0,a2
    34f0:	40b785b3          	sub	a1,a5,a1
    34f4:	00060513          	mv	a0,a2
    34f8:	40e587b3          	sub	a5,a1,a4
    34fc:	00100a13          	li	s4,1
    3500:	0500006f          	j	3550 <__adddf3+0x420>
    3504:	cc6a0ce3          	beq	s4,t1,31dc <__adddf3+0xac>
    3508:	03800713          	li	a4,56
    350c:	0b074063          	blt	a4,a6,35ac <__adddf3+0x47c>
    3510:	01f00713          	li	a4,31
    3514:	02000893          	li	a7,32
    3518:	07074263          	blt	a4,a6,357c <__adddf3+0x44c>
    351c:	410888b3          	sub	a7,a7,a6
    3520:	01159733          	sll	a4,a1,a7
    3524:	010656b3          	srl	a3,a2,a6
    3528:	011618b3          	sll	a7,a2,a7
    352c:	00d76733          	or	a4,a4,a3
    3530:	011038b3          	snez	a7,a7
    3534:	01176733          	or	a4,a4,a7
    3538:	0105d833          	srl	a6,a1,a6
    353c:	40e50733          	sub	a4,a0,a4
    3540:	00e536b3          	sltu	a3,a0,a4
    3544:	41078833          	sub	a6,a5,a6
    3548:	00070513          	mv	a0,a4
    354c:	40d807b3          	sub	a5,a6,a3
    3550:	00879713          	slli	a4,a5,0x8
    3554:	f2075ae3          	bgez	a4,3488 <__adddf3+0x358>
    3558:	00800937          	lui	s2,0x800
    355c:	fff90913          	addi	s2,s2,-1 # 7fffff <__stack_top+0x7f269f>
    3560:	0127f933          	and	s2,a5,s2
    3564:	00050a93          	mv	s5,a0
    3568:	2180006f          	j	3780 <__adddf3+0x650>
    356c:	c66a08e3          	beq	s4,t1,31dc <__adddf3+0xac>
    3570:	00800737          	lui	a4,0x800
    3574:	00e5e5b3          	or	a1,a1,a4
    3578:	f91ff06f          	j	3508 <__adddf3+0x3d8>
    357c:	fe080713          	addi	a4,a6,-32
    3580:	00e5d733          	srl	a4,a1,a4
    3584:	00000693          	li	a3,0
    3588:	01180863          	beq	a6,a7,3598 <__adddf3+0x468>
    358c:	04000693          	li	a3,64
    3590:	410686b3          	sub	a3,a3,a6
    3594:	00d596b3          	sll	a3,a1,a3
    3598:	00c6e6b3          	or	a3,a3,a2
    359c:	00d036b3          	snez	a3,a3
    35a0:	00d76733          	or	a4,a4,a3
    35a4:	00000813          	li	a6,0
    35a8:	f95ff06f          	j	353c <__adddf3+0x40c>
    35ac:	00c5e733          	or	a4,a1,a2
    35b0:	00e03733          	snez	a4,a4
    35b4:	ff1ff06f          	j	35a4 <__adddf3+0x474>
    35b8:	0e080463          	beqz	a6,36a0 <__adddf3+0x570>
    35bc:	41488833          	sub	a6,a7,s4
    35c0:	040a1263          	bnez	s4,3604 <__adddf3+0x4d4>
    35c4:	00a7e733          	or	a4,a5,a0
    35c8:	02070463          	beqz	a4,35f0 <__adddf3+0x4c0>
    35cc:	fff80713          	addi	a4,a6,-1
    35d0:	00071e63          	bnez	a4,35ec <__adddf3+0x4bc>
    35d4:	40a60533          	sub	a0,a2,a0
    35d8:	40f585b3          	sub	a1,a1,a5
    35dc:	00a63633          	sltu	a2,a2,a0
    35e0:	40c587b3          	sub	a5,a1,a2
    35e4:	00068993          	mv	s3,a3
    35e8:	f15ff06f          	j	34fc <__adddf3+0x3cc>
    35ec:	02681463          	bne	a6,t1,3614 <__adddf3+0x4e4>
    35f0:	00068993          	mv	s3,a3
    35f4:	00058793          	mv	a5,a1
    35f8:	00060513          	mv	a0,a2
    35fc:	00080a13          	mv	s4,a6
    3600:	bddff06f          	j	31dc <__adddf3+0xac>
    3604:	28688663          	beq	a7,t1,3890 <__adddf3+0x760>
    3608:	00800737          	lui	a4,0x800
    360c:	00e7e7b3          	or	a5,a5,a4
    3610:	00080713          	mv	a4,a6
    3614:	03800813          	li	a6,56
    3618:	06e84e63          	blt	a6,a4,3694 <__adddf3+0x564>
    361c:	01f00813          	li	a6,31
    3620:	02000e13          	li	t3,32
    3624:	04e84063          	blt	a6,a4,3664 <__adddf3+0x534>
    3628:	40ee0e33          	sub	t3,t3,a4
    362c:	00e55333          	srl	t1,a0,a4
    3630:	01c79833          	sll	a6,a5,t3
    3634:	01c51e33          	sll	t3,a0,t3
    3638:	00686833          	or	a6,a6,t1
    363c:	01c03e33          	snez	t3,t3
    3640:	01c86533          	or	a0,a6,t3
    3644:	00e7d733          	srl	a4,a5,a4
    3648:	40a60533          	sub	a0,a2,a0
    364c:	40e58733          	sub	a4,a1,a4
    3650:	00a63633          	sltu	a2,a2,a0
    3654:	40c707b3          	sub	a5,a4,a2
    3658:	00088a13          	mv	s4,a7
    365c:	00068993          	mv	s3,a3
    3660:	ef1ff06f          	j	3550 <__adddf3+0x420>
    3664:	fe070813          	addi	a6,a4,-32 # 7fffe0 <__stack_top+0x7f2680>
    3668:	0107d833          	srl	a6,a5,a6
    366c:	00000313          	li	t1,0
    3670:	01c70863          	beq	a4,t3,3680 <__adddf3+0x550>
    3674:	04000313          	li	t1,64
    3678:	40e30333          	sub	t1,t1,a4
    367c:	00679333          	sll	t1,a5,t1
    3680:	00a36333          	or	t1,t1,a0
    3684:	00603333          	snez	t1,t1
    3688:	00686533          	or	a0,a6,t1
    368c:	00000713          	li	a4,0
    3690:	fb9ff06f          	j	3648 <__adddf3+0x518>
    3694:	00a7e533          	or	a0,a5,a0
    3698:	00a03533          	snez	a0,a0
    369c:	ff1ff06f          	j	368c <__adddf3+0x55c>
    36a0:	001a0713          	addi	a4,s4,1
    36a4:	7fe77713          	andi	a4,a4,2046
    36a8:	0a071463          	bnez	a4,3750 <__adddf3+0x620>
    36ac:	00a7e833          	or	a6,a5,a0
    36b0:	00c5e733          	or	a4,a1,a2
    36b4:	060a1a63          	bnez	s4,3728 <__adddf3+0x5f8>
    36b8:	00081a63          	bnez	a6,36cc <__adddf3+0x59c>
    36bc:	00058793          	mv	a5,a1
    36c0:	02071e63          	bnez	a4,36fc <__adddf3+0x5cc>
    36c4:	00000993          	li	s3,0
    36c8:	1c00006f          	j	3888 <__adddf3+0x758>
    36cc:	1a070063          	beqz	a4,386c <__adddf3+0x73c>
    36d0:	40c50833          	sub	a6,a0,a2
    36d4:	010538b3          	sltu	a7,a0,a6
    36d8:	40b78733          	sub	a4,a5,a1
    36dc:	41170733          	sub	a4,a4,a7
    36e0:	00871893          	slli	a7,a4,0x8
    36e4:	0208d863          	bgez	a7,3714 <__adddf3+0x5e4>
    36e8:	40a60533          	sub	a0,a2,a0
    36ec:	00a63733          	sltu	a4,a2,a0
    36f0:	40f585b3          	sub	a1,a1,a5
    36f4:	00050613          	mv	a2,a0
    36f8:	40e587b3          	sub	a5,a1,a4
    36fc:	00068993          	mv	s3,a3
    3700:	00c7e533          	or	a0,a5,a2
    3704:	0e050663          	beqz	a0,37f0 <__adddf3+0x6c0>
    3708:	00060513          	mv	a0,a2
    370c:	00000a13          	li	s4,0
    3710:	d79ff06f          	j	3488 <__adddf3+0x358>
    3714:	00e86533          	or	a0,a6,a4
    3718:	18050663          	beqz	a0,38a4 <__adddf3+0x774>
    371c:	00070793          	mv	a5,a4
    3720:	00080613          	mv	a2,a6
    3724:	fddff06f          	j	3700 <__adddf3+0x5d0>
    3728:	00081e63          	bnez	a6,3744 <__adddf3+0x614>
    372c:	00068993          	mv	s3,a3
    3730:	14071263          	bnez	a4,3874 <__adddf3+0x744>
    3734:	00000993          	li	s3,0
    3738:	004007b7          	lui	a5,0x400
    373c:	00000513          	li	a0,0
    3740:	13c0006f          	j	387c <__adddf3+0x74c>
    3744:	00030a13          	mv	s4,t1
    3748:	a8070ae3          	beqz	a4,31dc <__adddf3+0xac>
    374c:	d05ff06f          	j	3450 <__adddf3+0x320>
    3750:	40c50733          	sub	a4,a0,a2
    3754:	00e53833          	sltu	a6,a0,a4
    3758:	40b78933          	sub	s2,a5,a1
    375c:	41090933          	sub	s2,s2,a6
    3760:	00891813          	slli	a6,s2,0x8
    3764:	00070a93          	mv	s5,a4
    3768:	06085e63          	bgez	a6,37e4 <__adddf3+0x6b4>
    376c:	40a60ab3          	sub	s5,a2,a0
    3770:	40f58933          	sub	s2,a1,a5
    3774:	01563633          	sltu	a2,a2,s5
    3778:	40c90933          	sub	s2,s2,a2
    377c:	00068993          	mv	s3,a3
    3780:	06090e63          	beqz	s2,37fc <__adddf3+0x6cc>
    3784:	00090513          	mv	a0,s2
    3788:	1a0020ef          	jal	5928 <__clzsi2>
    378c:	ff850613          	addi	a2,a0,-8
    3790:	02000793          	li	a5,32
    3794:	40c787b3          	sub	a5,a5,a2
    3798:	00c91933          	sll	s2,s2,a2
    379c:	00fad7b3          	srl	a5,s5,a5
    37a0:	0127e7b3          	or	a5,a5,s2
    37a4:	00ca9933          	sll	s2,s5,a2
    37a8:	0b464263          	blt	a2,s4,384c <__adddf3+0x71c>
    37ac:	41460633          	sub	a2,a2,s4
    37b0:	00160593          	addi	a1,a2,1 # 7ff00001 <__stack_top+0x7fef26a1>
    37b4:	01f00713          	li	a4,31
    37b8:	02000693          	li	a3,32
    37bc:	06b74063          	blt	a4,a1,381c <__adddf3+0x6ec>
    37c0:	40b686b3          	sub	a3,a3,a1
    37c4:	00d79633          	sll	a2,a5,a3
    37c8:	00b95733          	srl	a4,s2,a1
    37cc:	00d916b3          	sll	a3,s2,a3
    37d0:	00e66633          	or	a2,a2,a4
    37d4:	00d036b3          	snez	a3,a3
    37d8:	00d66633          	or	a2,a2,a3
    37dc:	00b7d7b3          	srl	a5,a5,a1
    37e0:	f21ff06f          	j	3700 <__adddf3+0x5d0>
    37e4:	01276533          	or	a0,a4,s2
    37e8:	f8051ce3          	bnez	a0,3780 <__adddf3+0x650>
    37ec:	00000993          	li	s3,0
    37f0:	00000793          	li	a5,0
    37f4:	00000a13          	li	s4,0
    37f8:	9e5ff06f          	j	31dc <__adddf3+0xac>
    37fc:	000a8513          	mv	a0,s5
    3800:	128020ef          	jal	5928 <__clzsi2>
    3804:	01850613          	addi	a2,a0,24
    3808:	01f00793          	li	a5,31
    380c:	f8c7d2e3          	bge	a5,a2,3790 <__adddf3+0x660>
    3810:	ff850793          	addi	a5,a0,-8
    3814:	00fa97b3          	sll	a5,s5,a5
    3818:	f91ff06f          	j	37a8 <__adddf3+0x678>
    381c:	fe160613          	addi	a2,a2,-31
    3820:	00c7d633          	srl	a2,a5,a2
    3824:	00000713          	li	a4,0
    3828:	00d58863          	beq	a1,a3,3838 <__adddf3+0x708>
    382c:	04000713          	li	a4,64
    3830:	40b70733          	sub	a4,a4,a1
    3834:	00e79733          	sll	a4,a5,a4
    3838:	00e96733          	or	a4,s2,a4
    383c:	00e03733          	snez	a4,a4
    3840:	00e66633          	or	a2,a2,a4
    3844:	00000793          	li	a5,0
    3848:	eb9ff06f          	j	3700 <__adddf3+0x5d0>
    384c:	ff800737          	lui	a4,0xff800
    3850:	fff70713          	addi	a4,a4,-1 # ff7fffff <__stack_top+0xff7f269f>
    3854:	40ca0a33          	sub	s4,s4,a2
    3858:	00e7f7b3          	and	a5,a5,a4
    385c:	00090513          	mv	a0,s2
    3860:	c29ff06f          	j	3488 <__adddf3+0x358>
    3864:	00058793          	mv	a5,a1
    3868:	e99ff06f          	j	3700 <__adddf3+0x5d0>
    386c:	00050613          	mv	a2,a0
    3870:	e91ff06f          	j	3700 <__adddf3+0x5d0>
    3874:	00058793          	mv	a5,a1
    3878:	00060513          	mv	a0,a2
    387c:	00030a13          	mv	s4,t1
    3880:	95dff06f          	j	31dc <__adddf3+0xac>
    3884:	00070a13          	mv	s4,a4
    3888:	00000793          	li	a5,0
    388c:	bcdff06f          	j	3458 <__adddf3+0x328>
    3890:	00068993          	mv	s3,a3
    3894:	00058793          	mv	a5,a1
    3898:	00060513          	mv	a0,a2
    389c:	00088a13          	mv	s4,a7
    38a0:	93dff06f          	j	31dc <__adddf3+0xac>
    38a4:	00000993          	li	s3,0
    38a8:	00000793          	li	a5,0
    38ac:	931ff06f          	j	31dc <__adddf3+0xac>

000038b0 <__divdf3>:
    38b0:	fd010113          	addi	sp,sp,-48
    38b4:	01812423          	sw	s8,8(sp)
    38b8:	0145dc13          	srli	s8,a1,0x14
    38bc:	02812423          	sw	s0,40(sp)
    38c0:	01412c23          	sw	s4,24(sp)
    38c4:	01512a23          	sw	s5,20(sp)
    38c8:	01712623          	sw	s7,12(sp)
    38cc:	01912223          	sw	s9,4(sp)
    38d0:	00c59413          	slli	s0,a1,0xc
    38d4:	02112623          	sw	ra,44(sp)
    38d8:	02912223          	sw	s1,36(sp)
    38dc:	03212023          	sw	s2,32(sp)
    38e0:	01312e23          	sw	s3,28(sp)
    38e4:	01612823          	sw	s6,16(sp)
    38e8:	7ffc7713          	andi	a4,s8,2047
    38ec:	00050b93          	mv	s7,a0
    38f0:	00060c93          	mv	s9,a2
    38f4:	00068a93          	mv	s5,a3
    38f8:	00c45413          	srli	s0,s0,0xc
    38fc:	01f5da13          	srli	s4,a1,0x1f
    3900:	0a070063          	beqz	a4,39a0 <__divdf3+0xf0>
    3904:	7ff00793          	li	a5,2047
    3908:	10f70063          	beq	a4,a5,3a08 <__divdf3+0x158>
    390c:	01d55b13          	srli	s6,a0,0x1d
    3910:	00341413          	slli	s0,s0,0x3
    3914:	008b6b33          	or	s6,s6,s0
    3918:	008007b7          	lui	a5,0x800
    391c:	00fb6b33          	or	s6,s6,a5
    3920:	00351493          	slli	s1,a0,0x3
    3924:	c0170c13          	addi	s8,a4,-1023
    3928:	00000b93          	li	s7,0
    392c:	014ad693          	srli	a3,s5,0x14
    3930:	00ca9413          	slli	s0,s5,0xc
    3934:	7ff6f693          	andi	a3,a3,2047
    3938:	00c45413          	srli	s0,s0,0xc
    393c:	01fada93          	srli	s5,s5,0x1f
    3940:	10068263          	beqz	a3,3a44 <__divdf3+0x194>
    3944:	7ff00793          	li	a5,2047
    3948:	16f68663          	beq	a3,a5,3ab4 <__divdf3+0x204>
    394c:	00341413          	slli	s0,s0,0x3
    3950:	01dcd793          	srli	a5,s9,0x1d
    3954:	0087e7b3          	or	a5,a5,s0
    3958:	00800437          	lui	s0,0x800
    395c:	0087e433          	or	s0,a5,s0
    3960:	003c9f13          	slli	t5,s9,0x3
    3964:	c0168693          	addi	a3,a3,-1023
    3968:	00000593          	li	a1,0
    396c:	002b9793          	slli	a5,s7,0x2
    3970:	00b7e7b3          	or	a5,a5,a1
    3974:	40dc0733          	sub	a4,s8,a3
    3978:	fff78793          	addi	a5,a5,-1 # 7fffff <__stack_top+0x7f269f>
    397c:	00e00693          	li	a3,14
    3980:	015a4633          	xor	a2,s4,s5
    3984:	16f6e063          	bltu	a3,a5,3ae4 <__divdf3+0x234>
    3988:	0000b6b7          	lui	a3,0xb
    398c:	00279793          	slli	a5,a5,0x2
    3990:	f8068693          	addi	a3,a3,-128 # af80 <Arr_2_Glob+0x2eb8>
    3994:	00d787b3          	add	a5,a5,a3
    3998:	0007a783          	lw	a5,0(a5)
    399c:	00078067          	jr	a5
    39a0:	00a46b33          	or	s6,s0,a0
    39a4:	060b0e63          	beqz	s6,3a20 <__divdf3+0x170>
    39a8:	02040e63          	beqz	s0,39e4 <__divdf3+0x134>
    39ac:	00040513          	mv	a0,s0
    39b0:	779010ef          	jal	5928 <__clzsi2>
    39b4:	ff550793          	addi	a5,a0,-11
    39b8:	01d00b13          	li	s6,29
    39bc:	ff850713          	addi	a4,a0,-8
    39c0:	40fb0b33          	sub	s6,s6,a5
    39c4:	00e41433          	sll	s0,s0,a4
    39c8:	016bdb33          	srl	s6,s7,s6
    39cc:	008b6b33          	or	s6,s6,s0
    39d0:	00eb9433          	sll	s0,s7,a4
    39d4:	c0d00713          	li	a4,-1011
    39d8:	40a70c33          	sub	s8,a4,a0
    39dc:	00040493          	mv	s1,s0
    39e0:	f49ff06f          	j	3928 <__divdf3+0x78>
    39e4:	745010ef          	jal	5928 <__clzsi2>
    39e8:	00050b13          	mv	s6,a0
    39ec:	015b0793          	addi	a5,s6,21
    39f0:	01c00713          	li	a4,28
    39f4:	02050513          	addi	a0,a0,32
    39f8:	fcf750e3          	bge	a4,a5,39b8 <__divdf3+0x108>
    39fc:	ff8b0b13          	addi	s6,s6,-8
    3a00:	016b9b33          	sll	s6,s7,s6
    3a04:	fd1ff06f          	j	39d4 <__divdf3+0x124>
    3a08:	00a46b33          	or	s6,s0,a0
    3a0c:	020b1263          	bnez	s6,3a30 <__divdf3+0x180>
    3a10:	00000493          	li	s1,0
    3a14:	00070c13          	mv	s8,a4
    3a18:	00200b93          	li	s7,2
    3a1c:	f11ff06f          	j	392c <__divdf3+0x7c>
    3a20:	00000493          	li	s1,0
    3a24:	00000c13          	li	s8,0
    3a28:	00100b93          	li	s7,1
    3a2c:	f01ff06f          	j	392c <__divdf3+0x7c>
    3a30:	00050493          	mv	s1,a0
    3a34:	00040b13          	mv	s6,s0
    3a38:	00070c13          	mv	s8,a4
    3a3c:	00300b93          	li	s7,3
    3a40:	eedff06f          	j	392c <__divdf3+0x7c>
    3a44:	01946f33          	or	t5,s0,s9
    3a48:	080f0063          	beqz	t5,3ac8 <__divdf3+0x218>
    3a4c:	04040063          	beqz	s0,3a8c <__divdf3+0x1dc>
    3a50:	00040513          	mv	a0,s0
    3a54:	6d5010ef          	jal	5928 <__clzsi2>
    3a58:	ff550713          	addi	a4,a0,-11
    3a5c:	01d00793          	li	a5,29
    3a60:	ff850693          	addi	a3,a0,-8
    3a64:	40e787b3          	sub	a5,a5,a4
    3a68:	00d41433          	sll	s0,s0,a3
    3a6c:	00fcd7b3          	srl	a5,s9,a5
    3a70:	0087e7b3          	or	a5,a5,s0
    3a74:	00dc9433          	sll	s0,s9,a3
    3a78:	c0d00693          	li	a3,-1011
    3a7c:	00040f13          	mv	t5,s0
    3a80:	40a686b3          	sub	a3,a3,a0
    3a84:	00078413          	mv	s0,a5
    3a88:	ee1ff06f          	j	3968 <__divdf3+0xb8>
    3a8c:	000c8513          	mv	a0,s9
    3a90:	699010ef          	jal	5928 <__clzsi2>
    3a94:	00050793          	mv	a5,a0
    3a98:	01578713          	addi	a4,a5,21
    3a9c:	01c00693          	li	a3,28
    3aa0:	02050513          	addi	a0,a0,32
    3aa4:	fae6dce3          	bge	a3,a4,3a5c <__divdf3+0x1ac>
    3aa8:	ff878793          	addi	a5,a5,-8
    3aac:	00fc97b3          	sll	a5,s9,a5
    3ab0:	fc9ff06f          	j	3a78 <__divdf3+0x1c8>
    3ab4:	01946f33          	or	t5,s0,s9
    3ab8:	020f1063          	bnez	t5,3ad8 <__divdf3+0x228>
    3abc:	00000413          	li	s0,0
    3ac0:	00200593          	li	a1,2
    3ac4:	ea9ff06f          	j	396c <__divdf3+0xbc>
    3ac8:	00000413          	li	s0,0
    3acc:	00000693          	li	a3,0
    3ad0:	00100593          	li	a1,1
    3ad4:	e99ff06f          	j	396c <__divdf3+0xbc>
    3ad8:	000c8f13          	mv	t5,s9
    3adc:	00300593          	li	a1,3
    3ae0:	e8dff06f          	j	396c <__divdf3+0xbc>
    3ae4:	01646663          	bltu	s0,s6,3af0 <__divdf3+0x240>
    3ae8:	348b1a63          	bne	s6,s0,3e3c <__divdf3+0x58c>
    3aec:	35e4e863          	bltu	s1,t5,3e3c <__divdf3+0x58c>
    3af0:	01fb1693          	slli	a3,s6,0x1f
    3af4:	0014d793          	srli	a5,s1,0x1
    3af8:	01f49313          	slli	t1,s1,0x1f
    3afc:	001b5b13          	srli	s6,s6,0x1
    3b00:	00f6e4b3          	or	s1,a3,a5
    3b04:	00841813          	slli	a6,s0,0x8
    3b08:	018f5693          	srli	a3,t5,0x18
    3b0c:	0106e6b3          	or	a3,a3,a6
    3b10:	01085813          	srli	a6,a6,0x10
    3b14:	030b5eb3          	divu	t4,s6,a6
    3b18:	01069893          	slli	a7,a3,0x10
    3b1c:	0108d893          	srli	a7,a7,0x10
    3b20:	0104d793          	srli	a5,s1,0x10
    3b24:	008f1593          	slli	a1,t5,0x8
    3b28:	030b7b33          	remu	s6,s6,a6
    3b2c:	000e8513          	mv	a0,t4
    3b30:	03d88e33          	mul	t3,a7,t4
    3b34:	010b1b13          	slli	s6,s6,0x10
    3b38:	0167e7b3          	or	a5,a5,s6
    3b3c:	01c7fe63          	bgeu	a5,t3,3b58 <__divdf3+0x2a8>
    3b40:	00f687b3          	add	a5,a3,a5
    3b44:	fffe8513          	addi	a0,t4,-1
    3b48:	00d7e863          	bltu	a5,a3,3b58 <__divdf3+0x2a8>
    3b4c:	01c7f663          	bgeu	a5,t3,3b58 <__divdf3+0x2a8>
    3b50:	ffee8513          	addi	a0,t4,-2
    3b54:	00d787b3          	add	a5,a5,a3
    3b58:	41c787b3          	sub	a5,a5,t3
    3b5c:	0307deb3          	divu	t4,a5,a6
    3b60:	01049493          	slli	s1,s1,0x10
    3b64:	0104d493          	srli	s1,s1,0x10
    3b68:	0307f7b3          	remu	a5,a5,a6
    3b6c:	03d88e33          	mul	t3,a7,t4
    3b70:	01079793          	slli	a5,a5,0x10
    3b74:	00f4e4b3          	or	s1,s1,a5
    3b78:	000e8793          	mv	a5,t4
    3b7c:	01c4fe63          	bgeu	s1,t3,3b98 <__divdf3+0x2e8>
    3b80:	009684b3          	add	s1,a3,s1
    3b84:	fffe8793          	addi	a5,t4,-1
    3b88:	00d4e863          	bltu	s1,a3,3b98 <__divdf3+0x2e8>
    3b8c:	01c4f663          	bgeu	s1,t3,3b98 <__divdf3+0x2e8>
    3b90:	ffee8793          	addi	a5,t4,-2
    3b94:	00d484b3          	add	s1,s1,a3
    3b98:	01051513          	slli	a0,a0,0x10
    3b9c:	00f56533          	or	a0,a0,a5
    3ba0:	01051793          	slli	a5,a0,0x10
    3ba4:	01059e93          	slli	t4,a1,0x10
    3ba8:	01055f93          	srli	t6,a0,0x10
    3bac:	0107d793          	srli	a5,a5,0x10
    3bb0:	010ede93          	srli	t4,t4,0x10
    3bb4:	41c484b3          	sub	s1,s1,t3
    3bb8:	0105de13          	srli	t3,a1,0x10
    3bbc:	03d782b3          	mul	t0,a5,t4
    3bc0:	03df83b3          	mul	t2,t6,t4
    3bc4:	02fe07b3          	mul	a5,t3,a5
    3bc8:	00778f33          	add	t5,a5,t2
    3bcc:	0102d793          	srli	a5,t0,0x10
    3bd0:	01e787b3          	add	a5,a5,t5
    3bd4:	03cf8fb3          	mul	t6,t6,t3
    3bd8:	0077f663          	bgeu	a5,t2,3be4 <__divdf3+0x334>
    3bdc:	00010f37          	lui	t5,0x10
    3be0:	01ef8fb3          	add	t6,t6,t5
    3be4:	0107df13          	srli	t5,a5,0x10
    3be8:	01029293          	slli	t0,t0,0x10
    3bec:	01079793          	slli	a5,a5,0x10
    3bf0:	0102d293          	srli	t0,t0,0x10
    3bf4:	01ff0f33          	add	t5,t5,t6
    3bf8:	005787b3          	add	a5,a5,t0
    3bfc:	01e4e863          	bltu	s1,t5,3c0c <__divdf3+0x35c>
    3c00:	00050413          	mv	s0,a0
    3c04:	05e49863          	bne	s1,t5,3c54 <__divdf3+0x3a4>
    3c08:	04f37663          	bgeu	t1,a5,3c54 <__divdf3+0x3a4>
    3c0c:	00b30fb3          	add	t6,t1,a1
    3c10:	006fb2b3          	sltu	t0,t6,t1
    3c14:	00d283b3          	add	t2,t0,a3
    3c18:	007484b3          	add	s1,s1,t2
    3c1c:	fff50413          	addi	s0,a0,-1
    3c20:	000f8313          	mv	t1,t6
    3c24:	0096e663          	bltu	a3,s1,3c30 <__divdf3+0x380>
    3c28:	02969663          	bne	a3,s1,3c54 <__divdf3+0x3a4>
    3c2c:	02029463          	bnez	t0,3c54 <__divdf3+0x3a4>
    3c30:	01e4e663          	bltu	s1,t5,3c3c <__divdf3+0x38c>
    3c34:	029f1063          	bne	t5,s1,3c54 <__divdf3+0x3a4>
    3c38:	00fffe63          	bgeu	t6,a5,3c54 <__divdf3+0x3a4>
    3c3c:	01f58fb3          	add	t6,a1,t6
    3c40:	ffe50413          	addi	s0,a0,-2
    3c44:	00bfb533          	sltu	a0,t6,a1
    3c48:	00d50533          	add	a0,a0,a3
    3c4c:	000f8313          	mv	t1,t6
    3c50:	00a484b3          	add	s1,s1,a0
    3c54:	40f30533          	sub	a0,t1,a5
    3c58:	41e484b3          	sub	s1,s1,t5
    3c5c:	00a33333          	sltu	t1,t1,a0
    3c60:	406484b3          	sub	s1,s1,t1
    3c64:	fff00f13          	li	t5,-1
    3c68:	12968263          	beq	a3,s1,3d8c <__divdf3+0x4dc>
    3c6c:	0304dfb3          	divu	t6,s1,a6
    3c70:	01055793          	srli	a5,a0,0x10
    3c74:	0304f4b3          	remu	s1,s1,a6
    3c78:	000f8313          	mv	t1,t6
    3c7c:	03f88f33          	mul	t5,a7,t6
    3c80:	01049493          	slli	s1,s1,0x10
    3c84:	0097e7b3          	or	a5,a5,s1
    3c88:	01e7fe63          	bgeu	a5,t5,3ca4 <__divdf3+0x3f4>
    3c8c:	00f687b3          	add	a5,a3,a5
    3c90:	ffff8313          	addi	t1,t6,-1
    3c94:	00d7e863          	bltu	a5,a3,3ca4 <__divdf3+0x3f4>
    3c98:	01e7f663          	bgeu	a5,t5,3ca4 <__divdf3+0x3f4>
    3c9c:	ffef8313          	addi	t1,t6,-2
    3ca0:	00d787b3          	add	a5,a5,a3
    3ca4:	41e787b3          	sub	a5,a5,t5
    3ca8:	0307df33          	divu	t5,a5,a6
    3cac:	01051513          	slli	a0,a0,0x10
    3cb0:	01055513          	srli	a0,a0,0x10
    3cb4:	0307f7b3          	remu	a5,a5,a6
    3cb8:	000f0813          	mv	a6,t5
    3cbc:	03e888b3          	mul	a7,a7,t5
    3cc0:	01079793          	slli	a5,a5,0x10
    3cc4:	00f567b3          	or	a5,a0,a5
    3cc8:	0117fe63          	bgeu	a5,a7,3ce4 <__divdf3+0x434>
    3ccc:	00f687b3          	add	a5,a3,a5
    3cd0:	ffff0813          	addi	a6,t5,-1 # ffff <__stack_top+0x269f>
    3cd4:	00d7e863          	bltu	a5,a3,3ce4 <__divdf3+0x434>
    3cd8:	0117f663          	bgeu	a5,a7,3ce4 <__divdf3+0x434>
    3cdc:	ffef0813          	addi	a6,t5,-2
    3ce0:	00d787b3          	add	a5,a5,a3
    3ce4:	01031513          	slli	a0,t1,0x10
    3ce8:	01056533          	or	a0,a0,a6
    3cec:	01051813          	slli	a6,a0,0x10
    3cf0:	01085813          	srli	a6,a6,0x10
    3cf4:	01055313          	srli	t1,a0,0x10
    3cf8:	030e8f33          	mul	t5,t4,a6
    3cfc:	411787b3          	sub	a5,a5,a7
    3d00:	03d30eb3          	mul	t4,t1,t4
    3d04:	026e0333          	mul	t1,t3,t1
    3d08:	030e0e33          	mul	t3,t3,a6
    3d0c:	010f5813          	srli	a6,t5,0x10
    3d10:	01de0e33          	add	t3,t3,t4
    3d14:	01c80833          	add	a6,a6,t3
    3d18:	01d87663          	bgeu	a6,t4,3d24 <__divdf3+0x474>
    3d1c:	000108b7          	lui	a7,0x10
    3d20:	01130333          	add	t1,t1,a7
    3d24:	01085893          	srli	a7,a6,0x10
    3d28:	010f1f13          	slli	t5,t5,0x10
    3d2c:	01081813          	slli	a6,a6,0x10
    3d30:	010f5f13          	srli	t5,t5,0x10
    3d34:	006888b3          	add	a7,a7,t1
    3d38:	01e80833          	add	a6,a6,t5
    3d3c:	0117e863          	bltu	a5,a7,3d4c <__divdf3+0x49c>
    3d40:	00050f13          	mv	t5,a0
    3d44:	05179263          	bne	a5,a7,3d88 <__divdf3+0x4d8>
    3d48:	04080263          	beqz	a6,3d8c <__divdf3+0x4dc>
    3d4c:	00f687b3          	add	a5,a3,a5
    3d50:	fff50f13          	addi	t5,a0,-1
    3d54:	00078313          	mv	t1,a5
    3d58:	02d7e463          	bltu	a5,a3,3d80 <__divdf3+0x4d0>
    3d5c:	0117e663          	bltu	a5,a7,3d68 <__divdf3+0x4b8>
    3d60:	03179463          	bne	a5,a7,3d88 <__divdf3+0x4d8>
    3d64:	0305f063          	bgeu	a1,a6,3d84 <__divdf3+0x4d4>
    3d68:	ffe50f13          	addi	t5,a0,-2
    3d6c:	00159513          	slli	a0,a1,0x1
    3d70:	00b53333          	sltu	t1,a0,a1
    3d74:	00d30333          	add	t1,t1,a3
    3d78:	00678333          	add	t1,a5,t1
    3d7c:	00050593          	mv	a1,a0
    3d80:	01131463          	bne	t1,a7,3d88 <__divdf3+0x4d8>
    3d84:	00b80463          	beq	a6,a1,3d8c <__divdf3+0x4dc>
    3d88:	001f6f13          	ori	t5,t5,1
    3d8c:	3ff70793          	addi	a5,a4,1023
    3d90:	0ef05a63          	blez	a5,3e84 <__divdf3+0x5d4>
    3d94:	007f7693          	andi	a3,t5,7
    3d98:	02068063          	beqz	a3,3db8 <__divdf3+0x508>
    3d9c:	00ff7693          	andi	a3,t5,15
    3da0:	00400593          	li	a1,4
    3da4:	00b68a63          	beq	a3,a1,3db8 <__divdf3+0x508>
    3da8:	00bf06b3          	add	a3,t5,a1
    3dac:	01e6b5b3          	sltu	a1,a3,t5
    3db0:	00b40433          	add	s0,s0,a1
    3db4:	00068f13          	mv	t5,a3
    3db8:	00741693          	slli	a3,s0,0x7
    3dbc:	0006da63          	bgez	a3,3dd0 <__divdf3+0x520>
    3dc0:	ff0007b7          	lui	a5,0xff000
    3dc4:	fff78793          	addi	a5,a5,-1 # feffffff <__stack_top+0xfeff269f>
    3dc8:	00f47433          	and	s0,s0,a5
    3dcc:	40070793          	addi	a5,a4,1024
    3dd0:	7fe00713          	li	a4,2046
    3dd4:	16f74c63          	blt	a4,a5,3f4c <__divdf3+0x69c>
    3dd8:	01d41713          	slli	a4,s0,0x1d
    3ddc:	003f5f13          	srli	t5,t5,0x3
    3de0:	01e76733          	or	a4,a4,t5
    3de4:	00345413          	srli	s0,s0,0x3
    3de8:	00c41413          	slli	s0,s0,0xc
    3dec:	00c45413          	srli	s0,s0,0xc
    3df0:	01479793          	slli	a5,a5,0x14
    3df4:	02c12083          	lw	ra,44(sp)
    3df8:	0087e7b3          	or	a5,a5,s0
    3dfc:	02812403          	lw	s0,40(sp)
    3e00:	01f61613          	slli	a2,a2,0x1f
    3e04:	00c7e6b3          	or	a3,a5,a2
    3e08:	02412483          	lw	s1,36(sp)
    3e0c:	02012903          	lw	s2,32(sp)
    3e10:	01c12983          	lw	s3,28(sp)
    3e14:	01812a03          	lw	s4,24(sp)
    3e18:	01412a83          	lw	s5,20(sp)
    3e1c:	01012b03          	lw	s6,16(sp)
    3e20:	00c12b83          	lw	s7,12(sp)
    3e24:	00812c03          	lw	s8,8(sp)
    3e28:	00412c83          	lw	s9,4(sp)
    3e2c:	00070513          	mv	a0,a4
    3e30:	00068593          	mv	a1,a3
    3e34:	03010113          	addi	sp,sp,48
    3e38:	00008067          	ret
    3e3c:	fff70713          	addi	a4,a4,-1
    3e40:	00000313          	li	t1,0
    3e44:	cc1ff06f          	j	3b04 <__divdf3+0x254>
    3e48:	000a8613          	mv	a2,s5
    3e4c:	00058b93          	mv	s7,a1
    3e50:	00200793          	li	a5,2
    3e54:	0efb8c63          	beq	s7,a5,3f4c <__divdf3+0x69c>
    3e58:	00300793          	li	a5,3
    3e5c:	0cfb8e63          	beq	s7,a5,3f38 <__divdf3+0x688>
    3e60:	00100793          	li	a5,1
    3e64:	f2fb94e3          	bne	s7,a5,3d8c <__divdf3+0x4dc>
    3e68:	00000413          	li	s0,0
    3e6c:	00000713          	li	a4,0
    3e70:	08c0006f          	j	3efc <__divdf3+0x64c>
    3e74:	000a0613          	mv	a2,s4
    3e78:	000b0413          	mv	s0,s6
    3e7c:	00048f13          	mv	t5,s1
    3e80:	fd1ff06f          	j	3e50 <__divdf3+0x5a0>
    3e84:	00100593          	li	a1,1
    3e88:	00078c63          	beqz	a5,3ea0 <__divdf3+0x5f0>
    3e8c:	40f585b3          	sub	a1,a1,a5
    3e90:	03800693          	li	a3,56
    3e94:	fcb6cae3          	blt	a3,a1,3e68 <__divdf3+0x5b8>
    3e98:	01f00693          	li	a3,31
    3e9c:	06b6c463          	blt	a3,a1,3f04 <__divdf3+0x654>
    3ea0:	41e70713          	addi	a4,a4,1054
    3ea4:	00bf57b3          	srl	a5,t5,a1
    3ea8:	00ef1f33          	sll	t5,t5,a4
    3eac:	01e03f33          	snez	t5,t5
    3eb0:	00e41733          	sll	a4,s0,a4
    3eb4:	00ef6f33          	or	t5,t5,a4
    3eb8:	01e7e7b3          	or	a5,a5,t5
    3ebc:	00b45433          	srl	s0,s0,a1
    3ec0:	0077f713          	andi	a4,a5,7
    3ec4:	02070063          	beqz	a4,3ee4 <__divdf3+0x634>
    3ec8:	00f7f713          	andi	a4,a5,15
    3ecc:	00400693          	li	a3,4
    3ed0:	00d70a63          	beq	a4,a3,3ee4 <__divdf3+0x634>
    3ed4:	00d78733          	add	a4,a5,a3
    3ed8:	00f736b3          	sltu	a3,a4,a5
    3edc:	00d40433          	add	s0,s0,a3
    3ee0:	00070793          	mv	a5,a4
    3ee4:	00841713          	slli	a4,s0,0x8
    3ee8:	06074a63          	bltz	a4,3f5c <__divdf3+0x6ac>
    3eec:	01d41713          	slli	a4,s0,0x1d
    3ef0:	0037d793          	srli	a5,a5,0x3
    3ef4:	00f76733          	or	a4,a4,a5
    3ef8:	00345413          	srli	s0,s0,0x3
    3efc:	00000793          	li	a5,0
    3f00:	ee9ff06f          	j	3de8 <__divdf3+0x538>
    3f04:	fe100693          	li	a3,-31
    3f08:	40f687b3          	sub	a5,a3,a5
    3f0c:	02000513          	li	a0,32
    3f10:	00f457b3          	srl	a5,s0,a5
    3f14:	00000693          	li	a3,0
    3f18:	00a58663          	beq	a1,a0,3f24 <__divdf3+0x674>
    3f1c:	43e70713          	addi	a4,a4,1086
    3f20:	00e416b3          	sll	a3,s0,a4
    3f24:	01e6e6b3          	or	a3,a3,t5
    3f28:	00d036b3          	snez	a3,a3
    3f2c:	00d7e7b3          	or	a5,a5,a3
    3f30:	00000413          	li	s0,0
    3f34:	f8dff06f          	j	3ec0 <__divdf3+0x610>
    3f38:	00080437          	lui	s0,0x80
    3f3c:	00000713          	li	a4,0
    3f40:	7ff00793          	li	a5,2047
    3f44:	00000613          	li	a2,0
    3f48:	ea1ff06f          	j	3de8 <__divdf3+0x538>
    3f4c:	00000413          	li	s0,0
    3f50:	00000713          	li	a4,0
    3f54:	7ff00793          	li	a5,2047
    3f58:	e91ff06f          	j	3de8 <__divdf3+0x538>
    3f5c:	00000413          	li	s0,0
    3f60:	00000713          	li	a4,0
    3f64:	00100793          	li	a5,1
    3f68:	e81ff06f          	j	3de8 <__divdf3+0x538>

00003f6c <__ledf2>:
    3f6c:	0146d793          	srli	a5,a3,0x14
    3f70:	0145d893          	srli	a7,a1,0x14
    3f74:	00100737          	lui	a4,0x100
    3f78:	fff70713          	addi	a4,a4,-1 # fffff <__stack_top+0xf269f>
    3f7c:	00050813          	mv	a6,a0
    3f80:	00050e13          	mv	t3,a0
    3f84:	7ff8f893          	andi	a7,a7,2047
    3f88:	7ff7f513          	andi	a0,a5,2047
    3f8c:	7ff00793          	li	a5,2047
    3f90:	00b77333          	and	t1,a4,a1
    3f94:	00060e93          	mv	t4,a2
    3f98:	00d77733          	and	a4,a4,a3
    3f9c:	01f5d593          	srli	a1,a1,0x1f
    3fa0:	01f6d693          	srli	a3,a3,0x1f
    3fa4:	00f89663          	bne	a7,a5,3fb0 <__ledf2+0x44>
    3fa8:	01036f33          	or	t5,t1,a6
    3fac:	060f1663          	bnez	t5,4018 <__ledf2+0xac>
    3fb0:	00f51663          	bne	a0,a5,3fbc <__ledf2+0x50>
    3fb4:	00c767b3          	or	a5,a4,a2
    3fb8:	06079063          	bnez	a5,4018 <__ledf2+0xac>
    3fbc:	00000793          	li	a5,0
    3fc0:	00089663          	bnez	a7,3fcc <__ledf2+0x60>
    3fc4:	01036833          	or	a6,t1,a6
    3fc8:	00183793          	seqz	a5,a6
    3fcc:	04051a63          	bnez	a0,4020 <__ledf2+0xb4>
    3fd0:	00c76633          	or	a2,a4,a2
    3fd4:	00078a63          	beqz	a5,3fe8 <__ledf2+0x7c>
    3fd8:	06060063          	beqz	a2,4038 <__ledf2+0xcc>
    3fdc:	00169513          	slli	a0,a3,0x1
    3fe0:	fff50513          	addi	a0,a0,-1
    3fe4:	00008067          	ret
    3fe8:	02061e63          	bnez	a2,4024 <__ledf2+0xb8>
    3fec:	40b005b3          	neg	a1,a1
    3ff0:	0015e513          	ori	a0,a1,1
    3ff4:	00008067          	ret
    3ff8:	fea8c2e3          	blt	a7,a0,3fdc <__ledf2+0x70>
    3ffc:	fe6768e3          	bltu	a4,t1,3fec <__ledf2+0x80>
    4000:	00e31863          	bne	t1,a4,4010 <__ledf2+0xa4>
    4004:	ffcee4e3          	bltu	t4,t3,3fec <__ledf2+0x80>
    4008:	00000513          	li	a0,0
    400c:	03de7663          	bgeu	t3,t4,4038 <__ledf2+0xcc>
    4010:	00159513          	slli	a0,a1,0x1
    4014:	fcdff06f          	j	3fe0 <__ledf2+0x74>
    4018:	00200513          	li	a0,2
    401c:	00008067          	ret
    4020:	fa079ee3          	bnez	a5,3fdc <__ledf2+0x70>
    4024:	fcb694e3          	bne	a3,a1,3fec <__ledf2+0x80>
    4028:	fd1558e3          	bge	a0,a7,3ff8 <__ledf2+0x8c>
    402c:	40d006b3          	neg	a3,a3
    4030:	0016e513          	ori	a0,a3,1
    4034:	00008067          	ret
    4038:	00008067          	ret

0000403c <__muldf3>:
    403c:	fd010113          	addi	sp,sp,-48
    4040:	01712623          	sw	s7,12(sp)
    4044:	0145db93          	srli	s7,a1,0x14
    4048:	02812423          	sw	s0,40(sp)
    404c:	02912223          	sw	s1,36(sp)
    4050:	01512a23          	sw	s5,20(sp)
    4054:	01612823          	sw	s6,16(sp)
    4058:	01812423          	sw	s8,8(sp)
    405c:	00c59493          	slli	s1,a1,0xc
    4060:	02112623          	sw	ra,44(sp)
    4064:	03212023          	sw	s2,32(sp)
    4068:	01312e23          	sw	s3,28(sp)
    406c:	01412c23          	sw	s4,24(sp)
    4070:	01912223          	sw	s9,4(sp)
    4074:	7ffbfb93          	andi	s7,s7,2047
    4078:	00050413          	mv	s0,a0
    407c:	00060c13          	mv	s8,a2
    4080:	00068a93          	mv	s5,a3
    4084:	00c4d493          	srli	s1,s1,0xc
    4088:	01f5db13          	srli	s6,a1,0x1f
    408c:	0c0b8263          	beqz	s7,4150 <__muldf3+0x114>
    4090:	7ff00793          	li	a5,2047
    4094:	12fb8463          	beq	s7,a5,41bc <__muldf3+0x180>
    4098:	00349493          	slli	s1,s1,0x3
    409c:	01d55793          	srli	a5,a0,0x1d
    40a0:	0097e7b3          	or	a5,a5,s1
    40a4:	008004b7          	lui	s1,0x800
    40a8:	0097e4b3          	or	s1,a5,s1
    40ac:	00351a13          	slli	s4,a0,0x3
    40b0:	c01b8b93          	addi	s7,s7,-1023
    40b4:	00000c93          	li	s9,0
    40b8:	014ad693          	srli	a3,s5,0x14
    40bc:	00ca9413          	slli	s0,s5,0xc
    40c0:	7ff6f693          	andi	a3,a3,2047
    40c4:	00c45413          	srli	s0,s0,0xc
    40c8:	01fada93          	srli	s5,s5,0x1f
    40cc:	12068063          	beqz	a3,41ec <__muldf3+0x1b0>
    40d0:	7ff00793          	li	a5,2047
    40d4:	18f68463          	beq	a3,a5,425c <__muldf3+0x220>
    40d8:	00341413          	slli	s0,s0,0x3
    40dc:	01dc5793          	srli	a5,s8,0x1d
    40e0:	0087e7b3          	or	a5,a5,s0
    40e4:	00800437          	lui	s0,0x800
    40e8:	0087e433          	or	s0,a5,s0
    40ec:	c0168693          	addi	a3,a3,-1023
    40f0:	003c1793          	slli	a5,s8,0x3
    40f4:	00000513          	li	a0,0
    40f8:	002c9713          	slli	a4,s9,0x2
    40fc:	00db8bb3          	add	s7,s7,a3
    4100:	00a76733          	or	a4,a4,a0
    4104:	00a00693          	li	a3,10
    4108:	001b8593          	addi	a1,s7,1
    410c:	1ae6c263          	blt	a3,a4,42b0 <__muldf3+0x274>
    4110:	00200813          	li	a6,2
    4114:	015b4633          	xor	a2,s6,s5
    4118:	00100693          	li	a3,1
    411c:	16e84863          	blt	a6,a4,428c <__muldf3+0x250>
    4120:	fff70713          	addi	a4,a4,-1
    4124:	1ae6e663          	bltu	a3,a4,42d0 <__muldf3+0x294>
    4128:	00050c93          	mv	s9,a0
    412c:	00200713          	li	a4,2
    4130:	4eec8063          	beq	s9,a4,4610 <__muldf3+0x5d4>
    4134:	00300713          	li	a4,3
    4138:	4cec8663          	beq	s9,a4,4604 <__muldf3+0x5c8>
    413c:	00100713          	li	a4,1
    4140:	34ec9463          	bne	s9,a4,4488 <__muldf3+0x44c>
    4144:	00000413          	li	s0,0
    4148:	00000693          	li	a3,0
    414c:	46c0006f          	j	45b8 <__muldf3+0x57c>
    4150:	00a4ea33          	or	s4,s1,a0
    4154:	060a0e63          	beqz	s4,41d0 <__muldf3+0x194>
    4158:	04048063          	beqz	s1,4198 <__muldf3+0x15c>
    415c:	00048513          	mv	a0,s1
    4160:	7c8010ef          	jal	5928 <__clzsi2>
    4164:	ff550713          	addi	a4,a0,-11
    4168:	01d00793          	li	a5,29
    416c:	ff850693          	addi	a3,a0,-8
    4170:	40e787b3          	sub	a5,a5,a4
    4174:	00d494b3          	sll	s1,s1,a3
    4178:	00f457b3          	srl	a5,s0,a5
    417c:	0097e7b3          	or	a5,a5,s1
    4180:	00d414b3          	sll	s1,s0,a3
    4184:	c0d00b93          	li	s7,-1011
    4188:	00048a13          	mv	s4,s1
    418c:	40ab8bb3          	sub	s7,s7,a0
    4190:	00078493          	mv	s1,a5
    4194:	f21ff06f          	j	40b4 <__muldf3+0x78>
    4198:	790010ef          	jal	5928 <__clzsi2>
    419c:	00050793          	mv	a5,a0
    41a0:	01578713          	addi	a4,a5,21
    41a4:	01c00693          	li	a3,28
    41a8:	02050513          	addi	a0,a0,32
    41ac:	fae6dee3          	bge	a3,a4,4168 <__muldf3+0x12c>
    41b0:	ff878793          	addi	a5,a5,-8
    41b4:	00f417b3          	sll	a5,s0,a5
    41b8:	fcdff06f          	j	4184 <__muldf3+0x148>
    41bc:	00a4ea33          	or	s4,s1,a0
    41c0:	020a1063          	bnez	s4,41e0 <__muldf3+0x1a4>
    41c4:	00000493          	li	s1,0
    41c8:	00200c93          	li	s9,2
    41cc:	eedff06f          	j	40b8 <__muldf3+0x7c>
    41d0:	00000493          	li	s1,0
    41d4:	00000b93          	li	s7,0
    41d8:	00100c93          	li	s9,1
    41dc:	eddff06f          	j	40b8 <__muldf3+0x7c>
    41e0:	00050a13          	mv	s4,a0
    41e4:	00300c93          	li	s9,3
    41e8:	ed1ff06f          	j	40b8 <__muldf3+0x7c>
    41ec:	018467b3          	or	a5,s0,s8
    41f0:	08078063          	beqz	a5,4270 <__muldf3+0x234>
    41f4:	04040063          	beqz	s0,4234 <__muldf3+0x1f8>
    41f8:	00040513          	mv	a0,s0
    41fc:	72c010ef          	jal	5928 <__clzsi2>
    4200:	ff550693          	addi	a3,a0,-11
    4204:	01d00713          	li	a4,29
    4208:	ff850793          	addi	a5,a0,-8
    420c:	40d70733          	sub	a4,a4,a3
    4210:	00f41433          	sll	s0,s0,a5
    4214:	00ec5733          	srl	a4,s8,a4
    4218:	00876733          	or	a4,a4,s0
    421c:	00fc1433          	sll	s0,s8,a5
    4220:	c0d00693          	li	a3,-1011
    4224:	00040793          	mv	a5,s0
    4228:	40a686b3          	sub	a3,a3,a0
    422c:	00070413          	mv	s0,a4
    4230:	ec5ff06f          	j	40f4 <__muldf3+0xb8>
    4234:	000c0513          	mv	a0,s8
    4238:	6f0010ef          	jal	5928 <__clzsi2>
    423c:	00050793          	mv	a5,a0
    4240:	01578693          	addi	a3,a5,21
    4244:	01c00713          	li	a4,28
    4248:	02050513          	addi	a0,a0,32
    424c:	fad75ce3          	bge	a4,a3,4204 <__muldf3+0x1c8>
    4250:	ff878793          	addi	a5,a5,-8
    4254:	00fc1733          	sll	a4,s8,a5
    4258:	fc9ff06f          	j	4220 <__muldf3+0x1e4>
    425c:	018467b3          	or	a5,s0,s8
    4260:	02079063          	bnez	a5,4280 <__muldf3+0x244>
    4264:	00000413          	li	s0,0
    4268:	00200513          	li	a0,2
    426c:	e8dff06f          	j	40f8 <__muldf3+0xbc>
    4270:	00000413          	li	s0,0
    4274:	00000693          	li	a3,0
    4278:	00100513          	li	a0,1
    427c:	e7dff06f          	j	40f8 <__muldf3+0xbc>
    4280:	000c0793          	mv	a5,s8
    4284:	00300513          	li	a0,3
    4288:	e71ff06f          	j	40f8 <__muldf3+0xbc>
    428c:	00e69733          	sll	a4,a3,a4
    4290:	53077693          	andi	a3,a4,1328
    4294:	02069863          	bnez	a3,42c4 <__muldf3+0x288>
    4298:	24077813          	andi	a6,a4,576
    429c:	34081c63          	bnez	a6,45f4 <__muldf3+0x5b8>
    42a0:	08877713          	andi	a4,a4,136
    42a4:	02070663          	beqz	a4,42d0 <__muldf3+0x294>
    42a8:	000a8613          	mv	a2,s5
    42ac:	e7dff06f          	j	4128 <__muldf3+0xec>
    42b0:	00f00693          	li	a3,15
    42b4:	34d70863          	beq	a4,a3,4604 <__muldf3+0x5c8>
    42b8:	00b00693          	li	a3,11
    42bc:	000b0613          	mv	a2,s6
    42c0:	fed704e3          	beq	a4,a3,42a8 <__muldf3+0x26c>
    42c4:	00048413          	mv	s0,s1
    42c8:	000a0793          	mv	a5,s4
    42cc:	e61ff06f          	j	412c <__muldf3+0xf0>
    42d0:	010a5693          	srli	a3,s4,0x10
    42d4:	0107d893          	srli	a7,a5,0x10
    42d8:	010a1a13          	slli	s4,s4,0x10
    42dc:	01079793          	slli	a5,a5,0x10
    42e0:	010a5a13          	srli	s4,s4,0x10
    42e4:	0107d793          	srli	a5,a5,0x10
    42e8:	02fa0533          	mul	a0,s4,a5
    42ec:	02f68e33          	mul	t3,a3,a5
    42f0:	01055813          	srli	a6,a0,0x10
    42f4:	03488333          	mul	t1,a7,s4
    42f8:	01c30333          	add	t1,t1,t3
    42fc:	00680833          	add	a6,a6,t1
    4300:	03168733          	mul	a4,a3,a7
    4304:	01c87663          	bgeu	a6,t3,4310 <__muldf3+0x2d4>
    4308:	00010337          	lui	t1,0x10
    430c:	00670733          	add	a4,a4,t1
    4310:	01051513          	slli	a0,a0,0x10
    4314:	01055513          	srli	a0,a0,0x10
    4318:	01085f93          	srli	t6,a6,0x10
    431c:	01081813          	slli	a6,a6,0x10
    4320:	00a80833          	add	a6,a6,a0
    4324:	01045513          	srli	a0,s0,0x10
    4328:	01041413          	slli	s0,s0,0x10
    432c:	01045413          	srli	s0,s0,0x10
    4330:	028a0e33          	mul	t3,s4,s0
    4334:	02868eb3          	mul	t4,a3,s0
    4338:	010e5313          	srli	t1,t3,0x10
    433c:	03450a33          	mul	s4,a0,s4
    4340:	01da0a33          	add	s4,s4,t4
    4344:	01430333          	add	t1,t1,s4
    4348:	02a686b3          	mul	a3,a3,a0
    434c:	01d37663          	bgeu	t1,t4,4358 <__muldf3+0x31c>
    4350:	00010eb7          	lui	t4,0x10
    4354:	01d686b3          	add	a3,a3,t4
    4358:	01035f13          	srli	t5,t1,0x10
    435c:	00df0f33          	add	t5,t5,a3
    4360:	01031693          	slli	a3,t1,0x10
    4364:	0104d313          	srli	t1,s1,0x10
    4368:	01049493          	slli	s1,s1,0x10
    436c:	0104d493          	srli	s1,s1,0x10
    4370:	02f48eb3          	mul	t4,s1,a5
    4374:	010e1e13          	slli	t3,t3,0x10
    4378:	010e5e13          	srli	t3,t3,0x10
    437c:	01c686b3          	add	a3,a3,t3
    4380:	00df8fb3          	add	t6,t6,a3
    4384:	02f307b3          	mul	a5,t1,a5
    4388:	010ede13          	srli	t3,t4,0x10
    438c:	026882b3          	mul	t0,a7,t1
    4390:	029888b3          	mul	a7,a7,s1
    4394:	00f888b3          	add	a7,a7,a5
    4398:	011e08b3          	add	a7,t3,a7
    439c:	00f8f663          	bgeu	a7,a5,43a8 <__muldf3+0x36c>
    43a0:	000107b7          	lui	a5,0x10
    43a4:	00f282b3          	add	t0,t0,a5
    43a8:	028487b3          	mul	a5,s1,s0
    43ac:	010e9e93          	slli	t4,t4,0x10
    43b0:	0108de13          	srli	t3,a7,0x10
    43b4:	010ede93          	srli	t4,t4,0x10
    43b8:	01089893          	slli	a7,a7,0x10
    43bc:	01d888b3          	add	a7,a7,t4
    43c0:	005e0e33          	add	t3,t3,t0
    43c4:	02830433          	mul	s0,t1,s0
    43c8:	0107de93          	srli	t4,a5,0x10
    43cc:	02650333          	mul	t1,a0,t1
    43d0:	02950533          	mul	a0,a0,s1
    43d4:	00850533          	add	a0,a0,s0
    43d8:	00ae8eb3          	add	t4,t4,a0
    43dc:	008ef663          	bgeu	t4,s0,43e8 <__muldf3+0x3ac>
    43e0:	00010537          	lui	a0,0x10
    43e4:	00a30333          	add	t1,t1,a0
    43e8:	01079793          	slli	a5,a5,0x10
    43ec:	010e9513          	slli	a0,t4,0x10
    43f0:	0107d793          	srli	a5,a5,0x10
    43f4:	01f70733          	add	a4,a4,t6
    43f8:	00f50533          	add	a0,a0,a5
    43fc:	01e50f33          	add	t5,a0,t5
    4400:	00d737b3          	sltu	a5,a4,a3
    4404:	00ff07b3          	add	a5,t5,a5
    4408:	011708b3          	add	a7,a4,a7
    440c:	01c78e33          	add	t3,a5,t3
    4410:	00e8b6b3          	sltu	a3,a7,a4
    4414:	00de06b3          	add	a3,t3,a3
    4418:	00af3533          	sltu	a0,t5,a0
    441c:	01e7bf33          	sltu	t5,a5,t5
    4420:	00fe3733          	sltu	a4,t3,a5
    4424:	01e56533          	or	a0,a0,t5
    4428:	01c6be33          	sltu	t3,a3,t3
    442c:	010ede93          	srli	t4,t4,0x10
    4430:	00989793          	slli	a5,a7,0x9
    4434:	01d50533          	add	a0,a0,t4
    4438:	01c76733          	or	a4,a4,t3
    443c:	00a70733          	add	a4,a4,a0
    4440:	0107e7b3          	or	a5,a5,a6
    4444:	00670733          	add	a4,a4,t1
    4448:	00f037b3          	snez	a5,a5
    444c:	0178d893          	srli	a7,a7,0x17
    4450:	00971713          	slli	a4,a4,0x9
    4454:	0176d413          	srli	s0,a3,0x17
    4458:	0117e7b3          	or	a5,a5,a7
    445c:	00969693          	slli	a3,a3,0x9
    4460:	00d7e7b3          	or	a5,a5,a3
    4464:	00771693          	slli	a3,a4,0x7
    4468:	00876433          	or	s0,a4,s0
    446c:	0c06d663          	bgez	a3,4538 <__muldf3+0x4fc>
    4470:	0017d713          	srli	a4,a5,0x1
    4474:	0017f793          	andi	a5,a5,1
    4478:	00f76733          	or	a4,a4,a5
    447c:	01f41793          	slli	a5,s0,0x1f
    4480:	00f767b3          	or	a5,a4,a5
    4484:	00145413          	srli	s0,s0,0x1
    4488:	3ff58713          	addi	a4,a1,1023
    448c:	0ae05a63          	blez	a4,4540 <__muldf3+0x504>
    4490:	0077f693          	andi	a3,a5,7
    4494:	02068063          	beqz	a3,44b4 <__muldf3+0x478>
    4498:	00f7f693          	andi	a3,a5,15
    449c:	00400513          	li	a0,4
    44a0:	00a68a63          	beq	a3,a0,44b4 <__muldf3+0x478>
    44a4:	00a786b3          	add	a3,a5,a0
    44a8:	00f6b533          	sltu	a0,a3,a5
    44ac:	00a40433          	add	s0,s0,a0
    44b0:	00068793          	mv	a5,a3
    44b4:	00741693          	slli	a3,s0,0x7
    44b8:	0006da63          	bgez	a3,44cc <__muldf3+0x490>
    44bc:	ff000737          	lui	a4,0xff000
    44c0:	fff70713          	addi	a4,a4,-1 # feffffff <__stack_top+0xfeff269f>
    44c4:	00e47433          	and	s0,s0,a4
    44c8:	40058713          	addi	a4,a1,1024
    44cc:	7fe00693          	li	a3,2046
    44d0:	14e6c063          	blt	a3,a4,4610 <__muldf3+0x5d4>
    44d4:	01d41693          	slli	a3,s0,0x1d
    44d8:	0037d793          	srli	a5,a5,0x3
    44dc:	00f6e6b3          	or	a3,a3,a5
    44e0:	00345413          	srli	s0,s0,0x3
    44e4:	00c41413          	slli	s0,s0,0xc
    44e8:	00c45413          	srli	s0,s0,0xc
    44ec:	01471713          	slli	a4,a4,0x14
    44f0:	02c12083          	lw	ra,44(sp)
    44f4:	00876733          	or	a4,a4,s0
    44f8:	02812403          	lw	s0,40(sp)
    44fc:	01f61613          	slli	a2,a2,0x1f
    4500:	00c767b3          	or	a5,a4,a2
    4504:	02412483          	lw	s1,36(sp)
    4508:	02012903          	lw	s2,32(sp)
    450c:	01c12983          	lw	s3,28(sp)
    4510:	01812a03          	lw	s4,24(sp)
    4514:	01412a83          	lw	s5,20(sp)
    4518:	01012b03          	lw	s6,16(sp)
    451c:	00c12b83          	lw	s7,12(sp)
    4520:	00812c03          	lw	s8,8(sp)
    4524:	00412c83          	lw	s9,4(sp)
    4528:	00068513          	mv	a0,a3
    452c:	00078593          	mv	a1,a5
    4530:	03010113          	addi	sp,sp,48
    4534:	00008067          	ret
    4538:	000b8593          	mv	a1,s7
    453c:	f4dff06f          	j	4488 <__muldf3+0x44c>
    4540:	00100513          	li	a0,1
    4544:	00070c63          	beqz	a4,455c <__muldf3+0x520>
    4548:	40e50533          	sub	a0,a0,a4
    454c:	03800693          	li	a3,56
    4550:	bea6cae3          	blt	a3,a0,4144 <__muldf3+0x108>
    4554:	01f00693          	li	a3,31
    4558:	06a6c463          	blt	a3,a0,45c0 <__muldf3+0x584>
    455c:	41e58593          	addi	a1,a1,1054
    4560:	00a7d733          	srl	a4,a5,a0
    4564:	00b797b3          	sll	a5,a5,a1
    4568:	00f037b3          	snez	a5,a5
    456c:	00b415b3          	sll	a1,s0,a1
    4570:	00b7e7b3          	or	a5,a5,a1
    4574:	00f767b3          	or	a5,a4,a5
    4578:	00a45433          	srl	s0,s0,a0
    457c:	0077f713          	andi	a4,a5,7
    4580:	02070063          	beqz	a4,45a0 <__muldf3+0x564>
    4584:	00f7f713          	andi	a4,a5,15
    4588:	00400693          	li	a3,4
    458c:	00d70a63          	beq	a4,a3,45a0 <__muldf3+0x564>
    4590:	00d78733          	add	a4,a5,a3
    4594:	00f736b3          	sltu	a3,a4,a5
    4598:	00d40433          	add	s0,s0,a3
    459c:	00070793          	mv	a5,a4
    45a0:	00841713          	slli	a4,s0,0x8
    45a4:	06074e63          	bltz	a4,4620 <__muldf3+0x5e4>
    45a8:	01d41693          	slli	a3,s0,0x1d
    45ac:	0037d793          	srli	a5,a5,0x3
    45b0:	00f6e6b3          	or	a3,a3,a5
    45b4:	00345413          	srli	s0,s0,0x3
    45b8:	00000713          	li	a4,0
    45bc:	f29ff06f          	j	44e4 <__muldf3+0x4a8>
    45c0:	fe100693          	li	a3,-31
    45c4:	40e68733          	sub	a4,a3,a4
    45c8:	02000813          	li	a6,32
    45cc:	00e45733          	srl	a4,s0,a4
    45d0:	00000693          	li	a3,0
    45d4:	01050663          	beq	a0,a6,45e0 <__muldf3+0x5a4>
    45d8:	43e58593          	addi	a1,a1,1086
    45dc:	00b416b3          	sll	a3,s0,a1
    45e0:	00f6e6b3          	or	a3,a3,a5
    45e4:	00d036b3          	snez	a3,a3
    45e8:	00d767b3          	or	a5,a4,a3
    45ec:	00000413          	li	s0,0
    45f0:	f8dff06f          	j	457c <__muldf3+0x540>
    45f4:	00080437          	lui	s0,0x80
    45f8:	7ff00713          	li	a4,2047
    45fc:	00000613          	li	a2,0
    4600:	ee5ff06f          	j	44e4 <__muldf3+0x4a8>
    4604:	00080437          	lui	s0,0x80
    4608:	00000693          	li	a3,0
    460c:	fedff06f          	j	45f8 <__muldf3+0x5bc>
    4610:	00000413          	li	s0,0
    4614:	00000693          	li	a3,0
    4618:	7ff00713          	li	a4,2047
    461c:	ec9ff06f          	j	44e4 <__muldf3+0x4a8>
    4620:	00000413          	li	s0,0
    4624:	00000693          	li	a3,0
    4628:	00100713          	li	a4,1
    462c:	eb9ff06f          	j	44e4 <__muldf3+0x4a8>

00004630 <__subdf3>:
    4630:	00100837          	lui	a6,0x100
    4634:	fff80813          	addi	a6,a6,-1 # fffff <__stack_top+0xf269f>
    4638:	fe010113          	addi	sp,sp,-32
    463c:	00b878b3          	and	a7,a6,a1
    4640:	0145d713          	srli	a4,a1,0x14
    4644:	01d55793          	srli	a5,a0,0x1d
    4648:	00d87833          	and	a6,a6,a3
    464c:	01412423          	sw	s4,8(sp)
    4650:	7ff77a13          	andi	s4,a4,2047
    4654:	00389713          	slli	a4,a7,0x3
    4658:	0146d893          	srli	a7,a3,0x14
    465c:	01312623          	sw	s3,12(sp)
    4660:	00e7e7b3          	or	a5,a5,a4
    4664:	01f5d993          	srli	s3,a1,0x1f
    4668:	00381813          	slli	a6,a6,0x3
    466c:	01d65593          	srli	a1,a2,0x1d
    4670:	00112e23          	sw	ra,28(sp)
    4674:	00812c23          	sw	s0,24(sp)
    4678:	00912a23          	sw	s1,20(sp)
    467c:	01212823          	sw	s2,16(sp)
    4680:	01512223          	sw	s5,4(sp)
    4684:	7ff8f893          	andi	a7,a7,2047
    4688:	7ff00713          	li	a4,2047
    468c:	00351513          	slli	a0,a0,0x3
    4690:	01f6d693          	srli	a3,a3,0x1f
    4694:	0105e5b3          	or	a1,a1,a6
    4698:	00361613          	slli	a2,a2,0x3
    469c:	00e89663          	bne	a7,a4,46a8 <__subdf3+0x78>
    46a0:	00c5e733          	or	a4,a1,a2
    46a4:	00071463          	bnez	a4,46ac <__subdf3+0x7c>
    46a8:	0016c693          	xori	a3,a3,1
    46ac:	411a0833          	sub	a6,s4,a7
    46b0:	7ff00313          	li	t1,2047
    46b4:	33369663          	bne	a3,s3,49e0 <__subdf3+0x3b0>
    46b8:	17005e63          	blez	a6,4834 <__subdf3+0x204>
    46bc:	0a089863          	bnez	a7,476c <__subdf3+0x13c>
    46c0:	00c5e733          	or	a4,a1,a2
    46c4:	02070663          	beqz	a4,46f0 <__subdf3+0xc0>
    46c8:	fffa0813          	addi	a6,s4,-1
    46cc:	02081063          	bnez	a6,46ec <__subdf3+0xbc>
    46d0:	00c50633          	add	a2,a0,a2
    46d4:	00a63733          	sltu	a4,a2,a0
    46d8:	00b786b3          	add	a3,a5,a1
    46dc:	00060513          	mv	a0,a2
    46e0:	00e687b3          	add	a5,a3,a4
    46e4:	00100a13          	li	s4,1
    46e8:	0d40006f          	j	47bc <__subdf3+0x18c>
    46ec:	086a1663          	bne	s4,t1,4778 <__subdf3+0x148>
    46f0:	01d79693          	slli	a3,a5,0x1d
    46f4:	00355513          	srli	a0,a0,0x3
    46f8:	7ff00713          	li	a4,2047
    46fc:	00a6e6b3          	or	a3,a3,a0
    4700:	0037d793          	srli	a5,a5,0x3
    4704:	00ea1e63          	bne	s4,a4,4720 <__subdf3+0xf0>
    4708:	00f6e6b3          	or	a3,a3,a5
    470c:	00000793          	li	a5,0
    4710:	00068863          	beqz	a3,4720 <__subdf3+0xf0>
    4714:	000807b7          	lui	a5,0x80
    4718:	00000693          	li	a3,0
    471c:	00000993          	li	s3,0
    4720:	014a1713          	slli	a4,s4,0x14
    4724:	7ff00637          	lui	a2,0x7ff00
    4728:	00c79793          	slli	a5,a5,0xc
    472c:	00c77733          	and	a4,a4,a2
    4730:	01c12083          	lw	ra,28(sp)
    4734:	01812403          	lw	s0,24(sp)
    4738:	00c7d793          	srli	a5,a5,0xc
    473c:	00f767b3          	or	a5,a4,a5
    4740:	01f99713          	slli	a4,s3,0x1f
    4744:	00e7e633          	or	a2,a5,a4
    4748:	01412483          	lw	s1,20(sp)
    474c:	01012903          	lw	s2,16(sp)
    4750:	00c12983          	lw	s3,12(sp)
    4754:	00812a03          	lw	s4,8(sp)
    4758:	00412a83          	lw	s5,4(sp)
    475c:	00068513          	mv	a0,a3
    4760:	00060593          	mv	a1,a2
    4764:	02010113          	addi	sp,sp,32
    4768:	00008067          	ret
    476c:	f86a02e3          	beq	s4,t1,46f0 <__subdf3+0xc0>
    4770:	00800737          	lui	a4,0x800
    4774:	00e5e5b3          	or	a1,a1,a4
    4778:	03800713          	li	a4,56
    477c:	0b074663          	blt	a4,a6,4828 <__subdf3+0x1f8>
    4780:	01f00713          	li	a4,31
    4784:	02000893          	li	a7,32
    4788:	07074863          	blt	a4,a6,47f8 <__subdf3+0x1c8>
    478c:	410888b3          	sub	a7,a7,a6
    4790:	01159733          	sll	a4,a1,a7
    4794:	010656b3          	srl	a3,a2,a6
    4798:	011618b3          	sll	a7,a2,a7
    479c:	00d76733          	or	a4,a4,a3
    47a0:	011038b3          	snez	a7,a7
    47a4:	01176733          	or	a4,a4,a7
    47a8:	0105d833          	srl	a6,a1,a6
    47ac:	00a70533          	add	a0,a4,a0
    47b0:	00f80833          	add	a6,a6,a5
    47b4:	00e53733          	sltu	a4,a0,a4
    47b8:	00e807b3          	add	a5,a6,a4
    47bc:	00879713          	slli	a4,a5,0x8
    47c0:	1c075c63          	bgez	a4,4998 <__subdf3+0x368>
    47c4:	001a0a13          	addi	s4,s4,1
    47c8:	7ff00713          	li	a4,2047
    47cc:	5cea0263          	beq	s4,a4,4d90 <__subdf3+0x760>
    47d0:	ff800737          	lui	a4,0xff800
    47d4:	fff70713          	addi	a4,a4,-1 # ff7fffff <__stack_top+0xff7f269f>
    47d8:	00e7f7b3          	and	a5,a5,a4
    47dc:	00155713          	srli	a4,a0,0x1
    47e0:	00157513          	andi	a0,a0,1
    47e4:	00a76733          	or	a4,a4,a0
    47e8:	01f79513          	slli	a0,a5,0x1f
    47ec:	00e56533          	or	a0,a0,a4
    47f0:	0017d793          	srli	a5,a5,0x1
    47f4:	1a40006f          	j	4998 <__subdf3+0x368>
    47f8:	fe080713          	addi	a4,a6,-32
    47fc:	00e5d733          	srl	a4,a1,a4
    4800:	00000693          	li	a3,0
    4804:	01180863          	beq	a6,a7,4814 <__subdf3+0x1e4>
    4808:	04000693          	li	a3,64
    480c:	410686b3          	sub	a3,a3,a6
    4810:	00d596b3          	sll	a3,a1,a3
    4814:	00c6e6b3          	or	a3,a3,a2
    4818:	00d036b3          	snez	a3,a3
    481c:	00d76733          	or	a4,a4,a3
    4820:	00000813          	li	a6,0
    4824:	f89ff06f          	j	47ac <__subdf3+0x17c>
    4828:	00c5e733          	or	a4,a1,a2
    482c:	00e03733          	snez	a4,a4
    4830:	ff1ff06f          	j	4820 <__subdf3+0x1f0>
    4834:	0c080663          	beqz	a6,4900 <__subdf3+0x2d0>
    4838:	41488733          	sub	a4,a7,s4
    483c:	020a1463          	bnez	s4,4864 <__subdf3+0x234>
    4840:	00a7e6b3          	or	a3,a5,a0
    4844:	00068863          	beqz	a3,4854 <__subdf3+0x224>
    4848:	fff70693          	addi	a3,a4,-1
    484c:	e80682e3          	beqz	a3,46d0 <__subdf3+0xa0>
    4850:	02671263          	bne	a4,t1,4874 <__subdf3+0x244>
    4854:	00058793          	mv	a5,a1
    4858:	00060513          	mv	a0,a2
    485c:	00070a13          	mv	s4,a4
    4860:	e91ff06f          	j	46f0 <__subdf3+0xc0>
    4864:	52688c63          	beq	a7,t1,4d9c <__subdf3+0x76c>
    4868:	008006b7          	lui	a3,0x800
    486c:	00d7e7b3          	or	a5,a5,a3
    4870:	00070693          	mv	a3,a4
    4874:	03800713          	li	a4,56
    4878:	06d74e63          	blt	a4,a3,48f4 <__subdf3+0x2c4>
    487c:	01f00713          	li	a4,31
    4880:	02000313          	li	t1,32
    4884:	04d74063          	blt	a4,a3,48c4 <__subdf3+0x294>
    4888:	40d30333          	sub	t1,t1,a3
    488c:	00679733          	sll	a4,a5,t1
    4890:	00d55833          	srl	a6,a0,a3
    4894:	00651333          	sll	t1,a0,t1
    4898:	01076733          	or	a4,a4,a6
    489c:	00603333          	snez	t1,t1
    48a0:	00676733          	or	a4,a4,t1
    48a4:	00d7d6b3          	srl	a3,a5,a3
    48a8:	00c70633          	add	a2,a4,a2
    48ac:	00b686b3          	add	a3,a3,a1
    48b0:	00e63733          	sltu	a4,a2,a4
    48b4:	00060513          	mv	a0,a2
    48b8:	00e687b3          	add	a5,a3,a4
    48bc:	00088a13          	mv	s4,a7
    48c0:	efdff06f          	j	47bc <__subdf3+0x18c>
    48c4:	fe068713          	addi	a4,a3,-32 # 7fffe0 <__stack_top+0x7f2680>
    48c8:	00e7d733          	srl	a4,a5,a4
    48cc:	00000813          	li	a6,0
    48d0:	00668863          	beq	a3,t1,48e0 <__subdf3+0x2b0>
    48d4:	04000813          	li	a6,64
    48d8:	40d80833          	sub	a6,a6,a3
    48dc:	01079833          	sll	a6,a5,a6
    48e0:	00a86833          	or	a6,a6,a0
    48e4:	01003833          	snez	a6,a6
    48e8:	01076733          	or	a4,a4,a6
    48ec:	00000693          	li	a3,0
    48f0:	fb9ff06f          	j	48a8 <__subdf3+0x278>
    48f4:	00a7e733          	or	a4,a5,a0
    48f8:	00e03733          	snez	a4,a4
    48fc:	ff1ff06f          	j	48ec <__subdf3+0x2bc>
    4900:	001a0713          	addi	a4,s4,1
    4904:	7fe77693          	andi	a3,a4,2046
    4908:	06069463          	bnez	a3,4970 <__subdf3+0x340>
    490c:	00a7e733          	or	a4,a5,a0
    4910:	040a1063          	bnez	s4,4950 <__subdf3+0x320>
    4914:	2c070063          	beqz	a4,4bd4 <__subdf3+0x5a4>
    4918:	00c5e733          	or	a4,a1,a2
    491c:	44070a63          	beqz	a4,4d70 <__subdf3+0x740>
    4920:	00c50633          	add	a2,a0,a2
    4924:	00b786b3          	add	a3,a5,a1
    4928:	00a63533          	sltu	a0,a2,a0
    492c:	00a685b3          	add	a1,a3,a0
    4930:	00859793          	slli	a5,a1,0x8
    4934:	2a07d063          	bgez	a5,4bd4 <__subdf3+0x5a4>
    4938:	ff8007b7          	lui	a5,0xff800
    493c:	fff78793          	addi	a5,a5,-1 # ff7fffff <__stack_top+0xff7f269f>
    4940:	00f5f7b3          	and	a5,a1,a5
    4944:	00060513          	mv	a0,a2
    4948:	00100a13          	li	s4,1
    494c:	da5ff06f          	j	46f0 <__subdf3+0xc0>
    4950:	42070663          	beqz	a4,4d7c <__subdf3+0x74c>
    4954:	00c5e633          	or	a2,a1,a2
    4958:	00030a13          	mv	s4,t1
    495c:	d8060ae3          	beqz	a2,46f0 <__subdf3+0xc0>
    4960:	00000993          	li	s3,0
    4964:	004007b7          	lui	a5,0x400
    4968:	00000513          	li	a0,0
    496c:	d85ff06f          	j	46f0 <__subdf3+0xc0>
    4970:	40670e63          	beq	a4,t1,4d8c <__subdf3+0x75c>
    4974:	00c50633          	add	a2,a0,a2
    4978:	00a63533          	sltu	a0,a2,a0
    497c:	00b786b3          	add	a3,a5,a1
    4980:	00a686b3          	add	a3,a3,a0
    4984:	01f69513          	slli	a0,a3,0x1f
    4988:	00165613          	srli	a2,a2,0x1
    498c:	00c56533          	or	a0,a0,a2
    4990:	0016d793          	srli	a5,a3,0x1
    4994:	00070a13          	mv	s4,a4
    4998:	00757713          	andi	a4,a0,7
    499c:	02070063          	beqz	a4,49bc <__subdf3+0x38c>
    49a0:	00f57713          	andi	a4,a0,15
    49a4:	00400693          	li	a3,4
    49a8:	00d70a63          	beq	a4,a3,49bc <__subdf3+0x38c>
    49ac:	00d50733          	add	a4,a0,a3
    49b0:	00a736b3          	sltu	a3,a4,a0
    49b4:	00d787b3          	add	a5,a5,a3
    49b8:	00070513          	mv	a0,a4
    49bc:	00879713          	slli	a4,a5,0x8
    49c0:	d20758e3          	bgez	a4,46f0 <__subdf3+0xc0>
    49c4:	001a0a13          	addi	s4,s4,1
    49c8:	7ff00713          	li	a4,2047
    49cc:	3cea0263          	beq	s4,a4,4d90 <__subdf3+0x760>
    49d0:	ff800737          	lui	a4,0xff800
    49d4:	fff70713          	addi	a4,a4,-1 # ff7fffff <__stack_top+0xff7f269f>
    49d8:	00e7f7b3          	and	a5,a5,a4
    49dc:	d15ff06f          	j	46f0 <__subdf3+0xc0>
    49e0:	0f005463          	blez	a6,4ac8 <__subdf3+0x498>
    49e4:	08089c63          	bnez	a7,4a7c <__subdf3+0x44c>
    49e8:	00c5e733          	or	a4,a1,a2
    49ec:	d00702e3          	beqz	a4,46f0 <__subdf3+0xc0>
    49f0:	fffa0813          	addi	a6,s4,-1
    49f4:	02081063          	bnez	a6,4a14 <__subdf3+0x3e4>
    49f8:	40c50633          	sub	a2,a0,a2
    49fc:	00c53733          	sltu	a4,a0,a2
    4a00:	40b786b3          	sub	a3,a5,a1
    4a04:	00060513          	mv	a0,a2
    4a08:	40e687b3          	sub	a5,a3,a4
    4a0c:	00100a13          	li	s4,1
    4a10:	0500006f          	j	4a60 <__subdf3+0x430>
    4a14:	cc6a0ee3          	beq	s4,t1,46f0 <__subdf3+0xc0>
    4a18:	03800713          	li	a4,56
    4a1c:	0b074063          	blt	a4,a6,4abc <__subdf3+0x48c>
    4a20:	01f00713          	li	a4,31
    4a24:	02000893          	li	a7,32
    4a28:	07074263          	blt	a4,a6,4a8c <__subdf3+0x45c>
    4a2c:	410888b3          	sub	a7,a7,a6
    4a30:	01159733          	sll	a4,a1,a7
    4a34:	010656b3          	srl	a3,a2,a6
    4a38:	011618b3          	sll	a7,a2,a7
    4a3c:	00d76733          	or	a4,a4,a3
    4a40:	011038b3          	snez	a7,a7
    4a44:	01176733          	or	a4,a4,a7
    4a48:	0105d833          	srl	a6,a1,a6
    4a4c:	40e50733          	sub	a4,a0,a4
    4a50:	00e536b3          	sltu	a3,a0,a4
    4a54:	41078833          	sub	a6,a5,a6
    4a58:	00070513          	mv	a0,a4
    4a5c:	40d807b3          	sub	a5,a6,a3
    4a60:	00879713          	slli	a4,a5,0x8
    4a64:	f2075ae3          	bgez	a4,4998 <__subdf3+0x368>
    4a68:	00800937          	lui	s2,0x800
    4a6c:	fff90913          	addi	s2,s2,-1 # 7fffff <__stack_top+0x7f269f>
    4a70:	0127f933          	and	s2,a5,s2
    4a74:	00050a93          	mv	s5,a0
    4a78:	2140006f          	j	4c8c <__subdf3+0x65c>
    4a7c:	c66a0ae3          	beq	s4,t1,46f0 <__subdf3+0xc0>
    4a80:	00800737          	lui	a4,0x800
    4a84:	00e5e5b3          	or	a1,a1,a4
    4a88:	f91ff06f          	j	4a18 <__subdf3+0x3e8>
    4a8c:	fe080713          	addi	a4,a6,-32
    4a90:	00e5d733          	srl	a4,a1,a4
    4a94:	00000693          	li	a3,0
    4a98:	01180863          	beq	a6,a7,4aa8 <__subdf3+0x478>
    4a9c:	04000693          	li	a3,64
    4aa0:	410686b3          	sub	a3,a3,a6
    4aa4:	00d596b3          	sll	a3,a1,a3
    4aa8:	00c6e6b3          	or	a3,a3,a2
    4aac:	00d036b3          	snez	a3,a3
    4ab0:	00d76733          	or	a4,a4,a3
    4ab4:	00000813          	li	a6,0
    4ab8:	f95ff06f          	j	4a4c <__subdf3+0x41c>
    4abc:	00c5e733          	or	a4,a1,a2
    4ac0:	00e03733          	snez	a4,a4
    4ac4:	ff1ff06f          	j	4ab4 <__subdf3+0x484>
    4ac8:	0e080463          	beqz	a6,4bb0 <__subdf3+0x580>
    4acc:	41488833          	sub	a6,a7,s4
    4ad0:	040a1263          	bnez	s4,4b14 <__subdf3+0x4e4>
    4ad4:	00a7e733          	or	a4,a5,a0
    4ad8:	02070463          	beqz	a4,4b00 <__subdf3+0x4d0>
    4adc:	fff80713          	addi	a4,a6,-1
    4ae0:	00071e63          	bnez	a4,4afc <__subdf3+0x4cc>
    4ae4:	40a60533          	sub	a0,a2,a0
    4ae8:	40f585b3          	sub	a1,a1,a5
    4aec:	00a63633          	sltu	a2,a2,a0
    4af0:	40c587b3          	sub	a5,a1,a2
    4af4:	00068993          	mv	s3,a3
    4af8:	f15ff06f          	j	4a0c <__subdf3+0x3dc>
    4afc:	02681463          	bne	a6,t1,4b24 <__subdf3+0x4f4>
    4b00:	00068993          	mv	s3,a3
    4b04:	00058793          	mv	a5,a1
    4b08:	00060513          	mv	a0,a2
    4b0c:	00080a13          	mv	s4,a6
    4b10:	be1ff06f          	j	46f0 <__subdf3+0xc0>
    4b14:	28688263          	beq	a7,t1,4d98 <__subdf3+0x768>
    4b18:	00800737          	lui	a4,0x800
    4b1c:	00e7e7b3          	or	a5,a5,a4
    4b20:	00080713          	mv	a4,a6
    4b24:	03800813          	li	a6,56
    4b28:	06e84e63          	blt	a6,a4,4ba4 <__subdf3+0x574>
    4b2c:	01f00813          	li	a6,31
    4b30:	02000e13          	li	t3,32
    4b34:	04e84063          	blt	a6,a4,4b74 <__subdf3+0x544>
    4b38:	40ee0e33          	sub	t3,t3,a4
    4b3c:	00e55333          	srl	t1,a0,a4
    4b40:	01c79833          	sll	a6,a5,t3
    4b44:	01c51e33          	sll	t3,a0,t3
    4b48:	00686833          	or	a6,a6,t1
    4b4c:	01c03e33          	snez	t3,t3
    4b50:	01c86533          	or	a0,a6,t3
    4b54:	00e7d733          	srl	a4,a5,a4
    4b58:	40a60533          	sub	a0,a2,a0
    4b5c:	40e58733          	sub	a4,a1,a4
    4b60:	00a63633          	sltu	a2,a2,a0
    4b64:	40c707b3          	sub	a5,a4,a2
    4b68:	00088a13          	mv	s4,a7
    4b6c:	00068993          	mv	s3,a3
    4b70:	ef1ff06f          	j	4a60 <__subdf3+0x430>
    4b74:	fe070813          	addi	a6,a4,-32 # 7fffe0 <__stack_top+0x7f2680>
    4b78:	0107d833          	srl	a6,a5,a6
    4b7c:	00000313          	li	t1,0
    4b80:	01c70863          	beq	a4,t3,4b90 <__subdf3+0x560>
    4b84:	04000313          	li	t1,64
    4b88:	40e30333          	sub	t1,t1,a4
    4b8c:	00679333          	sll	t1,a5,t1
    4b90:	00a36333          	or	t1,t1,a0
    4b94:	00603333          	snez	t1,t1
    4b98:	00686533          	or	a0,a6,t1
    4b9c:	00000713          	li	a4,0
    4ba0:	fb9ff06f          	j	4b58 <__subdf3+0x528>
    4ba4:	00a7e533          	or	a0,a5,a0
    4ba8:	00a03533          	snez	a0,a0
    4bac:	ff1ff06f          	j	4b9c <__subdf3+0x56c>
    4bb0:	001a0713          	addi	a4,s4,1
    4bb4:	7fe77713          	andi	a4,a4,2046
    4bb8:	0a071263          	bnez	a4,4c5c <__subdf3+0x62c>
    4bbc:	00c5e733          	or	a4,a1,a2
    4bc0:	00a7e833          	or	a6,a5,a0
    4bc4:	060a1863          	bnez	s4,4c34 <__subdf3+0x604>
    4bc8:	02081263          	bnez	a6,4bec <__subdf3+0x5bc>
    4bcc:	1e070063          	beqz	a4,4dac <__subdf3+0x77c>
    4bd0:	00068993          	mv	s3,a3
    4bd4:	00b66533          	or	a0,a2,a1
    4bd8:	12050263          	beqz	a0,4cfc <__subdf3+0x6cc>
    4bdc:	00058793          	mv	a5,a1
    4be0:	00060513          	mv	a0,a2
    4be4:	00000a13          	li	s4,0
    4be8:	db1ff06f          	j	4998 <__subdf3+0x368>
    4bec:	18070263          	beqz	a4,4d70 <__subdf3+0x740>
    4bf0:	40c50833          	sub	a6,a0,a2
    4bf4:	010538b3          	sltu	a7,a0,a6
    4bf8:	40b78733          	sub	a4,a5,a1
    4bfc:	41170733          	sub	a4,a4,a7
    4c00:	00871893          	slli	a7,a4,0x8
    4c04:	0008de63          	bgez	a7,4c20 <__subdf3+0x5f0>
    4c08:	40a60533          	sub	a0,a2,a0
    4c0c:	00a63733          	sltu	a4,a2,a0
    4c10:	40f585b3          	sub	a1,a1,a5
    4c14:	00050613          	mv	a2,a0
    4c18:	40e585b3          	sub	a1,a1,a4
    4c1c:	fb5ff06f          	j	4bd0 <__subdf3+0x5a0>
    4c20:	00e86533          	or	a0,a6,a4
    4c24:	18050863          	beqz	a0,4db4 <__subdf3+0x784>
    4c28:	00070593          	mv	a1,a4
    4c2c:	00080613          	mv	a2,a6
    4c30:	fa5ff06f          	j	4bd4 <__subdf3+0x5a4>
    4c34:	00081e63          	bnez	a6,4c50 <__subdf3+0x620>
    4c38:	00068993          	mv	s3,a3
    4c3c:	14071063          	bnez	a4,4d7c <__subdf3+0x74c>
    4c40:	00000993          	li	s3,0
    4c44:	004007b7          	lui	a5,0x400
    4c48:	00000513          	li	a0,0
    4c4c:	1380006f          	j	4d84 <__subdf3+0x754>
    4c50:	00030a13          	mv	s4,t1
    4c54:	a8070ee3          	beqz	a4,46f0 <__subdf3+0xc0>
    4c58:	d09ff06f          	j	4960 <__subdf3+0x330>
    4c5c:	40c50733          	sub	a4,a0,a2
    4c60:	00e53833          	sltu	a6,a0,a4
    4c64:	40b78933          	sub	s2,a5,a1
    4c68:	41090933          	sub	s2,s2,a6
    4c6c:	00891813          	slli	a6,s2,0x8
    4c70:	00070a93          	mv	s5,a4
    4c74:	06085e63          	bgez	a6,4cf0 <__subdf3+0x6c0>
    4c78:	40a60ab3          	sub	s5,a2,a0
    4c7c:	40f58933          	sub	s2,a1,a5
    4c80:	01563633          	sltu	a2,a2,s5
    4c84:	40c90933          	sub	s2,s2,a2
    4c88:	00068993          	mv	s3,a3
    4c8c:	06090e63          	beqz	s2,4d08 <__subdf3+0x6d8>
    4c90:	00090513          	mv	a0,s2
    4c94:	495000ef          	jal	5928 <__clzsi2>
    4c98:	ff850613          	addi	a2,a0,-8 # fff8 <__stack_top+0x2698>
    4c9c:	02000693          	li	a3,32
    4ca0:	40c686b3          	sub	a3,a3,a2
    4ca4:	00c91933          	sll	s2,s2,a2
    4ca8:	00dad6b3          	srl	a3,s5,a3
    4cac:	0126e6b3          	or	a3,a3,s2
    4cb0:	00ca9933          	sll	s2,s5,a2
    4cb4:	0b464263          	blt	a2,s4,4d58 <__subdf3+0x728>
    4cb8:	41460633          	sub	a2,a2,s4
    4cbc:	00160593          	addi	a1,a2,1 # 7ff00001 <__stack_top+0x7fef26a1>
    4cc0:	01f00793          	li	a5,31
    4cc4:	02000713          	li	a4,32
    4cc8:	06b7c063          	blt	a5,a1,4d28 <__subdf3+0x6f8>
    4ccc:	40b70733          	sub	a4,a4,a1
    4cd0:	00e69633          	sll	a2,a3,a4
    4cd4:	00b957b3          	srl	a5,s2,a1
    4cd8:	00e91733          	sll	a4,s2,a4
    4cdc:	00f66633          	or	a2,a2,a5
    4ce0:	00e03733          	snez	a4,a4
    4ce4:	00e66633          	or	a2,a2,a4
    4ce8:	00b6d5b3          	srl	a1,a3,a1
    4cec:	ee9ff06f          	j	4bd4 <__subdf3+0x5a4>
    4cf0:	01276533          	or	a0,a4,s2
    4cf4:	f8051ce3          	bnez	a0,4c8c <__subdf3+0x65c>
    4cf8:	00000993          	li	s3,0
    4cfc:	00000793          	li	a5,0
    4d00:	00000a13          	li	s4,0
    4d04:	9edff06f          	j	46f0 <__subdf3+0xc0>
    4d08:	000a8513          	mv	a0,s5
    4d0c:	41d000ef          	jal	5928 <__clzsi2>
    4d10:	01850613          	addi	a2,a0,24
    4d14:	01f00793          	li	a5,31
    4d18:	f8c7d2e3          	bge	a5,a2,4c9c <__subdf3+0x66c>
    4d1c:	ff850693          	addi	a3,a0,-8
    4d20:	00da96b3          	sll	a3,s5,a3
    4d24:	f91ff06f          	j	4cb4 <__subdf3+0x684>
    4d28:	fe160613          	addi	a2,a2,-31
    4d2c:	00c6d633          	srl	a2,a3,a2
    4d30:	00000793          	li	a5,0
    4d34:	00e58863          	beq	a1,a4,4d44 <__subdf3+0x714>
    4d38:	04000793          	li	a5,64
    4d3c:	40b787b3          	sub	a5,a5,a1
    4d40:	00f697b3          	sll	a5,a3,a5
    4d44:	00f967b3          	or	a5,s2,a5
    4d48:	00f037b3          	snez	a5,a5
    4d4c:	00f66633          	or	a2,a2,a5
    4d50:	00000593          	li	a1,0
    4d54:	e81ff06f          	j	4bd4 <__subdf3+0x5a4>
    4d58:	ff8007b7          	lui	a5,0xff800
    4d5c:	fff78793          	addi	a5,a5,-1 # ff7fffff <__stack_top+0xff7f269f>
    4d60:	40ca0a33          	sub	s4,s4,a2
    4d64:	00f6f7b3          	and	a5,a3,a5
    4d68:	00090513          	mv	a0,s2
    4d6c:	c2dff06f          	j	4998 <__subdf3+0x368>
    4d70:	00078593          	mv	a1,a5
    4d74:	00050613          	mv	a2,a0
    4d78:	e5dff06f          	j	4bd4 <__subdf3+0x5a4>
    4d7c:	00058793          	mv	a5,a1
    4d80:	00060513          	mv	a0,a2
    4d84:	00030a13          	mv	s4,t1
    4d88:	969ff06f          	j	46f0 <__subdf3+0xc0>
    4d8c:	00070a13          	mv	s4,a4
    4d90:	00000793          	li	a5,0
    4d94:	bd5ff06f          	j	4968 <__subdf3+0x338>
    4d98:	00068993          	mv	s3,a3
    4d9c:	00058793          	mv	a5,a1
    4da0:	00060513          	mv	a0,a2
    4da4:	00088a13          	mv	s4,a7
    4da8:	949ff06f          	j	46f0 <__subdf3+0xc0>
    4dac:	00000993          	li	s3,0
    4db0:	fe1ff06f          	j	4d90 <__subdf3+0x760>
    4db4:	00000993          	li	s3,0
    4db8:	00000793          	li	a5,0
    4dbc:	935ff06f          	j	46f0 <__subdf3+0xc0>

00004dc0 <__fixunsdfsi>:
    4dc0:	0145d713          	srli	a4,a1,0x14
    4dc4:	00100837          	lui	a6,0x100
    4dc8:	fff80793          	addi	a5,a6,-1 # fffff <__stack_top+0xf269f>
    4dcc:	7ff77713          	andi	a4,a4,2047
    4dd0:	3fe00613          	li	a2,1022
    4dd4:	00b7f7b3          	and	a5,a5,a1
    4dd8:	00050693          	mv	a3,a0
    4ddc:	01f5d593          	srli	a1,a1,0x1f
    4de0:	04e65a63          	bge	a2,a4,4e34 <__fixunsdfsi+0x74>
    4de4:	41f00613          	li	a2,1055
    4de8:	40b60633          	sub	a2,a2,a1
    4dec:	fff58513          	addi	a0,a1,-1
    4df0:	04c75463          	bge	a4,a2,4e38 <__fixunsdfsi+0x78>
    4df4:	00000513          	li	a0,0
    4df8:	04059063          	bnez	a1,4e38 <__fixunsdfsi+0x78>
    4dfc:	43300613          	li	a2,1075
    4e00:	40e60633          	sub	a2,a2,a4
    4e04:	01f00593          	li	a1,31
    4e08:	0107e7b3          	or	a5,a5,a6
    4e0c:	00c5cc63          	blt	a1,a2,4e24 <__fixunsdfsi+0x64>
    4e10:	bed70713          	addi	a4,a4,-1043
    4e14:	00e797b3          	sll	a5,a5,a4
    4e18:	00c6d533          	srl	a0,a3,a2
    4e1c:	00a7e533          	or	a0,a5,a0
    4e20:	00008067          	ret
    4e24:	41300693          	li	a3,1043
    4e28:	40e68733          	sub	a4,a3,a4
    4e2c:	00e7d533          	srl	a0,a5,a4
    4e30:	00008067          	ret
    4e34:	00000513          	li	a0,0
    4e38:	00008067          	ret

00004e3c <__floatunsidf>:
    4e3c:	ff010113          	addi	sp,sp,-16
    4e40:	01212023          	sw	s2,0(sp)
    4e44:	00112623          	sw	ra,12(sp)
    4e48:	00812423          	sw	s0,8(sp)
    4e4c:	00912223          	sw	s1,4(sp)
    4e50:	00050913          	mv	s2,a0
    4e54:	06050663          	beqz	a0,4ec0 <__floatunsidf+0x84>
    4e58:	2d1000ef          	jal	5928 <__clzsi2>
    4e5c:	41e00713          	li	a4,1054
    4e60:	00a00793          	li	a5,10
    4e64:	40a70733          	sub	a4,a4,a0
    4e68:	04a7c463          	blt	a5,a0,4eb0 <__floatunsidf+0x74>
    4e6c:	00b00793          	li	a5,11
    4e70:	40a787b3          	sub	a5,a5,a0
    4e74:	01550513          	addi	a0,a0,21
    4e78:	00f957b3          	srl	a5,s2,a5
    4e7c:	00a91933          	sll	s2,s2,a0
    4e80:	00c12083          	lw	ra,12(sp)
    4e84:	00812403          	lw	s0,8(sp)
    4e88:	00c79793          	slli	a5,a5,0xc
    4e8c:	01471713          	slli	a4,a4,0x14
    4e90:	00c7d793          	srli	a5,a5,0xc
    4e94:	00f766b3          	or	a3,a4,a5
    4e98:	00412483          	lw	s1,4(sp)
    4e9c:	00090513          	mv	a0,s2
    4ea0:	00068593          	mv	a1,a3
    4ea4:	00012903          	lw	s2,0(sp)
    4ea8:	01010113          	addi	sp,sp,16
    4eac:	00008067          	ret
    4eb0:	ff550513          	addi	a0,a0,-11
    4eb4:	00a917b3          	sll	a5,s2,a0
    4eb8:	00000913          	li	s2,0
    4ebc:	fc5ff06f          	j	4e80 <__floatunsidf+0x44>
    4ec0:	00000793          	li	a5,0
    4ec4:	00000713          	li	a4,0
    4ec8:	fb9ff06f          	j	4e80 <__floatunsidf+0x44>

00004ecc <__fixunsdfdi>:
    4ecc:	001006b7          	lui	a3,0x100
    4ed0:	0145d613          	srli	a2,a1,0x14
    4ed4:	fff68793          	addi	a5,a3,-1 # fffff <__stack_top+0xf269f>
    4ed8:	7ff67613          	andi	a2,a2,2047
    4edc:	3fe00713          	li	a4,1022
    4ee0:	00b7f7b3          	and	a5,a5,a1
    4ee4:	08c75463          	bge	a4,a2,4f6c <__fixunsdfdi+0xa0>
    4ee8:	01f5d593          	srli	a1,a1,0x1f
    4eec:	43f00713          	li	a4,1087
    4ef0:	40b70733          	sub	a4,a4,a1
    4ef4:	02e65863          	bge	a2,a4,4f24 <__fixunsdfdi+0x58>
    4ef8:	06059a63          	bnez	a1,4f6c <__fixunsdfdi+0xa0>
    4efc:	00d7e5b3          	or	a1,a5,a3
    4f00:	43200793          	li	a5,1074
    4f04:	02c7d663          	bge	a5,a2,4f30 <__fixunsdfdi+0x64>
    4f08:	ff010113          	addi	sp,sp,-16
    4f0c:	bcd60613          	addi	a2,a2,-1075
    4f10:	00112623          	sw	ra,12(sp)
    4f14:	1dd000ef          	jal	58f0 <__ashldi3>
    4f18:	00c12083          	lw	ra,12(sp)
    4f1c:	01010113          	addi	sp,sp,16
    4f20:	00008067          	ret
    4f24:	fff58513          	addi	a0,a1,-1
    4f28:	00050593          	mv	a1,a0
    4f2c:	00008067          	ret
    4f30:	43300793          	li	a5,1075
    4f34:	40c787b3          	sub	a5,a5,a2
    4f38:	01f00713          	li	a4,31
    4f3c:	00f74e63          	blt	a4,a5,4f58 <__fixunsdfdi+0x8c>
    4f40:	bed60613          	addi	a2,a2,-1043
    4f44:	00c59633          	sll	a2,a1,a2
    4f48:	00f55533          	srl	a0,a0,a5
    4f4c:	00a66533          	or	a0,a2,a0
    4f50:	00f5d5b3          	srl	a1,a1,a5
    4f54:	00008067          	ret
    4f58:	41300513          	li	a0,1043
    4f5c:	40c50533          	sub	a0,a0,a2
    4f60:	00a5d533          	srl	a0,a1,a0
    4f64:	00000593          	li	a1,0
    4f68:	00008067          	ret
    4f6c:	00000513          	li	a0,0
    4f70:	ff5ff06f          	j	4f64 <__fixunsdfdi+0x98>

00004f74 <__divsf3>:
    4f74:	fe010113          	addi	sp,sp,-32
    4f78:	00912a23          	sw	s1,20(sp)
    4f7c:	01755493          	srli	s1,a0,0x17
    4f80:	01212823          	sw	s2,16(sp)
    4f84:	01312623          	sw	s3,12(sp)
    4f88:	01412423          	sw	s4,8(sp)
    4f8c:	00951993          	slli	s3,a0,0x9
    4f90:	00112e23          	sw	ra,28(sp)
    4f94:	00812c23          	sw	s0,24(sp)
    4f98:	01512223          	sw	s5,4(sp)
    4f9c:	0ff4f493          	zext.b	s1,s1
    4fa0:	00058a13          	mv	s4,a1
    4fa4:	0099d993          	srli	s3,s3,0x9
    4fa8:	01f55913          	srli	s2,a0,0x1f
    4fac:	08048463          	beqz	s1,5034 <__divsf3+0xc0>
    4fb0:	0ff00793          	li	a5,255
    4fb4:	0af48063          	beq	s1,a5,5054 <__divsf3+0xe0>
    4fb8:	00399993          	slli	s3,s3,0x3
    4fbc:	040007b7          	lui	a5,0x4000
    4fc0:	00f9e9b3          	or	s3,s3,a5
    4fc4:	f8148493          	addi	s1,s1,-127 # 7fff81 <__stack_top+0x7f2621>
    4fc8:	00000a93          	li	s5,0
    4fcc:	017a5793          	srli	a5,s4,0x17
    4fd0:	009a1413          	slli	s0,s4,0x9
    4fd4:	0ff7f793          	zext.b	a5,a5
    4fd8:	00945413          	srli	s0,s0,0x9
    4fdc:	01fa5a13          	srli	s4,s4,0x1f
    4fe0:	08078863          	beqz	a5,5070 <__divsf3+0xfc>
    4fe4:	0ff00713          	li	a4,255
    4fe8:	0ae78463          	beq	a5,a4,5090 <__divsf3+0x11c>
    4fec:	00341413          	slli	s0,s0,0x3
    4ff0:	04000737          	lui	a4,0x4000
    4ff4:	00e46433          	or	s0,s0,a4
    4ff8:	f8178793          	addi	a5,a5,-127 # 3ffff81 <__stack_top+0x3ff2621>
    4ffc:	00000713          	li	a4,0
    5000:	40f484b3          	sub	s1,s1,a5
    5004:	002a9793          	slli	a5,s5,0x2
    5008:	00e7e7b3          	or	a5,a5,a4
    500c:	fff78793          	addi	a5,a5,-1
    5010:	00e00693          	li	a3,14
    5014:	01494533          	xor	a0,s2,s4
    5018:	08f6ea63          	bltu	a3,a5,50ac <__divsf3+0x138>
    501c:	0000b6b7          	lui	a3,0xb
    5020:	00279793          	slli	a5,a5,0x2
    5024:	fbc68693          	addi	a3,a3,-68 # afbc <Arr_2_Glob+0x2ef4>
    5028:	00d787b3          	add	a5,a5,a3
    502c:	0007a783          	lw	a5,0(a5)
    5030:	00078067          	jr	a5
    5034:	02098863          	beqz	s3,5064 <__divsf3+0xf0>
    5038:	00098513          	mv	a0,s3
    503c:	0ed000ef          	jal	5928 <__clzsi2>
    5040:	ffb50793          	addi	a5,a0,-5
    5044:	f8a00493          	li	s1,-118
    5048:	00f999b3          	sll	s3,s3,a5
    504c:	40a484b3          	sub	s1,s1,a0
    5050:	f79ff06f          	j	4fc8 <__divsf3+0x54>
    5054:	00200a93          	li	s5,2
    5058:	f6098ae3          	beqz	s3,4fcc <__divsf3+0x58>
    505c:	00300a93          	li	s5,3
    5060:	f6dff06f          	j	4fcc <__divsf3+0x58>
    5064:	00000493          	li	s1,0
    5068:	00100a93          	li	s5,1
    506c:	f61ff06f          	j	4fcc <__divsf3+0x58>
    5070:	02040863          	beqz	s0,50a0 <__divsf3+0x12c>
    5074:	00040513          	mv	a0,s0
    5078:	0b1000ef          	jal	5928 <__clzsi2>
    507c:	ffb50793          	addi	a5,a0,-5
    5080:	00f41433          	sll	s0,s0,a5
    5084:	f8a00793          	li	a5,-118
    5088:	40a787b3          	sub	a5,a5,a0
    508c:	f71ff06f          	j	4ffc <__divsf3+0x88>
    5090:	00200713          	li	a4,2
    5094:	f60406e3          	beqz	s0,5000 <__divsf3+0x8c>
    5098:	00300713          	li	a4,3
    509c:	f65ff06f          	j	5000 <__divsf3+0x8c>
    50a0:	00000793          	li	a5,0
    50a4:	00100713          	li	a4,1
    50a8:	f59ff06f          	j	5000 <__divsf3+0x8c>
    50ac:	00541713          	slli	a4,s0,0x5
    50b0:	1289f063          	bgeu	s3,s0,51d0 <__divsf3+0x25c>
    50b4:	fff48493          	addi	s1,s1,-1
    50b8:	00000793          	li	a5,0
    50bc:	01075613          	srli	a2,a4,0x10
    50c0:	02c9d833          	divu	a6,s3,a2
    50c4:	01071693          	slli	a3,a4,0x10
    50c8:	0106d693          	srli	a3,a3,0x10
    50cc:	0107d793          	srli	a5,a5,0x10
    50d0:	02c9f9b3          	remu	s3,s3,a2
    50d4:	00080413          	mv	s0,a6
    50d8:	030685b3          	mul	a1,a3,a6
    50dc:	01099993          	slli	s3,s3,0x10
    50e0:	0137e7b3          	or	a5,a5,s3
    50e4:	00b7fe63          	bgeu	a5,a1,5100 <__divsf3+0x18c>
    50e8:	00f707b3          	add	a5,a4,a5
    50ec:	fff80413          	addi	s0,a6,-1
    50f0:	00e7e863          	bltu	a5,a4,5100 <__divsf3+0x18c>
    50f4:	00b7f663          	bgeu	a5,a1,5100 <__divsf3+0x18c>
    50f8:	ffe80413          	addi	s0,a6,-2
    50fc:	00e787b3          	add	a5,a5,a4
    5100:	40b787b3          	sub	a5,a5,a1
    5104:	02c7d5b3          	divu	a1,a5,a2
    5108:	02c7f7b3          	remu	a5,a5,a2
    510c:	00058613          	mv	a2,a1
    5110:	02b686b3          	mul	a3,a3,a1
    5114:	01079793          	slli	a5,a5,0x10
    5118:	02d7f263          	bgeu	a5,a3,513c <__divsf3+0x1c8>
    511c:	00e78833          	add	a6,a5,a4
    5120:	00f838b3          	sltu	a7,a6,a5
    5124:	fff58613          	addi	a2,a1,-1
    5128:	00080793          	mv	a5,a6
    512c:	00089863          	bnez	a7,513c <__divsf3+0x1c8>
    5130:	00d87663          	bgeu	a6,a3,513c <__divsf3+0x1c8>
    5134:	ffe58613          	addi	a2,a1,-2
    5138:	00e807b3          	add	a5,a6,a4
    513c:	01041413          	slli	s0,s0,0x10
    5140:	40d787b3          	sub	a5,a5,a3
    5144:	00c46433          	or	s0,s0,a2
    5148:	00f037b3          	snez	a5,a5
    514c:	00f46433          	or	s0,s0,a5
    5150:	07f48713          	addi	a4,s1,127
    5154:	0ce05063          	blez	a4,5214 <__divsf3+0x2a0>
    5158:	00747793          	andi	a5,s0,7
    515c:	00078a63          	beqz	a5,5170 <__divsf3+0x1fc>
    5160:	00f47793          	andi	a5,s0,15
    5164:	00400693          	li	a3,4
    5168:	00d78463          	beq	a5,a3,5170 <__divsf3+0x1fc>
    516c:	00d40433          	add	s0,s0,a3
    5170:	00441793          	slli	a5,s0,0x4
    5174:	0007da63          	bgez	a5,5188 <__divsf3+0x214>
    5178:	f80007b7          	lui	a5,0xf8000
    517c:	fff78793          	addi	a5,a5,-1 # f7ffffff <__stack_top+0xf7ff269f>
    5180:	00f47433          	and	s0,s0,a5
    5184:	08048713          	addi	a4,s1,128
    5188:	0fe00793          	li	a5,254
    518c:	0ee7cc63          	blt	a5,a4,5284 <__divsf3+0x310>
    5190:	00345793          	srli	a5,s0,0x3
    5194:	01c12083          	lw	ra,28(sp)
    5198:	01812403          	lw	s0,24(sp)
    519c:	00979793          	slli	a5,a5,0x9
    51a0:	01771713          	slli	a4,a4,0x17
    51a4:	0097d793          	srli	a5,a5,0x9
    51a8:	00f76733          	or	a4,a4,a5
    51ac:	01f51513          	slli	a0,a0,0x1f
    51b0:	01412483          	lw	s1,20(sp)
    51b4:	01012903          	lw	s2,16(sp)
    51b8:	00c12983          	lw	s3,12(sp)
    51bc:	00812a03          	lw	s4,8(sp)
    51c0:	00412a83          	lw	s5,4(sp)
    51c4:	00a76533          	or	a0,a4,a0
    51c8:	02010113          	addi	sp,sp,32
    51cc:	00008067          	ret
    51d0:	01f99793          	slli	a5,s3,0x1f
    51d4:	0019d993          	srli	s3,s3,0x1
    51d8:	ee5ff06f          	j	50bc <__divsf3+0x148>
    51dc:	000a0513          	mv	a0,s4
    51e0:	00200793          	li	a5,2
    51e4:	0af70063          	beq	a4,a5,5284 <__divsf3+0x310>
    51e8:	00300793          	li	a5,3
    51ec:	08f70463          	beq	a4,a5,5274 <__divsf3+0x300>
    51f0:	00100793          	li	a5,1
    51f4:	f4f71ee3          	bne	a4,a5,5150 <__divsf3+0x1dc>
    51f8:	00000793          	li	a5,0
    51fc:	00000713          	li	a4,0
    5200:	f95ff06f          	j	5194 <__divsf3+0x220>
    5204:	00090513          	mv	a0,s2
    5208:	00098413          	mv	s0,s3
    520c:	000a8713          	mv	a4,s5
    5210:	fd1ff06f          	j	51e0 <__divsf3+0x26c>
    5214:	00100693          	li	a3,1
    5218:	00070c63          	beqz	a4,5230 <__divsf3+0x2bc>
    521c:	40e686b3          	sub	a3,a3,a4
    5220:	01b00613          	li	a2,27
    5224:	00000793          	li	a5,0
    5228:	00000713          	li	a4,0
    522c:	f6d644e3          	blt	a2,a3,5194 <__divsf3+0x220>
    5230:	09e48493          	addi	s1,s1,158
    5234:	00d456b3          	srl	a3,s0,a3
    5238:	00941433          	sll	s0,s0,s1
    523c:	00803433          	snez	s0,s0
    5240:	0086e7b3          	or	a5,a3,s0
    5244:	0077f713          	andi	a4,a5,7
    5248:	00070a63          	beqz	a4,525c <__divsf3+0x2e8>
    524c:	00f7f713          	andi	a4,a5,15
    5250:	00400693          	li	a3,4
    5254:	00d70463          	beq	a4,a3,525c <__divsf3+0x2e8>
    5258:	00d787b3          	add	a5,a5,a3
    525c:	00579713          	slli	a4,a5,0x5
    5260:	0037d793          	srli	a5,a5,0x3
    5264:	f8075ce3          	bgez	a4,51fc <__divsf3+0x288>
    5268:	00000793          	li	a5,0
    526c:	00100713          	li	a4,1
    5270:	f25ff06f          	j	5194 <__divsf3+0x220>
    5274:	004007b7          	lui	a5,0x400
    5278:	0ff00713          	li	a4,255
    527c:	00000513          	li	a0,0
    5280:	f15ff06f          	j	5194 <__divsf3+0x220>
    5284:	00000793          	li	a5,0
    5288:	0ff00713          	li	a4,255
    528c:	f09ff06f          	j	5194 <__divsf3+0x220>

00005290 <__mulsf3>:
    5290:	fe010113          	addi	sp,sp,-32
    5294:	01212823          	sw	s2,16(sp)
    5298:	01755913          	srli	s2,a0,0x17
    529c:	00912a23          	sw	s1,20(sp)
    52a0:	01312623          	sw	s3,12(sp)
    52a4:	01512223          	sw	s5,4(sp)
    52a8:	00951493          	slli	s1,a0,0x9
    52ac:	00112e23          	sw	ra,28(sp)
    52b0:	00812c23          	sw	s0,24(sp)
    52b4:	01412423          	sw	s4,8(sp)
    52b8:	0ff97913          	zext.b	s2,s2
    52bc:	00058a93          	mv	s5,a1
    52c0:	0094d493          	srli	s1,s1,0x9
    52c4:	01f55993          	srli	s3,a0,0x1f
    52c8:	18090463          	beqz	s2,5450 <__mulsf3+0x1c0>
    52cc:	0ff00793          	li	a5,255
    52d0:	1af90063          	beq	s2,a5,5470 <__mulsf3+0x1e0>
    52d4:	00349493          	slli	s1,s1,0x3
    52d8:	040007b7          	lui	a5,0x4000
    52dc:	00f4e4b3          	or	s1,s1,a5
    52e0:	f8190913          	addi	s2,s2,-127
    52e4:	00000a13          	li	s4,0
    52e8:	017ad793          	srli	a5,s5,0x17
    52ec:	009a9413          	slli	s0,s5,0x9
    52f0:	0ff7f793          	zext.b	a5,a5
    52f4:	00945413          	srli	s0,s0,0x9
    52f8:	01fada93          	srli	s5,s5,0x1f
    52fc:	18078863          	beqz	a5,548c <__mulsf3+0x1fc>
    5300:	0ff00713          	li	a4,255
    5304:	1ae78463          	beq	a5,a4,54ac <__mulsf3+0x21c>
    5308:	00341413          	slli	s0,s0,0x3
    530c:	04000737          	lui	a4,0x4000
    5310:	00e46433          	or	s0,s0,a4
    5314:	f8178793          	addi	a5,a5,-127 # 3ffff81 <__stack_top+0x3ff2621>
    5318:	00000713          	li	a4,0
    531c:	00f90933          	add	s2,s2,a5
    5320:	002a1793          	slli	a5,s4,0x2
    5324:	00e7e7b3          	or	a5,a5,a4
    5328:	00a00693          	li	a3,10
    532c:	00190613          	addi	a2,s2,1
    5330:	1cf6ce63          	blt	a3,a5,550c <__mulsf3+0x27c>
    5334:	00200593          	li	a1,2
    5338:	0159c9b3          	xor	s3,s3,s5
    533c:	00100693          	li	a3,1
    5340:	18f5c463          	blt	a1,a5,54c8 <__mulsf3+0x238>
    5344:	fff78793          	addi	a5,a5,-1
    5348:	1af6f063          	bgeu	a3,a5,54e8 <__mulsf3+0x258>
    534c:	0104d713          	srli	a4,s1,0x10
    5350:	01045793          	srli	a5,s0,0x10
    5354:	01049493          	slli	s1,s1,0x10
    5358:	01041413          	slli	s0,s0,0x10
    535c:	0104d493          	srli	s1,s1,0x10
    5360:	01045413          	srli	s0,s0,0x10
    5364:	029405b3          	mul	a1,s0,s1
    5368:	02870433          	mul	s0,a4,s0
    536c:	02f70733          	mul	a4,a4,a5
    5370:	029787b3          	mul	a5,a5,s1
    5374:	008786b3          	add	a3,a5,s0
    5378:	0105d793          	srli	a5,a1,0x10
    537c:	00d787b3          	add	a5,a5,a3
    5380:	0087f663          	bgeu	a5,s0,538c <__mulsf3+0xfc>
    5384:	000106b7          	lui	a3,0x10
    5388:	00d70733          	add	a4,a4,a3
    538c:	01059593          	slli	a1,a1,0x10
    5390:	01079693          	slli	a3,a5,0x10
    5394:	0105d593          	srli	a1,a1,0x10
    5398:	00b686b3          	add	a3,a3,a1
    539c:	0107d793          	srli	a5,a5,0x10
    53a0:	00669413          	slli	s0,a3,0x6
    53a4:	00e787b3          	add	a5,a5,a4
    53a8:	00679793          	slli	a5,a5,0x6
    53ac:	00803433          	snez	s0,s0
    53b0:	01a6d693          	srli	a3,a3,0x1a
    53b4:	00d46433          	or	s0,s0,a3
    53b8:	00479713          	slli	a4,a5,0x4
    53bc:	0087e433          	or	s0,a5,s0
    53c0:	16075463          	bgez	a4,5528 <__mulsf3+0x298>
    53c4:	00145793          	srli	a5,s0,0x1
    53c8:	00147413          	andi	s0,s0,1
    53cc:	0087e433          	or	s0,a5,s0
    53d0:	07f60713          	addi	a4,a2,127
    53d4:	14e05e63          	blez	a4,5530 <__mulsf3+0x2a0>
    53d8:	00747793          	andi	a5,s0,7
    53dc:	00078a63          	beqz	a5,53f0 <__mulsf3+0x160>
    53e0:	00f47793          	andi	a5,s0,15
    53e4:	00400693          	li	a3,4
    53e8:	00d78463          	beq	a5,a3,53f0 <__mulsf3+0x160>
    53ec:	00d40433          	add	s0,s0,a3
    53f0:	00441793          	slli	a5,s0,0x4
    53f4:	0007da63          	bgez	a5,5408 <__mulsf3+0x178>
    53f8:	f80007b7          	lui	a5,0xf8000
    53fc:	fff78793          	addi	a5,a5,-1 # f7ffffff <__stack_top+0xf7ff269f>
    5400:	00f47433          	and	s0,s0,a5
    5404:	08060713          	addi	a4,a2,128
    5408:	0fe00793          	li	a5,254
    540c:	18e7ca63          	blt	a5,a4,55a0 <__mulsf3+0x310>
    5410:	00345793          	srli	a5,s0,0x3
    5414:	01c12083          	lw	ra,28(sp)
    5418:	01812403          	lw	s0,24(sp)
    541c:	00979793          	slli	a5,a5,0x9
    5420:	01771713          	slli	a4,a4,0x17
    5424:	0097d793          	srli	a5,a5,0x9
    5428:	01f99993          	slli	s3,s3,0x1f
    542c:	00f76733          	or	a4,a4,a5
    5430:	01412483          	lw	s1,20(sp)
    5434:	01012903          	lw	s2,16(sp)
    5438:	00812a03          	lw	s4,8(sp)
    543c:	00412a83          	lw	s5,4(sp)
    5440:	01376533          	or	a0,a4,s3
    5444:	00c12983          	lw	s3,12(sp)
    5448:	02010113          	addi	sp,sp,32
    544c:	00008067          	ret
    5450:	02048863          	beqz	s1,5480 <__mulsf3+0x1f0>
    5454:	00048513          	mv	a0,s1
    5458:	4d0000ef          	jal	5928 <__clzsi2>
    545c:	ffb50793          	addi	a5,a0,-5
    5460:	f8a00913          	li	s2,-118
    5464:	00f494b3          	sll	s1,s1,a5
    5468:	40a90933          	sub	s2,s2,a0
    546c:	e79ff06f          	j	52e4 <__mulsf3+0x54>
    5470:	00200a13          	li	s4,2
    5474:	e6048ae3          	beqz	s1,52e8 <__mulsf3+0x58>
    5478:	00300a13          	li	s4,3
    547c:	e6dff06f          	j	52e8 <__mulsf3+0x58>
    5480:	00000913          	li	s2,0
    5484:	00100a13          	li	s4,1
    5488:	e61ff06f          	j	52e8 <__mulsf3+0x58>
    548c:	02040863          	beqz	s0,54bc <__mulsf3+0x22c>
    5490:	00040513          	mv	a0,s0
    5494:	494000ef          	jal	5928 <__clzsi2>
    5498:	ffb50793          	addi	a5,a0,-5
    549c:	00f41433          	sll	s0,s0,a5
    54a0:	f8a00793          	li	a5,-118
    54a4:	40a787b3          	sub	a5,a5,a0
    54a8:	e71ff06f          	j	5318 <__mulsf3+0x88>
    54ac:	00200713          	li	a4,2
    54b0:	e60406e3          	beqz	s0,531c <__mulsf3+0x8c>
    54b4:	00300713          	li	a4,3
    54b8:	e65ff06f          	j	531c <__mulsf3+0x8c>
    54bc:	00000793          	li	a5,0
    54c0:	00100713          	li	a4,1
    54c4:	e59ff06f          	j	531c <__mulsf3+0x8c>
    54c8:	00f697b3          	sll	a5,a3,a5
    54cc:	5307f693          	andi	a3,a5,1328
    54d0:	04069663          	bnez	a3,551c <__mulsf3+0x28c>
    54d4:	2407f693          	andi	a3,a5,576
    54d8:	0a069c63          	bnez	a3,5590 <__mulsf3+0x300>
    54dc:	0887f793          	andi	a5,a5,136
    54e0:	e60786e3          	beqz	a5,534c <__mulsf3+0xbc>
    54e4:	000a8993          	mv	s3,s5
    54e8:	00200793          	li	a5,2
    54ec:	0af70a63          	beq	a4,a5,55a0 <__mulsf3+0x310>
    54f0:	00300793          	li	a5,3
    54f4:	08f70e63          	beq	a4,a5,5590 <__mulsf3+0x300>
    54f8:	00100793          	li	a5,1
    54fc:	ecf71ae3          	bne	a4,a5,53d0 <__mulsf3+0x140>
    5500:	00000793          	li	a5,0
    5504:	00000713          	li	a4,0
    5508:	f0dff06f          	j	5414 <__mulsf3+0x184>
    550c:	00f00693          	li	a3,15
    5510:	08d78063          	beq	a5,a3,5590 <__mulsf3+0x300>
    5514:	00b00693          	li	a3,11
    5518:	fcd786e3          	beq	a5,a3,54e4 <__mulsf3+0x254>
    551c:	00048413          	mv	s0,s1
    5520:	000a0713          	mv	a4,s4
    5524:	fc5ff06f          	j	54e8 <__mulsf3+0x258>
    5528:	00090613          	mv	a2,s2
    552c:	ea5ff06f          	j	53d0 <__mulsf3+0x140>
    5530:	00100693          	li	a3,1
    5534:	00070c63          	beqz	a4,554c <__mulsf3+0x2bc>
    5538:	40e686b3          	sub	a3,a3,a4
    553c:	01b00593          	li	a1,27
    5540:	00000793          	li	a5,0
    5544:	00000713          	li	a4,0
    5548:	ecd5c6e3          	blt	a1,a3,5414 <__mulsf3+0x184>
    554c:	09e60613          	addi	a2,a2,158
    5550:	00d456b3          	srl	a3,s0,a3
    5554:	00c41433          	sll	s0,s0,a2
    5558:	00803433          	snez	s0,s0
    555c:	0086e7b3          	or	a5,a3,s0
    5560:	0077f713          	andi	a4,a5,7
    5564:	00070a63          	beqz	a4,5578 <__mulsf3+0x2e8>
    5568:	00f7f713          	andi	a4,a5,15
    556c:	00400693          	li	a3,4
    5570:	00d70463          	beq	a4,a3,5578 <__mulsf3+0x2e8>
    5574:	00d787b3          	add	a5,a5,a3
    5578:	00579713          	slli	a4,a5,0x5
    557c:	0037d793          	srli	a5,a5,0x3
    5580:	f80752e3          	bgez	a4,5504 <__mulsf3+0x274>
    5584:	00000793          	li	a5,0
    5588:	00100713          	li	a4,1
    558c:	e89ff06f          	j	5414 <__mulsf3+0x184>
    5590:	004007b7          	lui	a5,0x400
    5594:	0ff00713          	li	a4,255
    5598:	00000993          	li	s3,0
    559c:	e79ff06f          	j	5414 <__mulsf3+0x184>
    55a0:	00000793          	li	a5,0
    55a4:	0ff00713          	li	a4,255
    55a8:	e6dff06f          	j	5414 <__mulsf3+0x184>

000055ac <__floatsisf>:
    55ac:	ff010113          	addi	sp,sp,-16
    55b0:	00112623          	sw	ra,12(sp)
    55b4:	00812423          	sw	s0,8(sp)
    55b8:	00912223          	sw	s1,4(sp)
    55bc:	00050793          	mv	a5,a0
    55c0:	0e050463          	beqz	a0,56a8 <__floatsisf+0xfc>
    55c4:	41f55713          	srai	a4,a0,0x1f
    55c8:	00a74433          	xor	s0,a4,a0
    55cc:	40e40433          	sub	s0,s0,a4
    55d0:	01f55493          	srli	s1,a0,0x1f
    55d4:	00040513          	mv	a0,s0
    55d8:	350000ef          	jal	5928 <__clzsi2>
    55dc:	09e00793          	li	a5,158
    55e0:	40a787b3          	sub	a5,a5,a0
    55e4:	09600713          	li	a4,150
    55e8:	04f74063          	blt	a4,a5,5628 <__floatsisf+0x7c>
    55ec:	00800693          	li	a3,8
    55f0:	0cd50263          	beq	a0,a3,56b4 <__floatsisf+0x108>
    55f4:	ff850513          	addi	a0,a0,-8
    55f8:	00a41433          	sll	s0,s0,a0
    55fc:	00941413          	slli	s0,s0,0x9
    5600:	00945413          	srli	s0,s0,0x9
    5604:	01779793          	slli	a5,a5,0x17
    5608:	00c12083          	lw	ra,12(sp)
    560c:	0087e7b3          	or	a5,a5,s0
    5610:	00812403          	lw	s0,8(sp)
    5614:	01f49513          	slli	a0,s1,0x1f
    5618:	00a7e533          	or	a0,a5,a0
    561c:	00412483          	lw	s1,4(sp)
    5620:	01010113          	addi	sp,sp,16
    5624:	00008067          	ret
    5628:	09900713          	li	a4,153
    562c:	06f75463          	bge	a4,a5,5694 <__floatsisf+0xe8>
    5630:	01b50713          	addi	a4,a0,27
    5634:	00500693          	li	a3,5
    5638:	00e41733          	sll	a4,s0,a4
    563c:	40a686b3          	sub	a3,a3,a0
    5640:	00e03733          	snez	a4,a4
    5644:	00d45433          	srl	s0,s0,a3
    5648:	00876733          	or	a4,a4,s0
    564c:	fc000437          	lui	s0,0xfc000
    5650:	fff40413          	addi	s0,s0,-1 # fbffffff <__stack_top+0xfbff269f>
    5654:	00777693          	andi	a3,a4,7
    5658:	00877433          	and	s0,a4,s0
    565c:	04068263          	beqz	a3,56a0 <__floatsisf+0xf4>
    5660:	00f77713          	andi	a4,a4,15
    5664:	00400693          	li	a3,4
    5668:	02d70c63          	beq	a4,a3,56a0 <__floatsisf+0xf4>
    566c:	00d40433          	add	s0,s0,a3
    5670:	00541693          	slli	a3,s0,0x5
    5674:	00345713          	srli	a4,s0,0x3
    5678:	0206d463          	bgez	a3,56a0 <__floatsisf+0xf4>
    567c:	1f800437          	lui	s0,0x1f800
    5680:	09f00793          	li	a5,159
    5684:	fff40413          	addi	s0,s0,-1 # 1f7fffff <__stack_top+0x1f7f269f>
    5688:	40a787b3          	sub	a5,a5,a0
    568c:	00877433          	and	s0,a4,s0
    5690:	f6dff06f          	j	55fc <__floatsisf+0x50>
    5694:	ffb50713          	addi	a4,a0,-5
    5698:	00e41733          	sll	a4,s0,a4
    569c:	fb1ff06f          	j	564c <__floatsisf+0xa0>
    56a0:	00345413          	srli	s0,s0,0x3
    56a4:	f59ff06f          	j	55fc <__floatsisf+0x50>
    56a8:	00000493          	li	s1,0
    56ac:	00000413          	li	s0,0
    56b0:	f4dff06f          	j	55fc <__floatsisf+0x50>
    56b4:	00070793          	mv	a5,a4
    56b8:	f45ff06f          	j	55fc <__floatsisf+0x50>

000056bc <__extendsfdf2>:
    56bc:	01755713          	srli	a4,a0,0x17
    56c0:	0ff77713          	zext.b	a4,a4
    56c4:	fe010113          	addi	sp,sp,-32
    56c8:	00170793          	addi	a5,a4,1 # 4000001 <__stack_top+0x3ff26a1>
    56cc:	00812c23          	sw	s0,24(sp)
    56d0:	00912a23          	sw	s1,20(sp)
    56d4:	00951413          	slli	s0,a0,0x9
    56d8:	00112e23          	sw	ra,28(sp)
    56dc:	01212823          	sw	s2,16(sp)
    56e0:	01312623          	sw	s3,12(sp)
    56e4:	0fe7f793          	andi	a5,a5,254
    56e8:	00945413          	srli	s0,s0,0x9
    56ec:	01f55493          	srli	s1,a0,0x1f
    56f0:	04078663          	beqz	a5,573c <__extendsfdf2+0x80>
    56f4:	00345793          	srli	a5,s0,0x3
    56f8:	38070713          	addi	a4,a4,896
    56fc:	01d41413          	slli	s0,s0,0x1d
    5700:	00c79793          	slli	a5,a5,0xc
    5704:	00c7d793          	srli	a5,a5,0xc
    5708:	01471713          	slli	a4,a4,0x14
    570c:	01f49513          	slli	a0,s1,0x1f
    5710:	00f76733          	or	a4,a4,a5
    5714:	01c12083          	lw	ra,28(sp)
    5718:	00a767b3          	or	a5,a4,a0
    571c:	00040513          	mv	a0,s0
    5720:	01812403          	lw	s0,24(sp)
    5724:	01412483          	lw	s1,20(sp)
    5728:	01012903          	lw	s2,16(sp)
    572c:	00c12983          	lw	s3,12(sp)
    5730:	00078593          	mv	a1,a5
    5734:	02010113          	addi	sp,sp,32
    5738:	00008067          	ret
    573c:	04071663          	bnez	a4,5788 <__extendsfdf2+0xcc>
    5740:	00000793          	li	a5,0
    5744:	fa040ee3          	beqz	s0,5700 <__extendsfdf2+0x44>
    5748:	00040513          	mv	a0,s0
    574c:	1dc000ef          	jal	5928 <__clzsi2>
    5750:	00a00793          	li	a5,10
    5754:	02a7c263          	blt	a5,a0,5778 <__extendsfdf2+0xbc>
    5758:	00b00793          	li	a5,11
    575c:	40a787b3          	sub	a5,a5,a0
    5760:	01550713          	addi	a4,a0,21
    5764:	00f457b3          	srl	a5,s0,a5
    5768:	00e41433          	sll	s0,s0,a4
    576c:	38900713          	li	a4,905
    5770:	40a70733          	sub	a4,a4,a0
    5774:	f8dff06f          	j	5700 <__extendsfdf2+0x44>
    5778:	ff550793          	addi	a5,a0,-11
    577c:	00f417b3          	sll	a5,s0,a5
    5780:	00000413          	li	s0,0
    5784:	fe9ff06f          	j	576c <__extendsfdf2+0xb0>
    5788:	00000793          	li	a5,0
    578c:	00040a63          	beqz	s0,57a0 <__extendsfdf2+0xe4>
    5790:	00345793          	srli	a5,s0,0x3
    5794:	00080737          	lui	a4,0x80
    5798:	01d41413          	slli	s0,s0,0x1d
    579c:	00e7e7b3          	or	a5,a5,a4
    57a0:	7ff00713          	li	a4,2047
    57a4:	f5dff06f          	j	5700 <__extendsfdf2+0x44>

000057a8 <__truncdfsf2>:
    57a8:	0145d713          	srli	a4,a1,0x14
    57ac:	7ff77713          	andi	a4,a4,2047
    57b0:	00c59693          	slli	a3,a1,0xc
    57b4:	00170613          	addi	a2,a4,1 # 80001 <__stack_top+0x726a1>
    57b8:	0096d693          	srli	a3,a3,0x9
    57bc:	01d55793          	srli	a5,a0,0x1d
    57c0:	7fe67613          	andi	a2,a2,2046
    57c4:	00d7e7b3          	or	a5,a5,a3
    57c8:	01f5d593          	srli	a1,a1,0x1f
    57cc:	00351693          	slli	a3,a0,0x3
    57d0:	0c060063          	beqz	a2,5890 <__truncdfsf2+0xe8>
    57d4:	c8070613          	addi	a2,a4,-896
    57d8:	0fe00813          	li	a6,254
    57dc:	10c84663          	blt	a6,a2,58e8 <__truncdfsf2+0x140>
    57e0:	06c04c63          	bgtz	a2,5858 <__truncdfsf2+0xb0>
    57e4:	fe900513          	li	a0,-23
    57e8:	0ea64a63          	blt	a2,a0,58dc <__truncdfsf2+0x134>
    57ec:	00800837          	lui	a6,0x800
    57f0:	01e00893          	li	a7,30
    57f4:	0107e833          	or	a6,a5,a6
    57f8:	40c888b3          	sub	a7,a7,a2
    57fc:	01f00793          	li	a5,31
    5800:	0317c463          	blt	a5,a7,5828 <__truncdfsf2+0x80>
    5804:	c8270713          	addi	a4,a4,-894
    5808:	0116d8b3          	srl	a7,a3,a7
    580c:	00e696b3          	sll	a3,a3,a4
    5810:	00d036b3          	snez	a3,a3
    5814:	00e81833          	sll	a6,a6,a4
    5818:	0106e6b3          	or	a3,a3,a6
    581c:	00d8e7b3          	or	a5,a7,a3
    5820:	00000713          	li	a4,0
    5824:	0500006f          	j	5874 <__truncdfsf2+0xcc>
    5828:	ffe00793          	li	a5,-2
    582c:	40c787b3          	sub	a5,a5,a2
    5830:	02000513          	li	a0,32
    5834:	00f857b3          	srl	a5,a6,a5
    5838:	00000613          	li	a2,0
    583c:	00a88663          	beq	a7,a0,5848 <__truncdfsf2+0xa0>
    5840:	ca270613          	addi	a2,a4,-862
    5844:	00c81633          	sll	a2,a6,a2
    5848:	00d66633          	or	a2,a2,a3
    584c:	00c03633          	snez	a2,a2
    5850:	00c7e7b3          	or	a5,a5,a2
    5854:	fcdff06f          	j	5820 <__truncdfsf2+0x78>
    5858:	00651513          	slli	a0,a0,0x6
    585c:	00a03533          	snez	a0,a0
    5860:	00379793          	slli	a5,a5,0x3
    5864:	01d6d693          	srli	a3,a3,0x1d
    5868:	00f567b3          	or	a5,a0,a5
    586c:	00d7e7b3          	or	a5,a5,a3
    5870:	00060713          	mv	a4,a2
    5874:	0077f693          	andi	a3,a5,7
    5878:	00068863          	beqz	a3,5888 <__truncdfsf2+0xe0>
    587c:	00f7f693          	andi	a3,a5,15
    5880:	00400613          	li	a2,4
    5884:	00c69e63          	bne	a3,a2,58a0 <__truncdfsf2+0xf8>
    5888:	0037d793          	srli	a5,a5,0x3
    588c:	03c0006f          	j	58c8 <__truncdfsf2+0x120>
    5890:	00d7e7b3          	or	a5,a5,a3
    5894:	02071263          	bnez	a4,58b8 <__truncdfsf2+0x110>
    5898:	02078863          	beqz	a5,58c8 <__truncdfsf2+0x120>
    589c:	00100793          	li	a5,1
    58a0:	00478793          	addi	a5,a5,4 # 400004 <__stack_top+0x3f26a4>
    58a4:	00579693          	slli	a3,a5,0x5
    58a8:	fe06d0e3          	bgez	a3,5888 <__truncdfsf2+0xe0>
    58ac:	00170713          	addi	a4,a4,1
    58b0:	00000793          	li	a5,0
    58b4:	0140006f          	j	58c8 <__truncdfsf2+0x120>
    58b8:	0ff00713          	li	a4,255
    58bc:	00078663          	beqz	a5,58c8 <__truncdfsf2+0x120>
    58c0:	00000593          	li	a1,0
    58c4:	004007b7          	lui	a5,0x400
    58c8:	01771713          	slli	a4,a4,0x17
    58cc:	00f76733          	or	a4,a4,a5
    58d0:	01f59513          	slli	a0,a1,0x1f
    58d4:	00a76533          	or	a0,a4,a0
    58d8:	00008067          	ret
    58dc:	00100793          	li	a5,1
    58e0:	00000713          	li	a4,0
    58e4:	fbdff06f          	j	58a0 <__truncdfsf2+0xf8>
    58e8:	0ff00713          	li	a4,255
    58ec:	fc5ff06f          	j	58b0 <__truncdfsf2+0x108>

000058f0 <__ashldi3>:
    58f0:	02060063          	beqz	a2,5910 <__ashldi3+0x20>
    58f4:	02000793          	li	a5,32
    58f8:	40c787b3          	sub	a5,a5,a2
    58fc:	00f04c63          	bgtz	a5,5914 <__ashldi3+0x24>
    5900:	fe060613          	addi	a2,a2,-32
    5904:	00c515b3          	sll	a1,a0,a2
    5908:	00000713          	li	a4,0
    590c:	00070513          	mv	a0,a4
    5910:	00008067          	ret
    5914:	00c51733          	sll	a4,a0,a2
    5918:	00c595b3          	sll	a1,a1,a2
    591c:	00f55533          	srl	a0,a0,a5
    5920:	00a5e5b3          	or	a1,a1,a0
    5924:	fe9ff06f          	j	590c <__ashldi3+0x1c>

00005928 <__clzsi2>:
    5928:	000107b7          	lui	a5,0x10
    592c:	02f57a63          	bgeu	a0,a5,5960 <__clzsi2+0x38>
    5930:	10053793          	sltiu	a5,a0,256
    5934:	0017b793          	seqz	a5,a5
    5938:	00379793          	slli	a5,a5,0x3
    593c:	0000b737          	lui	a4,0xb
    5940:	02000693          	li	a3,32
    5944:	40f686b3          	sub	a3,a3,a5
    5948:	00f55533          	srl	a0,a0,a5
    594c:	ff870793          	addi	a5,a4,-8 # aff8 <__clz_tab>
    5950:	00a787b3          	add	a5,a5,a0
    5954:	0007c503          	lbu	a0,0(a5) # 10000 <__stack_top+0x26a0>
    5958:	40a68533          	sub	a0,a3,a0
    595c:	00008067          	ret
    5960:	01000737          	lui	a4,0x1000
    5964:	01800793          	li	a5,24
    5968:	fce57ae3          	bgeu	a0,a4,593c <__clzsi2+0x14>
    596c:	01000793          	li	a5,16
    5970:	fcdff06f          	j	593c <__clzsi2+0x14>
